	.text
	.syntax unified
	.eabi_attribute	67, "2.09"	@ Tag_conformance
	.cpu	cortex-m23
	.eabi_attribute	6, 16	@ Tag_CPU_arch
	.eabi_attribute	7, 77	@ Tag_CPU_arch_profile
	.eabi_attribute	8, 0	@ Tag_ARM_ISA_use
	.eabi_attribute	9, 3	@ Tag_THUMB_ISA_use
	.eabi_attribute	34, 0	@ Tag_CPU_unaligned_access
	.eabi_attribute	17, 1	@ Tag_ABI_PCS_GOT_use
	.eabi_attribute	20, 2	@ Tag_ABI_FP_denormal
	.eabi_attribute	21, 0	@ Tag_ABI_FP_exceptions
	.eabi_attribute	23, 1	@ Tag_ABI_FP_number_model
	.eabi_attribute	24, 1	@ Tag_ABI_align_needed
	.eabi_attribute	25, 1	@ Tag_ABI_align_preserved
	.eabi_attribute	38, 1	@ Tag_ABI_FP_16bit_format
	.eabi_attribute	18, 2	@ Tag_ABI_PCS_wchar_t
	.eabi_attribute	26, 1	@ Tag_ABI_enum_size
	.eabi_attribute	14, 0	@ Tag_ABI_PCS_R9_use
	.file	"common.c"
	.file	1 "D:\\Keil_v5\\ARM\\ARMCLANG\\Bin\\..\\include" "stdint.h"
	.section	.text.Delay_Ms,"ax",%progbits
	.hidden	Delay_Ms                @ -- Begin function Delay_Ms
	.globl	Delay_Ms
	.p2align	1
	.type	Delay_Ms,%function
	.code	16                      @ @Delay_Ms
	.thumb_func
Delay_Ms:
.Lfunc_begin0:
	.file	2 "E:\\Soway\\Soway_product-soft\\105 - T119-GD\\E230 -  ds18b20-F8\\MDK-ARM" "../APP/Src/common.c"
	.loc	2 4 0                   @ ../APP/Src/common.c:4:0
	.fnstart
	.cfi_sections .debug_frame
	.cfi_startproc
@ %bb.0:
	.pad	#4
	sub	sp, #4
	.cfi_def_cfa_offset 4
	str	r0, [sp]
.Ltmp0:
	.loc	2 5 11 prologue_end     @ ../APP/Src/common.c:5:11
	ldr	r0, [sp]
	movw	r1, #3200
	.loc	2 5 15 is_stmt 0        @ ../APP/Src/common.c:5:15
	muls	r1, r0, r1
	.loc	2 5 9                   @ ../APP/Src/common.c:5:9
	str	r1, [sp]
	.loc	2 8 5 is_stmt 1         @ ../APP/Src/common.c:8:5
	b	.LBB0_1
.LBB0_1:                                @ =>This Inner Loop Header: Depth=1
	.loc	2 8 15 is_stmt 0        @ ../APP/Src/common.c:8:15
	ldr	r0, [sp]
	subs	r1, r0, #1
	str	r1, [sp]
	.loc	2 8 5                   @ ../APP/Src/common.c:8:5
	cmp	r0, #0
	beq	.LBB0_3
	b	.LBB0_2
.LBB0_2:                                @   in Loop: Header=BB0_1 Depth=1
	b	.LBB0_1
.LBB0_3:
	.loc	2 9 1 is_stmt 1         @ ../APP/Src/common.c:9:1
	add	sp, #4
	bx	lr
.Ltmp1:
.Lfunc_end0:
	.size	Delay_Ms, .Lfunc_end0-Delay_Ms
	.cfi_endproc
	.cantunwind
	.fnend
                                        @ -- End function
	.section	.text.Delay_Us,"ax",%progbits
	.hidden	Delay_Us                @ -- Begin function Delay_Us
	.globl	Delay_Us
	.p2align	1
	.type	Delay_Us,%function
	.code	16                      @ @Delay_Us
	.thumb_func
Delay_Us:
.Lfunc_begin1:
	.loc	2 12 0                  @ ../APP/Src/common.c:12:0
	.fnstart
	.cfi_startproc
@ %bb.0:
	.pad	#4
	sub	sp, #4
	.cfi_def_cfa_offset 4
	str	r0, [sp]
.Ltmp2:
	.loc	2 13 11 prologue_end    @ ../APP/Src/common.c:13:11
	ldr	r0, [sp]
	.loc	2 13 15 is_stmt 0       @ ../APP/Src/common.c:13:15
	lsls	r0, r0, #3
	.loc	2 13 9                  @ ../APP/Src/common.c:13:9
	str	r0, [sp]
	.loc	2 15 5 is_stmt 1        @ ../APP/Src/common.c:15:5
	b	.LBB1_1
.LBB1_1:                                @ =>This Inner Loop Header: Depth=1
	.loc	2 15 15 is_stmt 0       @ ../APP/Src/common.c:15:15
	ldr	r0, [sp]
	subs	r1, r0, #1
	str	r1, [sp]
	.loc	2 15 5                  @ ../APP/Src/common.c:15:5
	cmp	r0, #0
	beq	.LBB1_3
	b	.LBB1_2
.LBB1_2:                                @   in Loop: Header=BB1_1 Depth=1
	b	.LBB1_1
.LBB1_3:
	.loc	2 16 1 is_stmt 1        @ ../APP/Src/common.c:16:1
	add	sp, #4
	bx	lr
.Ltmp3:
.Lfunc_end1:
	.size	Delay_Us, .Lfunc_end1-Delay_Us
	.cfi_endproc
	.cantunwind
	.fnend
                                        @ -- End function
	.section	.text.Unshort2Array,"ax",%progbits
	.hidden	Unshort2Array           @ -- Begin function Unshort2Array
	.globl	Unshort2Array
	.p2align	1
	.type	Unshort2Array,%function
	.code	16                      @ @Unshort2Array
	.thumb_func
Unshort2Array:
.Lfunc_begin2:
	.loc	2 31 0                  @ ../APP/Src/common.c:31:0
	.fnstart
	.cfi_startproc
@ %bb.0:
	.pad	#8
	sub	sp, #8
	.cfi_def_cfa_offset 8
	mov	r2, r0
	add	r3, sp, #4
	strh	r0, [r3]
	str	r1, [sp]
.Ltmp4:
	.loc	2 32 14 prologue_end    @ ../APP/Src/common.c:32:14
	ldrb	r0, [r3, #1]
	.loc	2 32 6 is_stmt 0        @ ../APP/Src/common.c:32:6
	ldr	r1, [sp]
	.loc	2 32 12                 @ ../APP/Src/common.c:32:12
	strb	r0, [r1]
	.loc	2 33 20 is_stmt 1       @ ../APP/Src/common.c:33:20
	ldr	r0, [sp, #4]
	.loc	2 33 7 is_stmt 0        @ ../APP/Src/common.c:33:7
	ldr	r1, [sp]
	.loc	2 33 18                 @ ../APP/Src/common.c:33:18
	strb	r0, [r1, #1]
	.loc	2 34 1 is_stmt 1        @ ../APP/Src/common.c:34:1
	add	sp, #8
	bx	lr
.Ltmp5:
.Lfunc_end2:
	.size	Unshort2Array, .Lfunc_end2-Unshort2Array
	.cfi_endproc
	.cantunwind
	.fnend
                                        @ -- End function
	.section	.text.long32Array,"ax",%progbits
	.hidden	long32Array             @ -- Begin function long32Array
	.globl	long32Array
	.p2align	1
	.type	long32Array,%function
	.code	16                      @ @long32Array
	.thumb_func
long32Array:
.Lfunc_begin3:
	.loc	2 50 0                  @ ../APP/Src/common.c:50:0
	.fnstart
	.cfi_startproc
@ %bb.0:
	.pad	#8
	sub	sp, #8
	.cfi_def_cfa_offset 8
	str	r0, [sp, #4]
	str	r1, [sp]
	add	r0, sp, #4
.Ltmp6:
	.loc	2 54 13 prologue_end    @ ../APP/Src/common.c:54:13
	ldrb	r1, [r0, #3]
	.loc	2 54 5 is_stmt 0        @ ../APP/Src/common.c:54:5
	ldr	r2, [sp]
	.loc	2 54 11                 @ ../APP/Src/common.c:54:11
	strb	r1, [r2]
	.loc	2 55 19 is_stmt 1       @ ../APP/Src/common.c:55:19
	ldrb	r1, [r0, #2]
	.loc	2 55 6 is_stmt 0        @ ../APP/Src/common.c:55:6
	ldr	r2, [sp]
	.loc	2 55 17                 @ ../APP/Src/common.c:55:17
	strb	r1, [r2, #1]
	.loc	2 56 19 is_stmt 1       @ ../APP/Src/common.c:56:19
	ldrb	r0, [r0, #1]
	.loc	2 56 6 is_stmt 0        @ ../APP/Src/common.c:56:6
	ldr	r1, [sp]
	.loc	2 56 17                 @ ../APP/Src/common.c:56:17
	strb	r0, [r1, #2]
	.loc	2 57 19 is_stmt 1       @ ../APP/Src/common.c:57:19
	ldr	r0, [sp, #4]
	.loc	2 57 6 is_stmt 0        @ ../APP/Src/common.c:57:6
	ldr	r1, [sp]
	.loc	2 57 17                 @ ../APP/Src/common.c:57:17
	strb	r0, [r1, #3]
	.loc	2 59 1 is_stmt 1        @ ../APP/Src/common.c:59:1
	add	sp, #8
	bx	lr
.Ltmp7:
.Lfunc_end3:
	.size	long32Array, .Lfunc_end3-long32Array
	.cfi_endproc
	.cantunwind
	.fnend
                                        @ -- End function
	.section	.text.Unlong2Array,"ax",%progbits
	.hidden	Unlong2Array            @ -- Begin function Unlong2Array
	.globl	Unlong2Array
	.p2align	1
	.type	Unlong2Array,%function
	.code	16                      @ @Unlong2Array
	.thumb_func
Unlong2Array:
.Lfunc_begin4:
	.loc	2 74 0                  @ ../APP/Src/common.c:74:0
	.fnstart
	.cfi_startproc
@ %bb.0:
	.pad	#12
	sub	sp, #12
	.cfi_def_cfa_offset 12
	str	r0, [sp, #8]
	str	r1, [sp, #4]
	mov	r0, sp
	movs	r1, #0
.Ltmp8:
	.loc	2 76 11 prologue_end    @ ../APP/Src/common.c:76:11
	strb	r1, [r0]
	.loc	2 76 9 is_stmt 0        @ ../APP/Src/common.c:76:9
	b	.LBB4_1
.LBB4_1:                                @ =>This Inner Loop Header: Depth=1
	.loc	2 0 9                   @ ../APP/Src/common.c:0:9
	mov	r0, sp
.Ltmp9:
	.loc	2 76 16                 @ ../APP/Src/common.c:76:16
	ldrb	r0, [r0]
.Ltmp10:
	.loc	2 76 5                  @ ../APP/Src/common.c:76:5
	cmp	r0, #3
	bgt	.LBB4_4
	b	.LBB4_2
.LBB4_2:                                @   in Loop: Header=BB4_1 Depth=1
	.loc	2 0 5                   @ ../APP/Src/common.c:0:5
	mov	r0, sp
.Ltmp11:
	.loc	2 78 54 is_stmt 1       @ ../APP/Src/common.c:78:54
	ldrb	r0, [r0]
	add	r1, sp, #8
	.loc	2 78 48 is_stmt 0       @ ../APP/Src/common.c:78:48
	subs	r1, r1, r0
	.loc	2 78 24                 @ ../APP/Src/common.c:78:24
	ldrb	r1, [r1, #3]
	.loc	2 78 11                 @ ../APP/Src/common.c:78:11
	ldr	r2, [sp, #4]
	.loc	2 78 22                 @ ../APP/Src/common.c:78:22
	strb	r1, [r2, r0]
	.loc	2 79 5 is_stmt 1        @ ../APP/Src/common.c:79:5
	b	.LBB4_3
.Ltmp12:
.LBB4_3:                                @   in Loop: Header=BB4_1 Depth=1
	.loc	2 76 24                 @ ../APP/Src/common.c:76:24
	ldr	r0, [sp]
	adds	r0, r0, #1
	mov	r1, sp
	strb	r0, [r1]
	.loc	2 76 5 is_stmt 0        @ ../APP/Src/common.c:76:5
	b	.LBB4_1
.Ltmp13:
.LBB4_4:
	.loc	2 80 1 is_stmt 1        @ ../APP/Src/common.c:80:1
	add	sp, #12
	bx	lr
.Ltmp14:
.Lfunc_end4:
	.size	Unlong2Array, .Lfunc_end4-Unlong2Array
	.cfi_endproc
	.cantunwind
	.fnend
                                        @ -- End function
	.section	".note.GNU-stack","",%progbits
	.eabi_attribute	30, 6	@ Tag_ABI_optimization_goals
	.ARM_attribute	16, 1	@ Tag_AV_eba