	.text
	.syntax unified
	.eabi_attribute	67, "2.09"	@ Tag_conformance
	.cpu	cortex-m23
	.eabi_attribute	6, 16	@ Tag_CPU_arch
	.eabi_attribute	7, 77	@ Tag_CPU_arch_profile
	.eabi_attribute	8, 0	@ Tag_ARM_ISA_use
	.eabi_attribute	9, 3	@ Tag_THUMB_ISA_use
	.eabi_attribute	34, 0	@ Tag_CPU_unaligned_access
	.eabi_attribute	17, 1	@ Tag_ABI_PCS_GOT_use
	.eabi_attribute	20, 2	@ Tag_ABI_FP_denormal
	.eabi_attribute	21, 0	@ Tag_ABI_FP_exceptions
	.eabi_attribute	23, 1	@ Tag_ABI_FP_number_model
	.eabi_attribute	24, 1	@ Tag_ABI_align_needed
	.eabi_attribute	25, 1	@ Tag_ABI_align_preserved
	.eabi_attribute	38, 1	@ Tag_ABI_FP_16bit_format
	.eabi_attribute	18, 2	@ Tag_ABI_PCS_wchar_t
	.eabi_attribute	26, 1	@ Tag_ABI_enum_size
	.eabi_attribute	14, 0	@ Tag_ABI_PCS_R9_use
	.file	"gd32e230_usart.c"
	.file	1 "E:\\Soway\\Soway_product-soft\\105 - T119-GD\\E230 -  ds18b20-F8\\MDK-ARM" "../GD32E230_Firmware_Library/GD32E230_standard_peripheral/Include\\gd32e230_rcu.h"
	.file	2 "E:\\Soway\\Soway_product-soft\\105 - T119-GD\\E230 -  ds18b20-F8\\MDK-ARM" "../GD32E230_Firmware_Library/GD32E230_standard_peripheral/Include\\gd32e230_usart.h"
	.file	3 "E:\\Soway\\Soway_product-soft\\105 - T119-GD\\E230 -  ds18b20-F8\\MDK-ARM" "../GD32E230_Firmware_Library/CMSIS/GD/GD32E230/Include\\gd32e230.h"
	.file	4 "D:\\Keil_v5\\ARM\\ARMCLANG\\Bin\\..\\include" "stdint.h"
	.section	.text.usart_deinit,"ax",%progbits
	.hidden	usart_deinit            @ -- Begin function usart_deinit
	.globl	usart_deinit
	.p2align	2
	.type	usart_deinit,%function
	.code	16                      @ @usart_deinit
	.thumb_func
usart_deinit:
.Lfunc_begin0:
	.file	5 "E:\\Soway\\Soway_product-soft\\105 - T119-GD\\E230 -  ds18b20-F8\\MDK-ARM" "../GD32E230_Firmware_Library/GD32E230_standard_peripheral/Source/gd32e230_usart.c"
	.loc	5 46 0                  @ ../GD32E230_Firmware_Library/GD32E230_standard_peripheral/Source/gd32e230_usart.c:46:0
	.fnstart
	.cfi_sections .debug_frame
	.cfi_startproc
@ %bb.0:
	.save	{r7, lr}
	push	{r7, lr}
	.cfi_def_cfa_offset 8
	.cfi_offset lr, -4
	.cfi_offset r7, -8
	.pad	#16
	sub	sp, #16
	.cfi_def_cfa_offset 24
	str	r0, [sp, #12]
.Ltmp0:
	.loc	5 47 12 prologue_end    @ ../GD32E230_Firmware_Library/GD32E230_standard_peripheral/Source/gd32e230_usart.c:47:12
	ldr	r0, [sp, #12]
	ldr	r1, __arm_cp.0_0
	.loc	5 47 5 is_stmt 0        @ ../GD32E230_Firmware_Library/GD32E230_standard_peripheral/Source/gd32e230_usart.c:47:5
	cmp	r0, r1
	str	r0, [sp, #8]            @ 4-byte Spill
	beq	.LBB0_3
	b	.LBB0_1
.LBB0_1:
	.loc	5 0 5                   @ ../GD32E230_Firmware_Library/GD32E230_standard_peripheral/Source/gd32e230_usart.c:0:5
	ldr	r0, __arm_cp.0_1
	.loc	5 47 5                  @ ../GD32E230_Firmware_Library/GD32E230_standard_peripheral/Source/gd32e230_usart.c:47:5
	ldr	r1, [sp, #8]            @ 4-byte Reload
	cmp	r1, r0
	bne	.LBB0_4
	b	.LBB0_2
.LBB0_2:
	.loc	5 0 5                   @ ../GD32E230_Firmware_Library/GD32E230_standard_peripheral/Source/gd32e230_usart.c:0:5
	ldr	r0, __arm_cp.0_3
.Ltmp1:
	.loc	5 50 9 is_stmt 1        @ ../GD32E230_Firmware_Library/GD32E230_standard_peripheral/Source/gd32e230_usart.c:50:9
	str	r0, [sp, #4]            @ 4-byte Spill
	bl	rcu_periph_reset_enable
	.loc	5 51 9                  @ ../GD32E230_Firmware_Library/GD32E230_standard_peripheral/Source/gd32e230_usart.c:51:9
	ldr	r0, [sp, #4]            @ 4-byte Reload
	bl	rcu_periph_reset_disable
	.loc	5 52 9                  @ ../GD32E230_Firmware_Library/GD32E230_standard_peripheral/Source/gd32e230_usart.c:52:9
	b	.LBB0_5
.LBB0_3:
	.loc	5 0 9 is_stmt 0         @ ../GD32E230_Firmware_Library/GD32E230_standard_peripheral/Source/gd32e230_usart.c:0:9
	ldr	r0, __arm_cp.0_2
	.loc	5 55 9 is_stmt 1        @ ../GD32E230_Firmware_Library/GD32E230_standard_peripheral/Source/gd32e230_usart.c:55:9
	str	r0, [sp]                @ 4-byte Spill
	bl	rcu_periph_reset_enable
	.loc	5 56 9                  @ ../GD32E230_Firmware_Library/GD32E230_standard_peripheral/Source/gd32e230_usart.c:56:9
	ldr	r0, [sp]                @ 4-byte Reload
	bl	rcu_periph_reset_disable
	.loc	5 57 9                  @ ../GD32E230_Firmware_Library/GD32E230_standard_peripheral/Source/gd32e230_usart.c:57:9
	b	.LBB0_5
.LBB0_4:
	.loc	5 59 9                  @ ../GD32E230_Firmware_Library/GD32E230_standard_peripheral/Source/gd32e230_usart.c:59:9
	b	.LBB0_5
.Ltmp2:
.LBB0_5:
	.loc	5 61 1                  @ ../GD32E230_Firmware_Library/GD32E230_standard_peripheral/Source/gd32e230_usart.c:61:1
	add	sp, #16
	pop	{r7, pc}
.Ltmp3:
	.p2align	2
@ %bb.6:
	.loc	5 0 1 is_stmt 0         @ ../GD32E230_Firmware_Library/GD32E230_standard_peripheral/Source/gd32e230_usart.c:0:1
__arm_cp.0_0:
	.long	1073759232              @ 0x40004400
.Lcpi_end0:
	.size	__arm_cp.0_0, .Lcpi_end0-__arm_cp.0_0
__arm_cp.0_1:
	.long	1073821696              @ 0x40013800
.Lcpi_end1:
	.size	__arm_cp.0_1, .Lcpi_end1-__arm_cp.0_1
__arm_cp.0_2:
	.long	1041                    @ 0x411
.Lcpi_end2:
	.size	__arm_cp.0_2, .Lcpi_end2-__arm_cp.0_2
__arm_cp.0_3:
	.long	782                     @ 0x30e
.Lcpi_end3:
	.size	__arm_cp.0_3, .Lcpi_end3-__arm_cp.0_3
.Lfunc_end0:
	.size	usart_deinit, .Lfunc_end0-usart_deinit
	.cfi_endproc
	.cantunwind
	.fnend
                                        @ -- End function
	.section	.text.usart_baudrate_set,"ax",%progbits
	.hidden	usart_baudrate_set      @ -- Begin function usart_baudrate_set
	.globl	usart_baudrate_set
	.p2align	2
	.type	usart_baudrate_set,%function
	.code	16                      @ @usart_baudrate_set
	.thumb_func
usart_baudrate_set:
.Lfunc_begin1:
	.loc	5 71 0 is_stmt 1        @ ../GD32E230_Firmware_Library/GD32E230_standard_peripheral/Source/gd32e230_usart.c:71:0
	.fnstart
	.cfi_startproc
@ %bb.0:
	.save	{r7, lr}
	push	{r7, lr}
	.cfi_def_cfa_offset 8
	.cfi_offset lr, -4
	.cfi_offset r7, -8
	.pad	#32
	sub	sp, #32
	.cfi_def_cfa_offset 40
	str	r0, [sp, #28]
	str	r1, [sp, #24]
	movs	r0, #0
.Ltmp4:
	.loc	5 72 14 prologue_end    @ ../GD32E230_Firmware_Library/GD32E230_standard_peripheral/Source/gd32e230_usart.c:72:14
	str	r0, [sp, #20]
	.loc	5 72 25 is_stmt 0       @ ../GD32E230_Firmware_Library/GD32E230_standard_peripheral/Source/gd32e230_usart.c:72:25
	str	r0, [sp, #16]
	.loc	5 72 38                 @ ../GD32E230_Firmware_Library/GD32E230_standard_peripheral/Source/gd32e230_usart.c:72:38
	str	r0, [sp, #12]
	.loc	5 72 51                 @ ../GD32E230_Firmware_Library/GD32E230_standard_peripheral/Source/gd32e230_usart.c:72:51
	str	r0, [sp, #8]
	.loc	5 73 12 is_stmt 1       @ ../GD32E230_Firmware_Library/GD32E230_standard_peripheral/Source/gd32e230_usart.c:73:12
	ldr	r0, [sp, #28]
	ldr	r1, __arm_cp.1_0
	.loc	5 73 5 is_stmt 0        @ ../GD32E230_Firmware_Library/GD32E230_standard_peripheral/Source/gd32e230_usart.c:73:5
	cmp	r0, r1
	str	r0, [sp, #4]            @ 4-byte Spill
	beq	.LBB1_3
	b	.LBB1_1
.LBB1_1:
	.loc	5 0 5                   @ ../GD32E230_Firmware_Library/GD32E230_standard_peripheral/Source/gd32e230_usart.c:0:5
	ldr	r0, __arm_cp.1_1
	.loc	5 73 5                  @ ../GD32E230_Firmware_Library/GD32E230_standard_peripheral/Source/gd32e230_usart.c:73:5
	ldr	r1, [sp, #4]            @ 4-byte Reload
	cmp	r1, r0
	bne	.LBB1_4
	b	.LBB1_2
.LBB1_2:
	.loc	5 0 5                   @ ../GD32E230_Firmware_Library/GD32E230_standard_peripheral/Source/gd32e230_usart.c:0:5
	movs	r0, #5
.Ltmp5:
	.loc	5 77 17 is_stmt 1       @ ../GD32E230_Firmware_Library/GD32E230_standard_peripheral/Source/gd32e230_usart.c:77:17
	bl	rcu_clock_freq_get
	.loc	5 77 15 is_stmt 0       @ ../GD32E230_Firmware_Library/GD32E230_standard_peripheral/Source/gd32e230_usart.c:77:15
	str	r0, [sp, #20]
	.loc	5 78 10 is_stmt 1       @ ../GD32E230_Firmware_Library/GD32E230_standard_peripheral/Source/gd32e230_usart.c:78:10
	b	.LBB1_5
.LBB1_3:
	.loc	5 0 10 is_stmt 0        @ ../GD32E230_Firmware_Library/GD32E230_standard_peripheral/Source/gd32e230_usart.c:0:10
	movs	r0, #2
	.loc	5 81 17 is_stmt 1       @ ../GD32E230_Firmware_Library/GD32E230_standard_peripheral/Source/gd32e230_usart.c:81:17
	bl	rcu_clock_freq_get
	.loc	5 81 15 is_stmt 0       @ ../GD32E230_Firmware_Library/GD32E230_standard_peripheral/Source/gd32e230_usart.c:81:15
	str	r0, [sp, #20]
	.loc	5 82 10 is_stmt 1       @ ../GD32E230_Firmware_Library/GD32E230_standard_peripheral/Source/gd32e230_usart.c:82:10
	b	.LBB1_5
.LBB1_4:
	.loc	5 84 10                 @ ../GD32E230_Firmware_Library/GD32E230_standard_peripheral/Source/gd32e230_usart.c:84:10
	b	.LBB1_5
.Ltmp6:
.LBB1_5:
	.loc	5 86 8                  @ ../GD32E230_Firmware_Library/GD32E230_standard_peripheral/Source/gd32e230_usart.c:86:8
	ldr	r0, [sp, #28]
	ldr	r0, [r0]
.Ltmp7:
	.loc	5 86 8 is_stmt 0        @ ../GD32E230_Firmware_Library/GD32E230_standard_peripheral/Source/gd32e230_usart.c:86:8
	lsls	r0, r0, #16
	cmp	r0, #0
	bpl	.LBB1_7
	b	.LBB1_6
.LBB1_6:
.Ltmp8:
	.loc	5 88 21 is_stmt 1       @ ../GD32E230_Firmware_Library/GD32E230_standard_peripheral/Source/gd32e230_usart.c:88:21
	ldr	r0, [sp, #20]
	.loc	5 88 20 is_stmt 0       @ ../GD32E230_Firmware_Library/GD32E230_standard_peripheral/Source/gd32e230_usart.c:88:20
	lsls	r0, r0, #1
	.loc	5 88 27                 @ ../GD32E230_Firmware_Library/GD32E230_standard_peripheral/Source/gd32e230_usart.c:88:27
	ldr	r1, [sp, #24]
	.loc	5 88 34                 @ ../GD32E230_Firmware_Library/GD32E230_standard_peripheral/Source/gd32e230_usart.c:88:34
	lsrs	r2, r1, #1
	.loc	5 88 26                 @ ../GD32E230_Firmware_Library/GD32E230_standard_peripheral/Source/gd32e230_usart.c:88:26
	adds	r0, r0, r2
	.loc	5 88 38                 @ ../GD32E230_Firmware_Library/GD32E230_standard_peripheral/Source/gd32e230_usart.c:88:38
	udiv	r0, r0, r1
	.loc	5 88 14                 @ ../GD32E230_Firmware_Library/GD32E230_standard_peripheral/Source/gd32e230_usart.c:88:14
	str	r0, [sp, #8]
	.loc	5 89 18 is_stmt 1       @ ../GD32E230_Firmware_Library/GD32E230_standard_peripheral/Source/gd32e230_usart.c:89:18
	ldr	r0, [sp, #8]
	ldr	r1, __arm_cp.1_2
	.loc	5 89 23 is_stmt 0       @ ../GD32E230_Firmware_Library/GD32E230_standard_peripheral/Source/gd32e230_usart.c:89:23
	ands	r0, r1
	.loc	5 89 16                 @ ../GD32E230_Firmware_Library/GD32E230_standard_peripheral/Source/gd32e230_usart.c:89:16
	str	r0, [sp, #16]
	.loc	5 90 19 is_stmt 1       @ ../GD32E230_Firmware_Library/GD32E230_standard_peripheral/Source/gd32e230_usart.c:90:19
	ldr	r0, [sp, #8]
	.loc	5 90 29 is_stmt 0       @ ../GD32E230_Firmware_Library/GD32E230_standard_peripheral/Source/gd32e230_usart.c:90:29
	lsls	r0, r0, #28
	lsrs	r0, r0, #29
	.loc	5 90 16                 @ ../GD32E230_Firmware_Library/GD32E230_standard_peripheral/Source/gd32e230_usart.c:90:16
	str	r0, [sp, #12]
	add	r0, sp, #16
	.loc	5 91 80 is_stmt 1       @ ../GD32E230_Firmware_Library/GD32E230_standard_peripheral/Source/gd32e230_usart.c:91:80
	ldrh	r0, [r0]
	add	r1, sp, #12
	.loc	5 91 89 is_stmt 0       @ ../GD32E230_Firmware_Library/GD32E230_standard_peripheral/Source/gd32e230_usart.c:91:89
	ldrh	r1, [r1]
	.loc	5 91 87                 @ ../GD32E230_Firmware_Library/GD32E230_standard_peripheral/Source/gd32e230_usart.c:91:87
	orrs	r0, r1
	.loc	5 91 9                  @ ../GD32E230_Firmware_Library/GD32E230_standard_peripheral/Source/gd32e230_usart.c:91:9
	ldr	r1, [sp, #28]
	.loc	5 91 34                 @ ../GD32E230_Firmware_Library/GD32E230_standard_peripheral/Source/gd32e230_usart.c:91:34
	str	r0, [r1, #12]
	.loc	5 92 5 is_stmt 1        @ ../GD32E230_Firmware_Library/GD32E230_standard_peripheral/Source/gd32e230_usart.c:92:5
	b	.LBB1_8
.Ltmp9:
.LBB1_7:
	.loc	5 94 17                 @ ../GD32E230_Firmware_Library/GD32E230_standard_peripheral/Source/gd32e230_usart.c:94:17
	ldr	r0, [sp, #20]
	.loc	5 94 22 is_stmt 0       @ ../GD32E230_Firmware_Library/GD32E230_standard_peripheral/Source/gd32e230_usart.c:94:22
	ldr	r1, [sp, #24]
	.loc	5 94 29                 @ ../GD32E230_Firmware_Library/GD32E230_standard_peripheral/Source/gd32e230_usart.c:94:29
	lsrs	r2, r1, #1
	.loc	5 94 21                 @ ../GD32E230_Firmware_Library/GD32E230_standard_peripheral/Source/gd32e230_usart.c:94:21
	adds	r0, r0, r2
	.loc	5 94 33                 @ ../GD32E230_Firmware_Library/GD32E230_standard_peripheral/Source/gd32e230_usart.c:94:33
	udiv	r0, r0, r1
	.loc	5 94 14                 @ ../GD32E230_Firmware_Library/GD32E230_standard_peripheral/Source/gd32e230_usart.c:94:14
	str	r0, [sp, #8]
	.loc	5 95 18 is_stmt 1       @ ../GD32E230_Firmware_Library/GD32E230_standard_peripheral/Source/gd32e230_usart.c:95:18
	ldr	r0, [sp, #8]
	ldr	r1, __arm_cp.1_2
	.loc	5 95 23 is_stmt 0       @ ../GD32E230_Firmware_Library/GD32E230_standard_peripheral/Source/gd32e230_usart.c:95:23
	ands	r0, r1
	.loc	5 95 16                 @ ../GD32E230_Firmware_Library/GD32E230_standard_peripheral/Source/gd32e230_usart.c:95:16
	str	r0, [sp, #16]
	.loc	5 96 18 is_stmt 1       @ ../GD32E230_Firmware_Library/GD32E230_standard_peripheral/Source/gd32e230_usart.c:96:18
	ldr	r0, [sp, #8]
	movs	r1, #15
	.loc	5 96 23 is_stmt 0       @ ../GD32E230_Firmware_Library/GD32E230_standard_peripheral/Source/gd32e230_usart.c:96:23
	ands	r0, r1
	.loc	5 96 16                 @ ../GD32E230_Firmware_Library/GD32E230_standard_peripheral/Source/gd32e230_usart.c:96:16
	str	r0, [sp, #12]
	add	r0, sp, #16
	.loc	5 97 80 is_stmt 1       @ ../GD32E230_Firmware_Library/GD32E230_standard_peripheral/Source/gd32e230_usart.c:97:80
	ldrh	r0, [r0]
	add	r1, sp, #12
	.loc	5 97 89 is_stmt 0       @ ../GD32E230_Firmware_Library/GD32E230_standard_peripheral/Source/gd32e230_usart.c:97:89
	ldrh	r1, [r1]
	.loc	5 97 87                 @ ../GD32E230_Firmware_Library/GD32E230_standard_peripheral/Source/gd32e230_usart.c:97:87
	orrs	r0, r1
	.loc	5 97 9                  @ ../GD32E230_Firmware_Library/GD32E230_standard_peripheral/Source/gd32e230_usart.c:97:9
	ldr	r1, [sp, #28]
	.loc	5 97 34                 @ ../GD32E230_Firmware_Library/GD32E230_standard_peripheral/Source/gd32e230_usart.c:97:34
	str	r0, [r1, #12]
	b	.LBB1_8
.Ltmp10:
.LBB1_8:
	.loc	5 99 1 is_stmt 1        @ ../GD32E230_Firmware_Library/GD32E230_standard_peripheral/Source/gd32e230_usart.c:99:1
	add	sp, #32
	pop	{r7, pc}
.Ltmp11:
	.p2align	2
@ %bb.9:
	.loc	5 0 1 is_stmt 0         @ ../GD32E230_Firmware_Library/GD32E230_standard_peripheral/Source/gd32e230_usart.c:0:1
__arm_cp.1_0:
	.long	1073759232              @ 0x40004400
.Lcpi_end4:
	.size	__arm_cp.1_0, .Lcpi_end4-__arm_cp.1_0
__arm_cp.1_1:
	.long	1073821696              @ 0x40013800
.Lcpi_end5:
	.size	__arm_cp.1_1, .Lcpi_end5-__arm_cp.1_1
__arm_cp.1_2:
	.long	65520                   @ 0xfff0
.Lcpi_end6:
	.size	__arm_cp.1_2, .Lcpi_end6-__arm_cp.1_2
.Lfunc_end1:
	.size	usart_baudrate_set, .Lfunc_end1-usart_baudrate_set
	.cfi_endproc
	.cantunwind
	.fnend
                                        @ -- End function
	.section	.text.usart_parity_config,"ax",%progbits
	.hidden	usart_parity_config     @ -- Begin function usart_parity_config
	.globl	usart_parity_config
	.p2align	1
	.type	usart_parity_config,%function
	.code	16                      @ @usart_parity_config
	.thumb_func
usart_parity_config:
.Lfunc_begin2:
	.loc	5 113 0 is_stmt 1       @ ../GD32E230_Firmware_Library/GD32E230_standard_peripheral/Source/gd32e230_usart.c:113:0
	.fnstart
	.cfi_startproc
@ %bb.0:
	.pad	#8
	sub	sp, #8
	.cfi_def_cfa_offset 8
	str	r0, [sp, #4]
	str	r1, [sp]
.Ltmp12:
	.loc	5 115 5 prologue_end    @ ../GD32E230_Firmware_Library/GD32E230_standard_peripheral/Source/gd32e230_usart.c:115:5
	ldr	r0, [sp, #4]
	.loc	5 115 30 is_stmt 0      @ ../GD32E230_Firmware_Library/GD32E230_standard_peripheral/Source/gd32e230_usart.c:115:30
	ldr	r1, [r0]
	movs	r2, #1
	bics	r1, r2
	str	r1, [r0]
	.loc	5 117 5 is_stmt 1       @ ../GD32E230_Firmware_Library/GD32E230_standard_peripheral/Source/gd32e230_usart.c:117:5
	ldr	r0, [sp, #4]
	.loc	5 117 30 is_stmt 0      @ ../GD32E230_Firmware_Library/GD32E230_standard_peripheral/Source/gd32e230_usart.c:117:30
	ldr	r1, [r0]
	movw	r2, #1536
	bics	r1, r2
	str	r1, [r0]
	.loc	5 119 33 is_stmt 1      @ ../GD32E230_Firmware_Library/GD32E230_standard_peripheral/Source/gd32e230_usart.c:119:33
	ldr	r0, [sp]
	.loc	5 119 5 is_stmt 0       @ ../GD32E230_Firmware_Library/GD32E230_standard_peripheral/Source/gd32e230_usart.c:119:5
	ldr	r1, [sp, #4]
	.loc	5 119 30                @ ../GD32E230_Firmware_Library/GD32E230_standard_peripheral/Source/gd32e230_usart.c:119:30
	ldr	r2, [r1]
	orrs	r2, r0
	str	r2, [r1]
	.loc	5 120 1 is_stmt 1       @ ../GD32E230_Firmware_Library/GD32E230_standard_peripheral/Source/gd32e230_usart.c:120:1
	add	sp, #8
	bx	lr
.Ltmp13:
.Lfunc_end2:
	.size	usart_parity_config, .Lfunc_end2-usart_parity_config
	.cfi_endproc
	.cantunwind
	.fnend
                                        @ -- End function
	.section	.text.usart_word_length_set,"ax",%progbits
	.hidden	usart_word_length_set   @ -- Begin function usart_word_length_set
	.globl	usart_word_length_set
	.p2align	1
	.type	usart_word_length_set,%function
	.code	16                      @ @usart_word_length_set
	.thumb_func
usart_word_length_set:
.Lfunc_begin3:
	.loc	5 133 0                 @ ../GD32E230_Firmware_Library/GD32E230_standard_peripheral/Source/gd32e230_usart.c:133:0
	.fnstart
	.cfi_startproc
@ %bb.0:
	.pad	#8
	sub	sp, #8
	.cfi_def_cfa_offset 8
	str	r0, [sp, #4]
	str	r1, [sp]
.Ltmp14:
	.loc	5 135 5 prologue_end    @ ../GD32E230_Firmware_Library/GD32E230_standard_peripheral/Source/gd32e230_usart.c:135:5
	ldr	r0, [sp, #4]
	.loc	5 135 30 is_stmt 0      @ ../GD32E230_Firmware_Library/GD32E230_standard_peripheral/Source/gd32e230_usart.c:135:30
	ldr	r1, [r0]
	movs	r2, #1
	bics	r1, r2
	str	r1, [r0]
	.loc	5 137 5 is_stmt 1       @ ../GD32E230_Firmware_Library/GD32E230_standard_peripheral/Source/gd32e230_usart.c:137:5
	ldr	r0, [sp, #4]
	.loc	5 137 30 is_stmt 0      @ ../GD32E230_Firmware_Library/GD32E230_standard_peripheral/Source/gd32e230_usart.c:137:30
	ldr	r1, [r0]
	movw	r2, #4096
	bics	r1, r2
	str	r1, [r0]
	.loc	5 139 33 is_stmt 1      @ ../GD32E230_Firmware_Library/GD32E230_standard_peripheral/Source/gd32e230_usart.c:139:33
	ldr	r0, [sp]
	.loc	5 139 5 is_stmt 0       @ ../GD32E230_Firmware_Library/GD32E230_standard_peripheral/Source/gd32e230_usart.c:139:5
	ldr	r1, [sp, #4]
	.loc	5 139 30                @ ../GD32E230_Firmware_Library/GD32E230_standard_peripheral/Source/gd32e230_usart.c:139:30
	ldr	r2, [r1]
	orrs	r2, r0
	str	r2, [r1]
	.loc	5 140 1 is_stmt 1       @ ../GD32E230_Firmware_Library/GD32E230_standard_peripheral/Source/gd32e230_usart.c:140:1
	add	sp, #8
	bx	lr
.Ltmp15:
.Lfunc_end3:
	.size	usart_word_length_set, .Lfunc_end3-usart_word_length_set
	.cfi_endproc
	.cantunwind
	.fnend
                                        @ -- End function
	.section	.text.usart_stop_bit_set,"ax",%progbits
	.hidden	usart_stop_bit_set      @ -- Begin function usart_stop_bit_set
	.globl	usart_stop_bit_set
	.p2align	1
	.type	usart_stop_bit_set,%function
	.code	16                      @ @usart_stop_bit_set
	.thumb_func
usart_stop_bit_set:
.Lfunc_begin4:
	.loc	5 155 0                 @ ../GD32E230_Firmware_Library/GD32E230_standard_peripheral/Source/gd32e230_usart.c:155:0
	.fnstart
	.cfi_startproc
@ %bb.0:
	.pad	#8
	sub	sp, #8
	.cfi_def_cfa_offset 8
	str	r0, [sp, #4]
	str	r1, [sp]
.Ltmp16:
	.loc	5 157 5 prologue_end    @ ../GD32E230_Firmware_Library/GD32E230_standard_peripheral/Source/gd32e230_usart.c:157:5
	ldr	r0, [sp, #4]
	.loc	5 157 30 is_stmt 0      @ ../GD32E230_Firmware_Library/GD32E230_standard_peripheral/Source/gd32e230_usart.c:157:30
	ldr	r1, [r0]
	movs	r2, #1
	bics	r1, r2
	str	r1, [r0]
	.loc	5 159 5 is_stmt 1       @ ../GD32E230_Firmware_Library/GD32E230_standard_peripheral/Source/gd32e230_usart.c:159:5
	ldr	r0, [sp, #4]
	.loc	5 159 30 is_stmt 0      @ ../GD32E230_Firmware_Library/GD32E230_standard_peripheral/Source/gd32e230_usart.c:159:30
	ldr	r1, [r0, #4]
	movw	r2, #12288
	bics	r1, r2
	str	r1, [r0, #4]
	.loc	5 160 33 is_stmt 1      @ ../GD32E230_Firmware_Library/GD32E230_standard_peripheral/Source/gd32e230_usart.c:160:33
	ldr	r0, [sp]
	.loc	5 160 5 is_stmt 0       @ ../GD32E230_Firmware_Library/GD32E230_standard_peripheral/Source/gd32e230_usart.c:160:5
	ldr	r1, [sp, #4]
	.loc	5 160 30                @ ../GD32E230_Firmware_Library/GD32E230_standard_peripheral/Source/gd32e230_usart.c:160:30
	ldr	r2, [r1, #4]
	orrs	r2, r0
	str	r2, [r1, #4]
	.loc	5 161 1 is_stmt 1       @ ../GD32E230_Firmware_Library/GD32E230_standard_peripheral/Source/gd32e230_usart.c:161:1
	add	sp, #8
	bx	lr
.Ltmp17:
.Lfunc_end4:
	.size	usart_stop_bit_set, .Lfunc_end4-usart_stop_bit_set
	.cfi_endproc
	.cantunwind
	.fnend
                                        @ -- End function
	.section	.text.usart_enable,"ax",%progbits
	.hidden	usart_enable            @ -- Begin function usart_enable
	.globl	usart_enable
	.p2align	1
	.type	usart_enable,%function
	.code	16                      @ @usart_enable
	.thumb_func
usart_enable:
.Lfunc_begin5:
	.loc	5 170 0                 @ ../GD32E230_Firmware_Library/GD32E230_standard_peripheral/Source/gd32e230_usart.c:170:0
	.fnstart
	.cfi_startproc
@ %bb.0:
	.pad	#4
	sub	sp, #4
	.cfi_def_cfa_offset 4
	str	r0, [sp]
.Ltmp18:
	.loc	5 171 5 prologue_end    @ ../GD32E230_Firmware_Library/GD32E230_standard_peripheral/Source/gd32e230_usart.c:171:5
	ldr	r0, [sp]
	.loc	5 171 30 is_stmt 0      @ ../GD32E230_Firmware_Library/GD32E230_standard_peripheral/Source/gd32e230_usart.c:171:30
	ldr	r1, [r0]
	movs	r2, #1
	orrs	r1, r2
	str	r1, [r0]
	.loc	5 172 1 is_stmt 1       @ ../GD32E230_Firmware_Library/GD32E230_standard_peripheral/Source/gd32e230_usart.c:172:1
	add	sp, #4
	bx	lr
.Ltmp19:
.Lfunc_end5:
	.size	usart_enable, .Lfunc_end5-usart_enable
	.cfi_endproc
	.cantunwind
	.fnend
                                        @ -- End function
	.section	.text.usart_disable,"ax",%progbits
	.hidden	usart_disable           @ -- Begin function usart_disable
	.globl	usart_disable
	.p2align	1
	.type	usart_disable,%function
	.code	16                      @ @usart_disable
	.thumb_func
usart_disable:
.Lfunc_begin6:
	.loc	5 181 0                 @ ../GD32E230_Firmware_Library/GD32E230_standard_peripheral/Source/gd32e230_usart.c:181:0
	.fnstart
	.cfi_startproc
@ %bb.0:
	.pad	#4
	sub	sp, #4
	.cfi_def_cfa_offset 4
	str	r0, [sp]
.Ltmp20:
	.loc	5 182 5 prologue_end    @ ../GD32E230_Firmware_Library/GD32E230_standard_peripheral/Source/gd32e230_usart.c:182:5
	ldr	r0, [sp]
	.loc	5 182 30 is_stmt 0      @ ../GD32E230_Firmware_Library/GD32E230_standard_peripheral/Source/gd32e230_usart.c:182:30
	ldr	r1, [r0]
	movs	r2, #1
	bics	r1, r2
	str	r1, [r0]
	.loc	5 183 1 is_stmt 1       @ ../GD32E230_Firmware_Library/GD32E230_standard_peripheral/Source/gd32e230_usart.c:183:1
	add	sp, #4
	bx	lr
.Ltmp21:
.Lfunc_end6:
	.size	usart_disable, .Lfunc_end6-usart_disable
	.cfi_endproc
	.cantunwind
	.fnend
                                        @ -- End function
	.section	.text.usart_transmit_config,"ax",%progbits
	.hidden	usart_transmit_config   @ -- Begin function usart_transmit_config
	.globl	usart_transmit_config
	.p2align	1
	.type	usart_transmit_config,%function
	.code	16                      @ @usart_transmit_config
	.thumb_func
usart_transmit_config:
.Lfunc_begin7:
	.loc	5 196 0                 @ ../GD32E230_Firmware_Library/GD32E230_standard_peripheral/Source/gd32e230_usart.c:196:0
	.fnstart
	.cfi_startproc
@ %bb.0:
	.pad	#8
	sub	sp, #8
	.cfi_def_cfa_offset 8
	str	r0, [sp, #4]
	str	r1, [sp]
.Ltmp22:
	.loc	5 197 5 prologue_end    @ ../GD32E230_Firmware_Library/GD32E230_standard_peripheral/Source/gd32e230_usart.c:197:5
	ldr	r0, [sp, #4]
	.loc	5 197 30 is_stmt 0      @ ../GD32E230_Firmware_Library/GD32E230_standard_peripheral/Source/gd32e230_usart.c:197:30
	ldr	r1, [r0]
	movs	r2, #8
	bics	r1, r2
	str	r1, [r0]
	.loc	5 199 33 is_stmt 1      @ ../GD32E230_Firmware_Library/GD32E230_standard_peripheral/Source/gd32e230_usart.c:199:33
	ldr	r0, [sp]
	.loc	5 199 5 is_stmt 0       @ ../GD32E230_Firmware_Library/GD32E230_standard_peripheral/Source/gd32e230_usart.c:199:5
	ldr	r1, [sp, #4]
	.loc	5 199 30                @ ../GD32E230_Firmware_Library/GD32E230_standard_peripheral/Source/gd32e230_usart.c:199:30
	ldr	r2, [r1]
	orrs	r2, r0
	str	r2, [r1]
	.loc	5 200 1 is_stmt 1       @ ../GD32E230_Firmware_Library/GD32E230_standard_peripheral/Source/gd32e230_usart.c:200:1
	add	sp, #8
	bx	lr
.Ltmp23:
.Lfunc_end7:
	.size	usart_transmit_config, .Lfunc_end7-usart_transmit_config
	.cfi_endproc
	.cantunwind
	.fnend
                                        @ -- End function
	.section	.text.usart_receive_config,"ax",%progbits
	.hidden	usart_receive_config    @ -- Begin function usart_receive_config
	.globl	usart_receive_config
	.p2align	1
	.type	usart_receive_config,%function
	.code	16                      @ @usart_receive_config
	.thumb_func
usart_receive_config:
.Lfunc_begin8:
	.loc	5 213 0                 @ ../GD32E230_Firmware_Library/GD32E230_standard_peripheral/Source/gd32e230_usart.c:213:0
	.fnstart
	.cfi_startproc
@ %bb.0:
	.pad	#8
	sub	sp, #8
	.cfi_def_cfa_offset 8
	str	r0, [sp, #4]
	str	r1, [sp]
.Ltmp24:
	.loc	5 214 5 prologue_end    @ ../GD32E230_Firmware_Library/GD32E230_standard_peripheral/Source/gd32e230_usart.c:214:5
	ldr	r0, [sp, #4]
	.loc	5 214 30 is_stmt 0      @ ../GD32E230_Firmware_Library/GD32E230_standard_peripheral/Source/gd32e230_usart.c:214:30
	ldr	r1, [r0]
	movs	r2, #4
	bics	r1, r2
	str	r1, [r0]
	.loc	5 216 33 is_stmt 1      @ ../GD32E230_Firmware_Library/GD32E230_standard_peripheral/Source/gd32e230_usart.c:216:33
	ldr	r0, [sp]
	.loc	5 216 5 is_stmt 0       @ ../GD32E230_Firmware_Library/GD32E230_standard_peripheral/Source/gd32e230_usart.c:216:5
	ldr	r1, [sp, #4]
	.loc	5 216 30                @ ../GD32E230_Firmware_Library/GD32E230_standard_peripheral/Source/gd32e230_usart.c:216:30
	ldr	r2, [r1]
	orrs	r2, r0
	str	r2, [r1]
	.loc	5 217 1 is_stmt 1       @ ../GD32E230_Firmware_Library/GD32E230_standard_peripheral/Source/gd32e230_usart.c:217:1
	add	sp, #8
	bx	lr
.Ltmp25:
.Lfunc_end8:
	.size	usart_receive_config, .Lfunc_end8-usart_receive_config
	.cfi_endproc
	.cantunwind
	.fnend
                                        @ -- End function
	.section	.text.usart_data_first_config,"ax",%progbits
	.hidden	usart_data_first_config @ -- Begin function usart_data_first_config
	.globl	usart_data_first_config
	.p2align	1
	.type	usart_data_first_config,%function
	.code	16                      @ @usart_data_first_config
	.thumb_func
usart_data_first_config:
.Lfunc_begin9:
	.loc	5 230 0                 @ ../GD32E230_Firmware_Library/GD32E230_standard_peripheral/Source/gd32e230_usart.c:230:0
	.fnstart
	.cfi_startproc
@ %bb.0:
	.pad	#8
	sub	sp, #8
	.cfi_def_cfa_offset 8
	str	r0, [sp, #4]
	str	r1, [sp]
.Ltmp26:
	.loc	5 231 5 prologue_end    @ ../GD32E230_Firmware_Library/GD32E230_standard_peripheral/Source/gd32e230_usart.c:231:5
	ldr	r0, [sp, #4]
	.loc	5 231 30 is_stmt 0      @ ../GD32E230_Firmware_Library/GD32E230_standard_peripheral/Source/gd32e230_usart.c:231:30
	ldr	r1, [r0]
	movs	r2, #1
	bics	r1, r2
	str	r1, [r0]
	.loc	5 233 5 is_stmt 1       @ ../GD32E230_Firmware_Library/GD32E230_standard_peripheral/Source/gd32e230_usart.c:233:5
	ldr	r0, [sp, #4]
	.loc	5 233 30 is_stmt 0      @ ../GD32E230_Firmware_Library/GD32E230_standard_peripheral/Source/gd32e230_usart.c:233:30
	ldr	r1, [r0, #4]
	lsls	r2, r2, #19
	bics	r1, r2
	str	r1, [r0, #4]
	.loc	5 234 52 is_stmt 1      @ ../GD32E230_Firmware_Library/GD32E230_standard_peripheral/Source/gd32e230_usart.c:234:52
	ldr	r0, [sp]
	.loc	5 234 50 is_stmt 0      @ ../GD32E230_Firmware_Library/GD32E230_standard_peripheral/Source/gd32e230_usart.c:234:50
	ands	r0, r2
	.loc	5 234 5                 @ ../GD32E230_Firmware_Library/GD32E230_standard_peripheral/Source/gd32e230_usart.c:234:5
	ldr	r1, [sp, #4]
	.loc	5 234 30                @ ../GD32E230_Firmware_Library/GD32E230_standard_peripheral/Source/gd32e230_usart.c:234:30
	ldr	r2, [r1, #4]
	orrs	r2, r0
	str	r2, [r1, #4]
	.loc	5 235 1 is_stmt 1       @ ../GD32E230_Firmware_Library/GD32E230_standard_peripheral/Source/gd32e230_usart.c:235:1
	add	sp, #8
	bx	lr
.Ltmp27:
.Lfunc_end9:
	.size	usart_data_first_config, .Lfunc_end9-usart_data_first_config
	.cfi_endproc
	.cantunwind
	.fnend
                                        @ -- End function
	.section	.text.usart_invert_config,"ax",%progbits
	.hidden	usart_invert_config     @ -- Begin function usart_invert_config
	.globl	usart_invert_config
	.p2align	2
	.type	usart_invert_config,%function
	.code	16                      @ @usart_invert_config
	.thumb_func
usart_invert_config:
.Lfunc_begin10:
	.loc	5 254 0                 @ ../GD32E230_Firmware_Library/GD32E230_standard_peripheral/Source/gd32e230_usart.c:254:0
	.fnstart
	.cfi_startproc
@ %bb.0:
	.save	{r4, lr}
	push	{r4, lr}
	.cfi_def_cfa_offset 8
	.cfi_offset lr, -4
	.cfi_offset r4, -8
	.pad	#12
	sub	sp, #12
	.cfi_def_cfa_offset 20
	mov	r2, r1
	str	r0, [sp, #8]
	add	r0, sp, #4
	strb	r1, [r0]
.Ltmp28:
	.loc	5 255 5 prologue_end    @ ../GD32E230_Firmware_Library/GD32E230_standard_peripheral/Source/gd32e230_usart.c:255:5
	ldr	r1, [sp, #8]
	.loc	5 255 30 is_stmt 0      @ ../GD32E230_Firmware_Library/GD32E230_standard_peripheral/Source/gd32e230_usart.c:255:30
	ldr	r3, [r1]
	movs	r4, #1
	bics	r3, r4
	str	r3, [r1]
	.loc	5 257 12 is_stmt 1      @ ../GD32E230_Firmware_Library/GD32E230_standard_peripheral/Source/gd32e230_usart.c:257:12
	ldrb	r0, [r0]
	.loc	5 257 5 is_stmt 0       @ ../GD32E230_Firmware_Library/GD32E230_standard_peripheral/Source/gd32e230_usart.c:257:5
	cmp	r0, #7
	str	r0, [sp]                @ 4-byte Spill
	bhi	.LBB10_11
@ %bb.1:
	.loc	5 0 5                   @ ../GD32E230_Firmware_Library/GD32E230_standard_peripheral/Source/gd32e230_usart.c:0:5
	ldr	r0, [sp]                @ 4-byte Reload
	lsls	r1, r0, #2
	adr	r2, .LJTI10_0
	adds	r1, r2, r1
	mov	pc, r1
@ %bb.2:
	.p2align	2
.LJTI10_0:
	b.w	.LBB10_3
	b.w	.LBB10_4
	b.w	.LBB10_5
	b.w	.LBB10_6
	b.w	.LBB10_7
	b.w	.LBB10_8
	b.w	.LBB10_9
	b.w	.LBB10_10
.LBB10_3:
.Ltmp29:
	.loc	5 259 9 is_stmt 1       @ ../GD32E230_Firmware_Library/GD32E230_standard_peripheral/Source/gd32e230_usart.c:259:9
	ldr	r0, [sp, #8]
	.loc	5 259 34 is_stmt 0      @ ../GD32E230_Firmware_Library/GD32E230_standard_peripheral/Source/gd32e230_usart.c:259:34
	ldr	r1, [r0, #4]
	movs	r2, #1
	lsls	r2, r2, #18
	orrs	r1, r2
	str	r1, [r0, #4]
	.loc	5 260 9 is_stmt 1       @ ../GD32E230_Firmware_Library/GD32E230_standard_peripheral/Source/gd32e230_usart.c:260:9
	b	.LBB10_12
.LBB10_4:
	.loc	5 262 9                 @ ../GD32E230_Firmware_Library/GD32E230_standard_peripheral/Source/gd32e230_usart.c:262:9
	ldr	r0, [sp, #8]
	.loc	5 262 34 is_stmt 0      @ ../GD32E230_Firmware_Library/GD32E230_standard_peripheral/Source/gd32e230_usart.c:262:34
	ldr	r1, [r0, #4]
	movs	r2, #1
	lsls	r2, r2, #18
	bics	r1, r2
	str	r1, [r0, #4]
	.loc	5 263 9 is_stmt 1       @ ../GD32E230_Firmware_Library/GD32E230_standard_peripheral/Source/gd32e230_usart.c:263:9
	b	.LBB10_12
.LBB10_5:
	.loc	5 265 9                 @ ../GD32E230_Firmware_Library/GD32E230_standard_peripheral/Source/gd32e230_usart.c:265:9
	ldr	r0, [sp, #8]
	.loc	5 265 34 is_stmt 0      @ ../GD32E230_Firmware_Library/GD32E230_standard_peripheral/Source/gd32e230_usart.c:265:34
	ldr	r1, [r0, #4]
	movs	r2, #1
	lsls	r2, r2, #17
	orrs	r1, r2
	str	r1, [r0, #4]
	.loc	5 266 9 is_stmt 1       @ ../GD32E230_Firmware_Library/GD32E230_standard_peripheral/Source/gd32e230_usart.c:266:9
	b	.LBB10_12
.LBB10_6:
	.loc	5 268 9                 @ ../GD32E230_Firmware_Library/GD32E230_standard_peripheral/Source/gd32e230_usart.c:268:9
	ldr	r0, [sp, #8]
	.loc	5 268 34 is_stmt 0      @ ../GD32E230_Firmware_Library/GD32E230_standard_peripheral/Source/gd32e230_usart.c:268:34
	ldr	r1, [r0, #4]
	movs	r2, #1
	lsls	r2, r2, #17
	bics	r1, r2
	str	r1, [r0, #4]
	.loc	5 269 9 is_stmt 1       @ ../GD32E230_Firmware_Library/GD32E230_standard_peripheral/Source/gd32e230_usart.c:269:9
	b	.LBB10_12
.LBB10_7:
	.loc	5 271 9                 @ ../GD32E230_Firmware_Library/GD32E230_standard_peripheral/Source/gd32e230_usart.c:271:9
	ldr	r0, [sp, #8]
	.loc	5 271 34 is_stmt 0      @ ../GD32E230_Firmware_Library/GD32E230_standard_peripheral/Source/gd32e230_usart.c:271:34
	ldr	r1, [r0, #4]
	movs	r2, #1
	lsls	r2, r2, #16
	orrs	r1, r2
	str	r1, [r0, #4]
	.loc	5 272 9 is_stmt 1       @ ../GD32E230_Firmware_Library/GD32E230_standard_peripheral/Source/gd32e230_usart.c:272:9
	b	.LBB10_12
.LBB10_8:
	.loc	5 274 9                 @ ../GD32E230_Firmware_Library/GD32E230_standard_peripheral/Source/gd32e230_usart.c:274:9
	ldr	r0, [sp, #8]
	.loc	5 274 34 is_stmt 0      @ ../GD32E230_Firmware_Library/GD32E230_standard_peripheral/Source/gd32e230_usart.c:274:34
	ldr	r1, [r0, #4]
	movs	r2, #1
	lsls	r2, r2, #16
	bics	r1, r2
	str	r1, [r0, #4]
	.loc	5 275 9 is_stmt 1       @ ../GD32E230_Firmware_Library/GD32E230_standard_peripheral/Source/gd32e230_usart.c:275:9
	b	.LBB10_12
.LBB10_9:
	.loc	5 277 9                 @ ../GD32E230_Firmware_Library/GD32E230_standard_peripheral/Source/gd32e230_usart.c:277:9
	ldr	r0, [sp, #8]
	.loc	5 277 34 is_stmt 0      @ ../GD32E230_Firmware_Library/GD32E230_standard_peripheral/Source/gd32e230_usart.c:277:34
	ldr	r1, [r0, #4]
	movw	r2, #32768
	orrs	r1, r2
	str	r1, [r0, #4]
	.loc	5 278 9 is_stmt 1       @ ../GD32E230_Firmware_Library/GD32E230_standard_peripheral/Source/gd32e230_usart.c:278:9
	b	.LBB10_12
.LBB10_10:
	.loc	5 280 9                 @ ../GD32E230_Firmware_Library/GD32E230_standard_peripheral/Source/gd32e230_usart.c:280:9
	ldr	r0, [sp, #8]
	.loc	5 280 34 is_stmt 0      @ ../GD32E230_Firmware_Library/GD32E230_standard_peripheral/Source/gd32e230_usart.c:280:34
	ldr	r1, [r0, #4]
	movw	r2, #32768
	bics	r1, r2
	str	r1, [r0, #4]
	.loc	5 281 9 is_stmt 1       @ ../GD32E230_Firmware_Library/GD32E230_standard_peripheral/Source/gd32e230_usart.c:281:9
	b	.LBB10_12
.LBB10_11:
	.loc	5 283 9                 @ ../GD32E230_Firmware_Library/GD32E230_standard_peripheral/Source/gd32e230_usart.c:283:9
	b	.LBB10_12
.Ltmp30:
.LBB10_12:
	.loc	5 285 1                 @ ../GD32E230_Firmware_Library/GD32E230_standard_peripheral/Source/gd32e230_usart.c:285:1
	add	sp, #12
	pop	{r4, pc}
.Ltmp31:
.Lfunc_end10:
	.size	usart_invert_config, .Lfunc_end10-usart_invert_config
	.cfi_endproc
	.cantunwind
	.fnend
                                        @ -- End function
	.section	.text.usart_overrun_enable,"ax",%progbits
	.hidden	usart_overrun_enable    @ -- Begin function usart_overrun_enable
	.globl	usart_overrun_enable
	.p2align	1
	.type	usart_overrun_enable,%function
	.code	16                      @ @usart_overrun_enable
	.thumb_func
usart_overrun_enable:
.Lfunc_begin11:
	.loc	5 294 0                 @ ../GD32E230_Firmware_Library/GD32E230_standard_peripheral/Source/gd32e230_usart.c:294:0
	.fnstart
	.cfi_startproc
@ %bb.0:
	.pad	#4
	sub	sp, #4
	.cfi_def_cfa_offset 4
	str	r0, [sp]
.Ltmp32:
	.loc	5 295 5 prologue_end    @ ../GD32E230_Firmware_Library/GD32E230_standard_peripheral/Source/gd32e230_usart.c:295:5
	ldr	r0, [sp]
	.loc	5 295 30 is_stmt 0      @ ../GD32E230_Firmware_Library/GD32E230_standard_peripheral/Source/gd32e230_usart.c:295:30
	ldr	r1, [r0]
	movs	r2, #1
	bics	r1, r2
	str	r1, [r0]
	.loc	5 297 5 is_stmt 1       @ ../GD32E230_Firmware_Library/GD32E230_standard_peripheral/Source/gd32e230_usart.c:297:5
	ldr	r0, [sp]
	.loc	5 297 30 is_stmt 0      @ ../GD32E230_Firmware_Library/GD32E230_standard_peripheral/Source/gd32e230_usart.c:297:30
	ldr	r1, [r0, #8]
	movw	r2, #4096
	bics	r1, r2
	str	r1, [r0, #8]
	.loc	5 298 1 is_stmt 1       @ ../GD32E230_Firmware_Library/GD32E230_standard_peripheral/Source/gd32e230_usart.c:298:1
	add	sp, #4
	bx	lr
.Ltmp33:
.Lfunc_end11:
	.size	usart_overrun_enable, .Lfunc_end11-usart_overrun_enable
	.cfi_endproc
	.cantunwind
	.fnend
                                        @ -- End function
	.section	.text.usart_overrun_disable,"ax",%progbits
	.hidden	usart_overrun_disable   @ -- Begin function usart_overrun_disable
	.globl	usart_overrun_disable
	.p2align	1
	.type	usart_overrun_disable,%function
	.code	16                      @ @usart_overrun_disable
	.thumb_func
usart_overrun_disable:
.Lfunc_begin12:
	.loc	5 307 0                 @ ../GD32E230_Firmware_Library/GD32E230_standard_peripheral/Source/gd32e230_usart.c:307:0
	.fnstart
	.cfi_startproc
@ %bb.0:
	.pad	#4
	sub	sp, #4
	.cfi_def_cfa_offset 4
	str	r0, [sp]
.Ltmp34:
	.loc	5 308 5 prologue_end    @ ../GD32E230_Firmware_Library/GD32E230_standard_peripheral/Source/gd32e230_usart.c:308:5
	ldr	r0, [sp]
	.loc	5 308 30 is_stmt 0      @ ../GD32E230_Firmware_Library/GD32E230_standard_peripheral/Source/gd32e230_usart.c:308:30
	ldr	r1, [r0]
	movs	r2, #1
	bics	r1, r2
	str	r1, [r0]
	.loc	5 310 5 is_stmt 1       @ ../GD32E230_Firmware_Library/GD32E230_standard_peripheral/Source/gd32e230_usart.c:310:5
	ldr	r0, [sp]
	.loc	5 310 30 is_stmt 0      @ ../GD32E230_Firmware_Library/GD32E230_standard_peripheral/Source/gd32e230_usart.c:310:30
	ldr	r1, [r0, #8]
	movw	r2, #4096
	orrs	r1, r2
	str	r1, [r0, #8]
	.loc	5 311 1 is_stmt 1       @ ../GD32E230_Firmware_Library/GD32E230_standard_peripheral/Source/gd32e230_usart.c:311:1
	add	sp, #4
	bx	lr
.Ltmp35:
.Lfunc_end12:
	.size	usart_overrun_disable, .Lfunc_end12-usart_overrun_disable
	.cfi_endproc
	.cantunwind
	.fnend
                                        @ -- End function
	.section	.text.usart_oversample_config,"ax",%progbits
	.hidden	usart_oversample_config @ -- Begin function usart_oversample_config
	.globl	usart_oversample_config
	.p2align	1
	.type	usart_oversample_config,%function
	.code	16                      @ @usart_oversample_config
	.thumb_func
usart_oversample_config:
.Lfunc_begin13:
	.loc	5 324 0                 @ ../GD32E230_Firmware_Library/GD32E230_standard_peripheral/Source/gd32e230_usart.c:324:0
	.fnstart
	.cfi_startproc
@ %bb.0:
	.pad	#8
	sub	sp, #8
	.cfi_def_cfa_offset 8
	str	r0, [sp, #4]
	str	r1, [sp]
.Ltmp36:
	.loc	5 326 5 prologue_end    @ ../GD32E230_Firmware_Library/GD32E230_standard_peripheral/Source/gd32e230_usart.c:326:5
	ldr	r0, [sp, #4]
	.loc	5 326 30 is_stmt 0      @ ../GD32E230_Firmware_Library/GD32E230_standard_peripheral/Source/gd32e230_usart.c:326:30
	ldr	r1, [r0]
	movs	r2, #1
	bics	r1, r2
	str	r1, [r0]
	.loc	5 328 5 is_stmt 1       @ ../GD32E230_Firmware_Library/GD32E230_standard_peripheral/Source/gd32e230_usart.c:328:5
	ldr	r0, [sp, #4]
	.loc	5 328 30 is_stmt 0      @ ../GD32E230_Firmware_Library/GD32E230_standard_peripheral/Source/gd32e230_usart.c:328:30
	ldr	r1, [r0]
	movw	r2, #32768
	bics	r1, r2
	str	r1, [r0]
	.loc	5 329 33 is_stmt 1      @ ../GD32E230_Firmware_Library/GD32E230_standard_peripheral/Source/gd32e230_usart.c:329:33
	ldr	r0, [sp]
	.loc	5 329 5 is_stmt 0       @ ../GD32E230_Firmware_Library/GD32E230_standard_peripheral/Source/gd32e230_usart.c:329:5
	ldr	r1, [sp, #4]
	.loc	5 329 30                @ ../GD32E230_Firmware_Library/GD32E230_standard_peripheral/Source/gd32e230_usart.c:329:30
	ldr	r2, [r1]
	orrs	r2, r0
	str	r2, [r1]
	.loc	5 330 1 is_stmt 1       @ ../GD32E230_Firmware_Library/GD32E230_standard_peripheral/Source/gd32e230_usart.c:330:1
	add	sp, #8
	bx	lr
.Ltmp37:
.Lfunc_end13:
	.size	usart_oversample_config, .Lfunc_end13-usart_oversample_config
	.cfi_endproc
	.cantunwind
	.fnend
                                        @ -- End function
	.section	.text.usart_sample_bit_config,"ax",%progbits
	.hidden	usart_sample_bit_config @ -- Begin function usart_sample_bit_config
	.globl	usart_sample_bit_config
	.p2align	1
	.type	usart_sample_bit_config,%function
	.code	16                      @ @usart_sample_bit_config
	.thumb_func
usart_sample_bit_config:
.Lfunc_begin14:
	.loc	5 343 0                 @ ../GD32E230_Firmware_Library/GD32E230_standard_peripheral/Source/gd32e230_usart.c:343:0
	.fnstart
	.cfi_startproc
@ %bb.0:
	.pad	#8
	sub	sp, #8
	.cfi_def_cfa_offset 8
	str	r0, [sp, #4]
	str	r1, [sp]
.Ltmp38:
	.loc	5 345 5 prologue_end    @ ../GD32E230_Firmware_Library/GD32E230_standard_peripheral/Source/gd32e230_usart.c:345:5
	ldr	r0, [sp, #4]
	.loc	5 345 30 is_stmt 0      @ ../GD32E230_Firmware_Library/GD32E230_standard_peripheral/Source/gd32e230_usart.c:345:30
	ldr	r1, [r0]
	movs	r2, #1
	bics	r1, r2
	str	r1, [r0]
	.loc	5 347 5 is_stmt 1       @ ../GD32E230_Firmware_Library/GD32E230_standard_peripheral/Source/gd32e230_usart.c:347:5
	ldr	r0, [sp, #4]
	.loc	5 347 30 is_stmt 0      @ ../GD32E230_Firmware_Library/GD32E230_standard_peripheral/Source/gd32e230_usart.c:347:30
	ldr	r1, [r0, #8]
	movw	r2, #2048
	bics	r1, r2
	str	r1, [r0, #8]
	.loc	5 348 33 is_stmt 1      @ ../GD32E230_Firmware_Library/GD32E230_standard_peripheral/Source/gd32e230_usart.c:348:33
	ldr	r0, [sp]
	.loc	5 348 5 is_stmt 0       @ ../GD32E230_Firmware_Library/GD32E230_standard_peripheral/Source/gd32e230_usart.c:348:5
	ldr	r1, [sp, #4]
	.loc	5 348 30                @ ../GD32E230_Firmware_Library/GD32E230_standard_peripheral/Source/gd32e230_usart.c:348:30
	ldr	r2, [r1, #8]
	orrs	r2, r0
	str	r2, [r1, #8]
	.loc	5 349 1 is_stmt 1       @ ../GD32E230_Firmware_Library/GD32E230_standard_peripheral/Source/gd32e230_usart.c:349:1
	add	sp, #8
	bx	lr
.Ltmp39:
.Lfunc_end14:
	.size	usart_sample_bit_config, .Lfunc_end14-usart_sample_bit_config
	.cfi_endproc
	.cantunwind
	.fnend
                                        @ -- End function
	.section	.text.usart_receiver_timeout_enable,"ax",%progbits
	.hidden	usart_receiver_timeout_enable @ -- Begin function usart_receiver_timeout_enable
	.globl	usart_receiver_timeout_enable
	.p2align	1
	.type	usart_receiver_timeout_enable,%function
	.code	16                      @ @usart_receiver_timeout_enable
	.thumb_func
usart_receiver_timeout_enable:
.Lfunc_begin15:
	.loc	5 358 0                 @ ../GD32E230_Firmware_Library/GD32E230_standard_peripheral/Source/gd32e230_usart.c:358:0
	.fnstart
	.cfi_startproc
@ %bb.0:
	.pad	#4
	sub	sp, #4
	.cfi_def_cfa_offset 4
	str	r0, [sp]
.Ltmp40:
	.loc	5 359 5 prologue_end    @ ../GD32E230_Firmware_Library/GD32E230_standard_peripheral/Source/gd32e230_usart.c:359:5
	ldr	r0, [sp]
	.loc	5 359 30 is_stmt 0      @ ../GD32E230_Firmware_Library/GD32E230_standard_peripheral/Source/gd32e230_usart.c:359:30
	ldr	r1, [r0, #4]
	movs	r2, #1
	lsls	r2, r2, #23
	orrs	r1, r2
	str	r1, [r0, #4]
	.loc	5 360 1 is_stmt 1       @ ../GD32E230_Firmware_Library/GD32E230_standard_peripheral/Source/gd32e230_usart.c:360:1
	add	sp, #4
	bx	lr
.Ltmp41:
.Lfunc_end15:
	.size	usart_receiver_timeout_enable, .Lfunc_end15-usart_receiver_timeout_enable
	.cfi_endproc
	.cantunwind
	.fnend
                                        @ -- End function
	.section	.text.usart_receiver_timeout_disable,"ax",%progbits
	.hidden	usart_receiver_timeout_disable @ -- Begin function usart_receiver_timeout_disable
	.globl	usart_receiver_timeout_disable
	.p2align	1
	.type	usart_receiver_timeout_disable,%function
	.code	16                      @ @usart_receiver_timeout_disable
	.thumb_func
usart_receiver_timeout_disable:
.Lfunc_begin16:
	.loc	5 369 0                 @ ../GD32E230_Firmware_Library/GD32E230_standard_peripheral/Source/gd32e230_usart.c:369:0
	.fnstart
	.cfi_startproc
@ %bb.0:
	.pad	#4
	sub	sp, #4
	.cfi_def_cfa_offset 4
	str	r0, [sp]
.Ltmp42:
	.loc	5 370 5 prologue_end    @ ../GD32E230_Firmware_Library/GD32E230_standard_peripheral/Source/gd32e230_usart.c:370:5
	ldr	r0, [sp]
	.loc	5 370 30 is_stmt 0      @ ../GD32E230_Firmware_Library/GD32E230_standard_peripheral/Source/gd32e230_usart.c:370:30
	ldr	r1, [r0, #4]
	movs	r2, #1
	lsls	r2, r2, #23
	bics	r1, r2
	str	r1, [r0, #4]
	.loc	5 371 1 is_stmt 1       @ ../GD32E230_Firmware_Library/GD32E230_standard_peripheral/Source/gd32e230_usart.c:371:1
	add	sp, #4
	bx	lr
.Ltmp43:
.Lfunc_end16:
	.size	usart_receiver_timeout_disable, .Lfunc_end16-usart_receiver_timeout_disable
	.cfi_endproc
	.cantunwind
	.fnend
                                        @ -- End function
	.section	.text.usart_receiver_timeout_threshold_config,"ax",%progbits
	.hidden	usart_receiver_timeout_threshold_config @ -- Begin function usart_receiver_timeout_threshold_config
	.globl	usart_receiver_timeout_threshold_config
	.p2align	1
	.type	usart_receiver_timeout_threshold_config,%function
	.code	16                      @ @usart_receiver_timeout_threshold_config
	.thumb_func
usart_receiver_timeout_threshold_config:
.Lfunc_begin17:
	.loc	5 381 0                 @ ../GD32E230_Firmware_Library/GD32E230_standard_peripheral/Source/gd32e230_usart.c:381:0
	.fnstart
	.cfi_startproc
@ %bb.0:
	.pad	#8
	sub	sp, #8
	.cfi_def_cfa_offset 8
	str	r0, [sp, #4]
	str	r1, [sp]
.Ltmp44:
	.loc	5 382 5 prologue_end    @ ../GD32E230_Firmware_Library/GD32E230_standard_peripheral/Source/gd32e230_usart.c:382:5
	ldr	r0, [sp, #4]
	.loc	5 382 28 is_stmt 0      @ ../GD32E230_Firmware_Library/GD32E230_standard_peripheral/Source/gd32e230_usart.c:382:28
	ldr	r1, [r0, #20]
	movs	r2, #255
	lsls	r2, r2, #24
	ands	r1, r2
	str	r1, [r0, #20]
	.loc	5 383 31 is_stmt 1      @ ../GD32E230_Firmware_Library/GD32E230_standard_peripheral/Source/gd32e230_usart.c:383:31
	ldr	r0, [sp]
	.loc	5 383 5 is_stmt 0       @ ../GD32E230_Firmware_Library/GD32E230_standard_peripheral/Source/gd32e230_usart.c:383:5
	ldr	r1, [sp, #4]
	.loc	5 383 28                @ ../GD32E230_Firmware_Library/GD32E230_standard_peripheral/Source/gd32e230_usart.c:383:28
	ldr	r2, [r1, #20]
	orrs	r2, r0
	str	r2, [r1, #20]
	.loc	5 384 1 is_stmt 1       @ ../GD32E230_Firmware_Library/GD32E230_standard_peripheral/Source/gd32e230_usart.c:384:1
	add	sp, #8
	bx	lr
.Ltmp45:
.Lfunc_end17:
	.size	usart_receiver_timeout_threshold_config, .Lfunc_end17-usart_receiver_timeout_threshold_config
	.cfi_endproc
	.cantunwind
	.fnend
                                        @ -- End function
	.section	.text.usart_data_transmit,"ax",%progbits
	.hidden	usart_data_transmit     @ -- Begin function usart_data_transmit
	.globl	usart_data_transmit
	.p2align	2
	.type	usart_data_transmit,%function
	.code	16                      @ @usart_data_transmit
	.thumb_func
usart_data_transmit:
.Lfunc_begin18:
	.loc	5 394 0                 @ ../GD32E230_Firmware_Library/GD32E230_standard_peripheral/Source/gd32e230_usart.c:394:0
	.fnstart
	.cfi_startproc
@ %bb.0:
	.pad	#8
	sub	sp, #8
	.cfi_def_cfa_offset 8
	str	r0, [sp, #4]
	str	r1, [sp]
.Ltmp46:
	.loc	5 395 54 prologue_end   @ ../GD32E230_Firmware_Library/GD32E230_standard_peripheral/Source/gd32e230_usart.c:395:54
	ldr	r0, [sp]
	ldr	r1, __arm_cp.18_0
	.loc	5 395 52 is_stmt 0      @ ../GD32E230_Firmware_Library/GD32E230_standard_peripheral/Source/gd32e230_usart.c:395:52
	ands	r0, r1
	.loc	5 395 5                 @ ../GD32E230_Firmware_Library/GD32E230_standard_peripheral/Source/gd32e230_usart.c:395:5
	ldr	r1, [sp, #4]
	.loc	5 395 31                @ ../GD32E230_Firmware_Library/GD32E230_standard_peripheral/Source/gd32e230_usart.c:395:31
	str	r0, [r1, #40]
	.loc	5 396 1 is_stmt 1       @ ../GD32E230_Firmware_Library/GD32E230_standard_peripheral/Source/gd32e230_usart.c:396:1
	add	sp, #8
	bx	lr
.Ltmp47:
	.p2align	2
@ %bb.1:
	.loc	5 0 1 is_stmt 0         @ ../GD32E230_Firmware_Library/GD32E230_standard_peripheral/Source/gd32e230_usart.c:0:1
__arm_cp.18_0:
	.long	511                     @ 0x1ff
.Lcpi_end7:
	.size	__arm_cp.18_0, .Lcpi_end7-__arm_cp.18_0
.Lfunc_end18:
	.size	usart_data_transmit, .Lfunc_end18-usart_data_transmit
	.cfi_endproc
	.cantunwind
	.fnend
                                        @ -- End function
	.section	.text.usart_data_receive,"ax",%progbits
	.hidden	usart_data_receive      @ -- Begin function usart_data_receive
	.globl	usart_data_receive
	.p2align	2
	.type	usart_data_receive,%function
	.code	16                      @ @usart_data_receive
	.thumb_func
usart_data_receive:
.Lfunc_begin19:
	.loc	5 405 0 is_stmt 1       @ ../GD32E230_Firmware_Library/GD32E230_standard_peripheral/Source/gd32e230_usart.c:405:0
	.fnstart
	.cfi_startproc
@ %bb.0:
	.pad	#4
	sub	sp, #4
	.cfi_def_cfa_offset 4
	str	r0, [sp]
.Ltmp48:
	.loc	5 406 23 prologue_end   @ ../GD32E230_Firmware_Library/GD32E230_standard_peripheral/Source/gd32e230_usart.c:406:23
	ldr	r0, [sp]
	ldr	r0, [r0, #36]
	ldr	r1, __arm_cp.19_0
	ands	r0, r1
	.loc	5 406 5 is_stmt 0       @ ../GD32E230_Firmware_Library/GD32E230_standard_peripheral/Source/gd32e230_usart.c:406:5
	add	sp, #4
	bx	lr
.Ltmp49:
	.p2align	2
@ %bb.1:
	.loc	5 0 5                   @ ../GD32E230_Firmware_Library/GD32E230_standard_peripheral/Source/gd32e230_usart.c:0:5
__arm_cp.19_0:
	.long	511                     @ 0x1ff
.Lcpi_end8:
	.size	__arm_cp.19_0, .Lcpi_end8-__arm_cp.19_0
.Lfunc_end19:
	.size	usart_data_receive, .Lfunc_end19-usart_data_receive
	.cfi_endproc
	.cantunwind
	.fnend
                                        @ -- End function
	.section	.text.usart_autobaud_detection_enable,"ax",%progbits
	.hidden	usart_autobaud_detection_enable @ -- Begin function usart_autobaud_detection_enable
	.globl	usart_autobaud_detection_enable
	.p2align	1
	.type	usart_autobaud_detection_enable,%function
	.code	16                      @ @usart_autobaud_detection_enable
	.thumb_func
usart_autobaud_detection_enable:
.Lfunc_begin20:
	.loc	5 416 0 is_stmt 1       @ ../GD32E230_Firmware_Library/GD32E230_standard_peripheral/Source/gd32e230_usart.c:416:0
	.fnstart
	.cfi_startproc
@ %bb.0:
	.pad	#4
	sub	sp, #4
	.cfi_def_cfa_offset 4
	str	r0, [sp]
.Ltmp50:
	.loc	5 417 5 prologue_end    @ ../GD32E230_Firmware_Library/GD32E230_standard_peripheral/Source/gd32e230_usart.c:417:5
	ldr	r0, [sp]
	.loc	5 417 30 is_stmt 0      @ ../GD32E230_Firmware_Library/GD32E230_standard_peripheral/Source/gd32e230_usart.c:417:30
	ldr	r1, [r0, #4]
	movs	r2, #1
	lsls	r2, r2, #20
	orrs	r1, r2
	str	r1, [r0, #4]
	.loc	5 418 1 is_stmt 1       @ ../GD32E230_Firmware_Library/GD32E230_standard_peripheral/Source/gd32e230_usart.c:418:1
	add	sp, #4
	bx	lr
.Ltmp51:
.Lfunc_end20:
	.size	usart_autobaud_detection_enable, .Lfunc_end20-usart_autobaud_detection_enable
	.cfi_endproc
	.cantunwind
	.fnend
                                        @ -- End function
	.section	.text.usart_autobaud_detection_disable,"ax",%progbits
	.hidden	usart_autobaud_detection_disable @ -- Begin function usart_autobaud_detection_disable
	.globl	usart_autobaud_detection_disable
	.p2align	1
	.type	usart_autobaud_detection_disable,%function
	.code	16                      @ @usart_autobaud_detection_disable
	.thumb_func
usart_autobaud_detection_disable:
.Lfunc_begin21:
	.loc	5 427 0                 @ ../GD32E230_Firmware_Library/GD32E230_standard_peripheral/Source/gd32e230_usart.c:427:0
	.fnstart
	.cfi_startproc
@ %bb.0:
	.pad	#4
	sub	sp, #4
	.cfi_def_cfa_offset 4
	str	r0, [sp]
.Ltmp52:
	.loc	5 428 5 prologue_end    @ ../GD32E230_Firmware_Library/GD32E230_standard_peripheral/Source/gd32e230_usart.c:428:5
	ldr	r0, [sp]
	.loc	5 428 30 is_stmt 0      @ ../GD32E230_Firmware_Library/GD32E230_standard_peripheral/Source/gd32e230_usart.c:428:30
	ldr	r1, [r0, #4]
	movs	r2, #1
	lsls	r2, r2, #20
	bics	r1, r2
	str	r1, [r0, #4]
	.loc	5 429 1 is_stmt 1       @ ../GD32E230_Firmware_Library/GD32E230_standard_peripheral/Source/gd32e230_usart.c:429:1
	add	sp, #4
	bx	lr
.Ltmp53:
.Lfunc_end21:
	.size	usart_autobaud_detection_disable, .Lfunc_end21-usart_autobaud_detection_disable
	.cfi_endproc
	.cantunwind
	.fnend
                                        @ -- End function
	.section	.text.usart_autobaud_detection_mode_config,"ax",%progbits
	.hidden	usart_autobaud_detection_mode_config @ -- Begin function usart_autobaud_detection_mode_config
	.globl	usart_autobaud_detection_mode_config
	.p2align	1
	.type	usart_autobaud_detection_mode_config,%function
	.code	16                      @ @usart_autobaud_detection_mode_config
	.thumb_func
usart_autobaud_detection_mode_config:
.Lfunc_begin22:
	.loc	5 442 0                 @ ../GD32E230_Firmware_Library/GD32E230_standard_peripheral/Source/gd32e230_usart.c:442:0
	.fnstart
	.cfi_startproc
@ %bb.0:
	.pad	#8
	sub	sp, #8
	.cfi_def_cfa_offset 8
	str	r0, [sp, #4]
	str	r1, [sp]
.Ltmp54:
	.loc	5 444 5 prologue_end    @ ../GD32E230_Firmware_Library/GD32E230_standard_peripheral/Source/gd32e230_usart.c:444:5
	ldr	r0, [sp, #4]
	.loc	5 444 30 is_stmt 0      @ ../GD32E230_Firmware_Library/GD32E230_standard_peripheral/Source/gd32e230_usart.c:444:30
	ldr	r1, [r0, #4]
	movs	r2, #3
	lsls	r2, r2, #21
	bics	r1, r2
	str	r1, [r0, #4]
	.loc	5 445 33 is_stmt 1      @ ../GD32E230_Firmware_Library/GD32E230_standard_peripheral/Source/gd32e230_usart.c:445:33
	ldr	r0, [sp]
	.loc	5 445 5 is_stmt 0       @ ../GD32E230_Firmware_Library/GD32E230_standard_peripheral/Source/gd32e230_usart.c:445:5
	ldr	r1, [sp, #4]
	.loc	5 445 30                @ ../GD32E230_Firmware_Library/GD32E230_standard_peripheral/Source/gd32e230_usart.c:445:30
	ldr	r2, [r1, #4]
	orrs	r2, r0
	str	r2, [r1, #4]
	.loc	5 446 1 is_stmt 1       @ ../GD32E230_Firmware_Library/GD32E230_standard_peripheral/Source/gd32e230_usart.c:446:1
	add	sp, #8
	bx	lr
.Ltmp55:
.Lfunc_end22:
	.size	usart_autobaud_detection_mode_config, .Lfunc_end22-usart_autobaud_detection_mode_config
	.cfi_endproc
	.cantunwind
	.fnend
                                        @ -- End function
	.section	.text.usart_address_config,"ax",%progbits
	.hidden	usart_address_config    @ -- Begin function usart_address_config
	.globl	usart_address_config
	.p2align	1
	.type	usart_address_config,%function
	.code	16                      @ @usart_address_config
	.thumb_func
usart_address_config:
.Lfunc_begin23:
	.loc	5 456 0                 @ ../GD32E230_Firmware_Library/GD32E230_standard_peripheral/Source/gd32e230_usart.c:456:0
	.fnstart
	.cfi_startproc
@ %bb.0:
	.pad	#8
	sub	sp, #8
	.cfi_def_cfa_offset 8
	mov	r2, r1
	str	r0, [sp, #4]
	mov	r0, sp
	strb	r1, [r0]
.Ltmp56:
	.loc	5 458 5 prologue_end    @ ../GD32E230_Firmware_Library/GD32E230_standard_peripheral/Source/gd32e230_usart.c:458:5
	ldr	r0, [sp, #4]
	.loc	5 458 30 is_stmt 0      @ ../GD32E230_Firmware_Library/GD32E230_standard_peripheral/Source/gd32e230_usart.c:458:30
	ldr	r1, [r0]
	movs	r3, #1
	bics	r1, r3
	str	r1, [r0]
	.loc	5 460 5 is_stmt 1       @ ../GD32E230_Firmware_Library/GD32E230_standard_peripheral/Source/gd32e230_usart.c:460:5
	ldr	r0, [sp, #4]
	.loc	5 460 30 is_stmt 0      @ ../GD32E230_Firmware_Library/GD32E230_standard_peripheral/Source/gd32e230_usart.c:460:30
	ldr	r1, [r0, #4]
	movs	r3, #255
	lsls	r3, r3, #24
	bics	r1, r3
	str	r1, [r0, #4]
	.loc	5 461 54 is_stmt 1      @ ../GD32E230_Firmware_Library/GD32E230_standard_peripheral/Source/gd32e230_usart.c:461:54
	ldr	r0, [sp]
	.loc	5 461 70 is_stmt 0      @ ../GD32E230_Firmware_Library/GD32E230_standard_peripheral/Source/gd32e230_usart.c:461:70
	lsls	r0, r0, #24
	.loc	5 461 5                 @ ../GD32E230_Firmware_Library/GD32E230_standard_peripheral/Source/gd32e230_usart.c:461:5
	ldr	r1, [sp, #4]
	.loc	5 461 30                @ ../GD32E230_Firmware_Library/GD32E230_standard_peripheral/Source/gd32e230_usart.c:461:30
	ldr	r3, [r1, #4]
	orrs	r3, r0
	str	r3, [r1, #4]
	.loc	5 462 1 is_stmt 1       @ ../GD32E230_Firmware_Library/GD32E230_standard_peripheral/Source/gd32e230_usart.c:462:1
	add	sp, #8
	bx	lr
.Ltmp57:
.Lfunc_end23:
	.size	usart_address_config, .Lfunc_end23-usart_address_config
	.cfi_endproc
	.cantunwind
	.fnend
                                        @ -- End function
	.section	.text.usart_address_detection_mode_config,"ax",%progbits
	.hidden	usart_address_detection_mode_config @ -- Begin function usart_address_detection_mode_config
	.globl	usart_address_detection_mode_config
	.p2align	1
	.type	usart_address_detection_mode_config,%function
	.code	16                      @ @usart_address_detection_mode_config
	.thumb_func
usart_address_detection_mode_config:
.Lfunc_begin24:
	.loc	5 475 0                 @ ../GD32E230_Firmware_Library/GD32E230_standard_peripheral/Source/gd32e230_usart.c:475:0
	.fnstart
	.cfi_startproc
@ %bb.0:
	.pad	#8
	sub	sp, #8
	.cfi_def_cfa_offset 8
	str	r0, [sp, #4]
	str	r1, [sp]
.Ltmp58:
	.loc	5 477 5 prologue_end    @ ../GD32E230_Firmware_Library/GD32E230_standard_peripheral/Source/gd32e230_usart.c:477:5
	ldr	r0, [sp, #4]
	.loc	5 477 30 is_stmt 0      @ ../GD32E230_Firmware_Library/GD32E230_standard_peripheral/Source/gd32e230_usart.c:477:30
	ldr	r1, [r0]
	movs	r2, #1
	bics	r1, r2
	str	r1, [r0]
	.loc	5 479 5 is_stmt 1       @ ../GD32E230_Firmware_Library/GD32E230_standard_peripheral/Source/gd32e230_usart.c:479:5
	ldr	r0, [sp, #4]
	.loc	5 479 30 is_stmt 0      @ ../GD32E230_Firmware_Library/GD32E230_standard_peripheral/Source/gd32e230_usart.c:479:30
	ldr	r1, [r0, #4]
	movs	r2, #16
	bics	r1, r2
	str	r1, [r0, #4]
	.loc	5 480 52 is_stmt 1      @ ../GD32E230_Firmware_Library/GD32E230_standard_peripheral/Source/gd32e230_usart.c:480:52
	ldr	r0, [sp]
	.loc	5 480 49 is_stmt 0      @ ../GD32E230_Firmware_Library/GD32E230_standard_peripheral/Source/gd32e230_usart.c:480:49
	ands	r0, r2
	.loc	5 480 5                 @ ../GD32E230_Firmware_Library/GD32E230_standard_peripheral/Source/gd32e230_usart.c:480:5
	ldr	r1, [sp, #4]
	.loc	5 480 30                @ ../GD32E230_Firmware_Library/GD32E230_standard_peripheral/Source/gd32e230_usart.c:480:30
	ldr	r2, [r1, #4]
	orrs	r2, r0
	str	r2, [r1, #4]
	.loc	5 481 1 is_stmt 1       @ ../GD32E230_Firmware_Library/GD32E230_standard_peripheral/Source/gd32e230_usart.c:481:1
	add	sp, #8
	bx	lr
.Ltmp59:
.Lfunc_end24:
	.size	usart_address_detection_mode_config, .Lfunc_end24-usart_address_detection_mode_config
	.cfi_endproc
	.cantunwind
	.fnend
                                        @ -- End function
	.section	.text.usart_mute_mode_enable,"ax",%progbits
	.hidden	usart_mute_mode_enable  @ -- Begin function usart_mute_mode_enable
	.globl	usart_mute_mode_enable
	.p2align	1
	.type	usart_mute_mode_enable,%function
	.code	16                      @ @usart_mute_mode_enable
	.thumb_func
usart_mute_mode_enable:
.Lfunc_begin25:
	.loc	5 490 0                 @ ../GD32E230_Firmware_Library/GD32E230_standard_peripheral/Source/gd32e230_usart.c:490:0
	.fnstart
	.cfi_startproc
@ %bb.0:
	.pad	#4
	sub	sp, #4
	.cfi_def_cfa_offset 4
	str	r0, [sp]
.Ltmp60:
	.loc	5 491 5 prologue_end    @ ../GD32E230_Firmware_Library/GD32E230_standard_peripheral/Source/gd32e230_usart.c:491:5
	ldr	r0, [sp]
	.loc	5 491 30 is_stmt 0      @ ../GD32E230_Firmware_Library/GD32E230_standard_peripheral/Source/gd32e230_usart.c:491:30
	ldr	r1, [r0]
	movw	r2, #8192
	orrs	r1, r2
	str	r1, [r0]
	.loc	5 492 1 is_stmt 1       @ ../GD32E230_Firmware_Library/GD32E230_standard_peripheral/Source/gd32e230_usart.c:492:1
	add	sp, #4
	bx	lr
.Ltmp61:
.Lfunc_end25:
	.size	usart_mute_mode_enable, .Lfunc_end25-usart_mute_mode_enable
	.cfi_endproc
	.cantunwind
	.fnend
                                        @ -- End function
	.section	.text.usart_mute_mode_disable,"ax",%progbits
	.hidden	usart_mute_mode_disable @ -- Begin function usart_mute_mode_disable
	.globl	usart_mute_mode_disable
	.p2align	1
	.type	usart_mute_mode_disable,%function
	.code	16                      @ @usart_mute_mode_disable
	.thumb_func
usart_mute_mode_disable:
.Lfunc_begin26:
	.loc	5 501 0                 @ ../GD32E230_Firmware_Library/GD32E230_standard_peripheral/Source/gd32e230_usart.c:501:0
	.fnstart
	.cfi_startproc
@ %bb.0:
	.pad	#4
	sub	sp, #4
	.cfi_def_cfa_offset 4
	str	r0, [sp]
.Ltmp62:
	.loc	5 502 5 prologue_end    @ ../GD32E230_Firmware_Library/GD32E230_standard_peripheral/Source/gd32e230_usart.c:502:5
	ldr	r0, [sp]
	.loc	5 502 30 is_stmt 0      @ ../GD32E230_Firmware_Library/GD32E230_standard_peripheral/Source/gd32e230_usart.c:502:30
	ldr	r1, [r0]
	movw	r2, #8192
	bics	r1, r2
	str	r1, [r0]
	.loc	5 503 1 is_stmt 1       @ ../GD32E230_Firmware_Library/GD32E230_standard_peripheral/Source/gd32e230_usart.c:503:1
	add	sp, #4
	bx	lr
.Ltmp63:
.Lfunc_end26:
	.size	usart_mute_mode_disable, .Lfunc_end26-usart_mute_mode_disable
	.cfi_endproc
	.cantunwind
	.fnend
                                        @ -- End function
	.section	.text.usart_mute_mode_wakeup_config,"ax",%progbits
	.hidden	usart_mute_mode_wakeup_config @ -- Begin function usart_mute_mode_wakeup_config
	.globl	usart_mute_mode_wakeup_config
	.p2align	1
	.type	usart_mute_mode_wakeup_config,%function
	.code	16                      @ @usart_mute_mode_wakeup_config
	.thumb_func
usart_mute_mode_wakeup_config:
.Lfunc_begin27:
	.loc	5 516 0                 @ ../GD32E230_Firmware_Library/GD32E230_standard_peripheral/Source/gd32e230_usart.c:516:0
	.fnstart
	.cfi_startproc
@ %bb.0:
	.pad	#8
	sub	sp, #8
	.cfi_def_cfa_offset 8
	str	r0, [sp, #4]
	str	r1, [sp]
.Ltmp64:
	.loc	5 518 5 prologue_end    @ ../GD32E230_Firmware_Library/GD32E230_standard_peripheral/Source/gd32e230_usart.c:518:5
	ldr	r0, [sp, #4]
	.loc	5 518 30 is_stmt 0      @ ../GD32E230_Firmware_Library/GD32E230_standard_peripheral/Source/gd32e230_usart.c:518:30
	ldr	r1, [r0]
	movs	r2, #1
	bics	r1, r2
	str	r1, [r0]
	.loc	5 520 5 is_stmt 1       @ ../GD32E230_Firmware_Library/GD32E230_standard_peripheral/Source/gd32e230_usart.c:520:5
	ldr	r0, [sp, #4]
	.loc	5 520 30 is_stmt 0      @ ../GD32E230_Firmware_Library/GD32E230_standard_peripheral/Source/gd32e230_usart.c:520:30
	ldr	r1, [r0]
	movw	r2, #2048
	bics	r1, r2
	str	r1, [r0]
	.loc	5 521 33 is_stmt 1      @ ../GD32E230_Firmware_Library/GD32E230_standard_peripheral/Source/gd32e230_usart.c:521:33
	ldr	r0, [sp]
	.loc	5 521 5 is_stmt 0       @ ../GD32E230_Firmware_Library/GD32E230_standard_peripheral/Source/gd32e230_usart.c:521:5
	ldr	r1, [sp, #4]
	.loc	5 521 30                @ ../GD32E230_Firmware_Library/GD32E230_standard_peripheral/Source/gd32e230_usart.c:521:30
	ldr	r2, [r1]
	orrs	r2, r0
	str	r2, [r1]
	.loc	5 522 1 is_stmt 1       @ ../GD32E230_Firmware_Library/GD32E230_standard_peripheral/Source/gd32e230_usart.c:522:1
	add	sp, #8
	bx	lr
.Ltmp65:
.Lfunc_end27:
	.size	usart_mute_mode_wakeup_config, .Lfunc_end27-usart_mute_mode_wakeup_config
	.cfi_endproc
	.cantunwind
	.fnend
                                        @ -- End function
	.section	.text.usart_lin_mode_enable,"ax",%progbits
	.hidden	usart_lin_mode_enable   @ -- Begin function usart_lin_mode_enable
	.globl	usart_lin_mode_enable
	.p2align	1
	.type	usart_lin_mode_enable,%function
	.code	16                      @ @usart_lin_mode_enable
	.thumb_func
usart_lin_mode_enable:
.Lfunc_begin28:
	.loc	5 531 0                 @ ../GD32E230_Firmware_Library/GD32E230_standard_peripheral/Source/gd32e230_usart.c:531:0
	.fnstart
	.cfi_startproc
@ %bb.0:
	.pad	#4
	sub	sp, #4
	.cfi_def_cfa_offset 4
	str	r0, [sp]
.Ltmp66:
	.loc	5 533 5 prologue_end    @ ../GD32E230_Firmware_Library/GD32E230_standard_peripheral/Source/gd32e230_usart.c:533:5
	ldr	r0, [sp]
	.loc	5 533 30 is_stmt 0      @ ../GD32E230_Firmware_Library/GD32E230_standard_peripheral/Source/gd32e230_usart.c:533:30
	ldr	r1, [r0]
	movs	r2, #1
	bics	r1, r2
	str	r1, [r0]
	.loc	5 535 5 is_stmt 1       @ ../GD32E230_Firmware_Library/GD32E230_standard_peripheral/Source/gd32e230_usart.c:535:5
	ldr	r0, [sp]
	.loc	5 535 30 is_stmt 0      @ ../GD32E230_Firmware_Library/GD32E230_standard_peripheral/Source/gd32e230_usart.c:535:30
	ldr	r1, [r0, #4]
	movw	r2, #16384
	orrs	r1, r2
	str	r1, [r0, #4]
	.loc	5 536 1 is_stmt 1       @ ../GD32E230_Firmware_Library/GD32E230_standard_peripheral/Source/gd32e230_usart.c:536:1
	add	sp, #4
	bx	lr
.Ltmp67:
.Lfunc_end28:
	.size	usart_lin_mode_enable, .Lfunc_end28-usart_lin_mode_enable
	.cfi_endproc
	.cantunwind
	.fnend
                                        @ -- End function
	.section	.text.usart_lin_mode_disable,"ax",%progbits
	.hidden	usart_lin_mode_disable  @ -- Begin function usart_lin_mode_disable
	.globl	usart_lin_mode_disable
	.p2align	1
	.type	usart_lin_mode_disable,%function
	.code	16                      @ @usart_lin_mode_disable
	.thumb_func
usart_lin_mode_disable:
.Lfunc_begin29:
	.loc	5 545 0                 @ ../GD32E230_Firmware_Library/GD32E230_standard_peripheral/Source/gd32e230_usart.c:545:0
	.fnstart
	.cfi_startproc
@ %bb.0:
	.pad	#4
	sub	sp, #4
	.cfi_def_cfa_offset 4
	str	r0, [sp]
.Ltmp68:
	.loc	5 547 5 prologue_end    @ ../GD32E230_Firmware_Library/GD32E230_standard_peripheral/Source/gd32e230_usart.c:547:5
	ldr	r0, [sp]
	.loc	5 547 30 is_stmt 0      @ ../GD32E230_Firmware_Library/GD32E230_standard_peripheral/Source/gd32e230_usart.c:547:30
	ldr	r1, [r0]
	movs	r2, #1
	bics	r1, r2
	str	r1, [r0]
	.loc	5 549 5 is_stmt 1       @ ../GD32E230_Firmware_Library/GD32E230_standard_peripheral/Source/gd32e230_usart.c:549:5
	ldr	r0, [sp]
	.loc	5 549 30 is_stmt 0      @ ../GD32E230_Firmware_Library/GD32E230_standard_peripheral/Source/gd32e230_usart.c:549:30
	ldr	r1, [r0, #4]
	movw	r2, #16384
	bics	r1, r2
	str	r1, [r0, #4]
	.loc	5 550 1 is_stmt 1       @ ../GD32E230_Firmware_Library/GD32E230_standard_peripheral/Source/gd32e230_usart.c:550:1
	add	sp, #4
	bx	lr
.Ltmp69:
.Lfunc_end29:
	.size	usart_lin_mode_disable, .Lfunc_end29-usart_lin_mode_disable
	.cfi_endproc
	.cantunwind
	.fnend
                                        @ -- End function
	.section	.text.usart_lin_break_detection_length_config,"ax",%progbits
	.hidden	usart_lin_break_detection_length_config @ -- Begin function usart_lin_break_detection_length_config
	.globl	usart_lin_break_detection_length_config
	.p2align	1
	.type	usart_lin_break_detection_length_config,%function
	.code	16                      @ @usart_lin_break_detection_length_config
	.thumb_func
usart_lin_break_detection_length_config:
.Lfunc_begin30:
	.loc	5 563 0                 @ ../GD32E230_Firmware_Library/GD32E230_standard_peripheral/Source/gd32e230_usart.c:563:0
	.fnstart
	.cfi_startproc
@ %bb.0:
	.pad	#8
	sub	sp, #8
	.cfi_def_cfa_offset 8
	str	r0, [sp, #4]
	str	r1, [sp]
.Ltmp70:
	.loc	5 565 5 prologue_end    @ ../GD32E230_Firmware_Library/GD32E230_standard_peripheral/Source/gd32e230_usart.c:565:5
	ldr	r0, [sp, #4]
	.loc	5 565 30 is_stmt 0      @ ../GD32E230_Firmware_Library/GD32E230_standard_peripheral/Source/gd32e230_usart.c:565:30
	ldr	r1, [r0]
	movs	r2, #1
	bics	r1, r2
	str	r1, [r0]
	.loc	5 566 5 is_stmt 1       @ ../GD32E230_Firmware_Library/GD32E230_standard_peripheral/Source/gd32e230_usart.c:566:5
	ldr	r0, [sp, #4]
	.loc	5 566 30 is_stmt 0      @ ../GD32E230_Firmware_Library/GD32E230_standard_peripheral/Source/gd32e230_usart.c:566:30
	ldr	r1, [r0, #4]
	movs	r2, #32
	bics	r1, r2
	str	r1, [r0, #4]
	.loc	5 567 53 is_stmt 1      @ ../GD32E230_Firmware_Library/GD32E230_standard_peripheral/Source/gd32e230_usart.c:567:53
	ldr	r0, [sp]
	.loc	5 567 50 is_stmt 0      @ ../GD32E230_Firmware_Library/GD32E230_standard_peripheral/Source/gd32e230_usart.c:567:50
	ands	r0, r2
	.loc	5 567 5                 @ ../GD32E230_Firmware_Library/GD32E230_standard_peripheral/Source/gd32e230_usart.c:567:5
	ldr	r1, [sp, #4]
	.loc	5 567 30                @ ../GD32E230_Firmware_Library/GD32E230_standard_peripheral/Source/gd32e230_usart.c:567:30
	ldr	r2, [r1, #4]
	orrs	r2, r0
	str	r2, [r1, #4]
	.loc	5 568 1 is_stmt 1       @ ../GD32E230_Firmware_Library/GD32E230_standard_peripheral/Source/gd32e230_usart.c:568:1
	add	sp, #8
	bx	lr
.Ltmp71:
.Lfunc_end30:
	.size	usart_lin_break_detection_length_config, .Lfunc_end30-usart_lin_break_detection_length_config
	.cfi_endproc
	.cantunwind
	.fnend
                                        @ -- End function
	.section	.text.usart_halfduplex_enable,"ax",%progbits
	.hidden	usart_halfduplex_enable @ -- Begin function usart_halfduplex_enable
	.globl	usart_halfduplex_enable
	.p2align	1
	.type	usart_halfduplex_enable,%function
	.code	16                      @ @usart_halfduplex_enable
	.thumb_func
usart_halfduplex_enable:
.Lfunc_begin31:
	.loc	5 577 0                 @ ../GD32E230_Firmware_Library/GD32E230_standard_peripheral/Source/gd32e230_usart.c:577:0
	.fnstart
	.cfi_startproc
@ %bb.0:
	.pad	#4
	sub	sp, #4
	.cfi_def_cfa_offset 4
	str	r0, [sp]
.Ltmp72:
	.loc	5 579 5 prologue_end    @ ../GD32E230_Firmware_Library/GD32E230_standard_peripheral/Source/gd32e230_usart.c:579:5
	ldr	r0, [sp]
	.loc	5 579 30 is_stmt 0      @ ../GD32E230_Firmware_Library/GD32E230_standard_peripheral/Source/gd32e230_usart.c:579:30
	ldr	r1, [r0]
	movs	r2, #1
	bics	r1, r2
	str	r1, [r0]
	.loc	5 581 5 is_stmt 1       @ ../GD32E230_Firmware_Library/GD32E230_standard_peripheral/Source/gd32e230_usart.c:581:5
	ldr	r0, [sp]
	.loc	5 581 30 is_stmt 0      @ ../GD32E230_Firmware_Library/GD32E230_standard_peripheral/Source/gd32e230_usart.c:581:30
	ldr	r1, [r0, #8]
	movs	r2, #8
	orrs	r1, r2
	str	r1, [r0, #8]
	.loc	5 582 1 is_stmt 1       @ ../GD32E230_Firmware_Library/GD32E230_standard_peripheral/Source/gd32e230_usart.c:582:1
	add	sp, #4
	bx	lr
.Ltmp73:
.Lfunc_end31:
	.size	usart_halfduplex_enable, .Lfunc_end31-usart_halfduplex_enable
	.cfi_endproc
	.cantunwind
	.fnend
                                        @ -- End function
	.section	.text.usart_halfduplex_disable,"ax",%progbits
	.hidden	usart_halfduplex_disable @ -- Begin function usart_halfduplex_disable
	.globl	usart_halfduplex_disable
	.p2align	1
	.type	usart_halfduplex_disable,%function
	.code	16                      @ @usart_halfduplex_disable
	.thumb_func
usart_halfduplex_disable:
.Lfunc_begin32:
	.loc	5 591 0                 @ ../GD32E230_Firmware_Library/GD32E230_standard_peripheral/Source/gd32e230_usart.c:591:0
	.fnstart
	.cfi_startproc
@ %bb.0:
	.pad	#4
	sub	sp, #4
	.cfi_def_cfa_offset 4
	str	r0, [sp]
.Ltmp74:
	.loc	5 593 5 prologue_end    @ ../GD32E230_Firmware_Library/GD32E230_standard_peripheral/Source/gd32e230_usart.c:593:5
	ldr	r0, [sp]
	.loc	5 593 30 is_stmt 0      @ ../GD32E230_Firmware_Library/GD32E230_standard_peripheral/Source/gd32e230_usart.c:593:30
	ldr	r1, [r0]
	movs	r2, #1
	bics	r1, r2
	str	r1, [r0]
	.loc	5 595 5 is_stmt 1       @ ../GD32E230_Firmware_Library/GD32E230_standard_peripheral/Source/gd32e230_usart.c:595:5
	ldr	r0, [sp]
	.loc	5 595 30 is_stmt 0      @ ../GD32E230_Firmware_Library/GD32E230_standard_peripheral/Source/gd32e230_usart.c:595:30
	ldr	r1, [r0, #8]
	movs	r2, #8
	bics	r1, r2
	str	r1, [r0, #8]
	.loc	5 596 1 is_stmt 1       @ ../GD32E230_Firmware_Library/GD32E230_standard_peripheral/Source/gd32e230_usart.c:596:1
	add	sp, #4
	bx	lr
.Ltmp75:
.Lfunc_end32:
	.size	usart_halfduplex_disable, .Lfunc_end32-usart_halfduplex_disable
	.cfi_endproc
	.cantunwind
	.fnend
                                        @ -- End function
	.section	.text.usart_clock_enable,"ax",%progbits
	.hidden	usart_clock_enable      @ -- Begin function usart_clock_enable
	.globl	usart_clock_enable
	.p2align	1
	.type	usart_clock_enable,%function
	.code	16                      @ @usart_clock_enable
	.thumb_func
usart_clock_enable:
.Lfunc_begin33:
	.loc	5 605 0                 @ ../GD32E230_Firmware_Library/GD32E230_standard_peripheral/Source/gd32e230_usart.c:605:0
	.fnstart
	.cfi_startproc
@ %bb.0:
	.pad	#4
	sub	sp, #4
	.cfi_def_cfa_offset 4
	str	r0, [sp]
.Ltmp76:
	.loc	5 607 5 prologue_end    @ ../GD32E230_Firmware_Library/GD32E230_standard_peripheral/Source/gd32e230_usart.c:607:5
	ldr	r0, [sp]
	.loc	5 607 30 is_stmt 0      @ ../GD32E230_Firmware_Library/GD32E230_standard_peripheral/Source/gd32e230_usart.c:607:30
	ldr	r1, [r0]
	movs	r2, #1
	bics	r1, r2
	str	r1, [r0]
	.loc	5 609 5 is_stmt 1       @ ../GD32E230_Firmware_Library/GD32E230_standard_peripheral/Source/gd32e230_usart.c:609:5
	ldr	r0, [sp]
	.loc	5 609 30 is_stmt 0      @ ../GD32E230_Firmware_Library/GD32E230_standard_peripheral/Source/gd32e230_usart.c:609:30
	ldr	r1, [r0, #4]
	movw	r2, #2048
	orrs	r1, r2
	str	r1, [r0, #4]
	.loc	5 610 1 is_stmt 1       @ ../GD32E230_Firmware_Library/GD32E230_standard_peripheral/Source/gd32e230_usart.c:610:1
	add	sp, #4
	bx	lr
.Ltmp77:
.Lfunc_end33:
	.size	usart_clock_enable, .Lfunc_end33-usart_clock_enable
	.cfi_endproc
	.cantunwind
	.fnend
                                        @ -- End function
	.section	.text.usart_clock_disable,"ax",%progbits
	.hidden	usart_clock_disable     @ -- Begin function usart_clock_disable
	.globl	usart_clock_disable
	.p2align	1
	.type	usart_clock_disable,%function
	.code	16                      @ @usart_clock_disable
	.thumb_func
usart_clock_disable:
.Lfunc_begin34:
	.loc	5 619 0                 @ ../GD32E230_Firmware_Library/GD32E230_standard_peripheral/Source/gd32e230_usart.c:619:0
	.fnstart
	.cfi_startproc
@ %bb.0:
	.pad	#4
	sub	sp, #4
	.cfi_def_cfa_offset 4
	str	r0, [sp]
.Ltmp78:
	.loc	5 621 5 prologue_end    @ ../GD32E230_Firmware_Library/GD32E230_standard_peripheral/Source/gd32e230_usart.c:621:5
	ldr	r0, [sp]
	.loc	5 621 30 is_stmt 0      @ ../GD32E230_Firmware_Library/GD32E230_standard_peripheral/Source/gd32e230_usart.c:621:30
	ldr	r1, [r0]
	movs	r2, #1
	bics	r1, r2
	str	r1, [r0]
	.loc	5 623 5 is_stmt 1       @ ../GD32E230_Firmware_Library/GD32E230_standard_peripheral/Source/gd32e230_usart.c:623:5
	ldr	r0, [sp]
	.loc	5 623 30 is_stmt 0      @ ../GD32E230_Firmware_Library/GD32E230_standard_peripheral/Source/gd32e230_usart.c:623:30
	ldr	r1, [r0, #4]
	movw	r2, #2048
	bics	r1, r2
	str	r1, [r0, #4]
	.loc	5 624 1 is_stmt 1       @ ../GD32E230_Firmware_Library/GD32E230_standard_peripheral/Source/gd32e230_usart.c:624:1
	add	sp, #4
	bx	lr
.Ltmp79:
.Lfunc_end34:
	.size	usart_clock_disable, .Lfunc_end34-usart_clock_disable
	.cfi_endproc
	.cantunwind
	.fnend
                                        @ -- End function
	.section	.text.usart_synchronous_clock_config,"ax",%progbits
	.hidden	usart_synchronous_clock_config @ -- Begin function usart_synchronous_clock_config
	.globl	usart_synchronous_clock_config
	.p2align	1
	.type	usart_synchronous_clock_config,%function
	.code	16                      @ @usart_synchronous_clock_config
	.thumb_func
usart_synchronous_clock_config:
.Lfunc_begin35:
	.loc	5 645 0                 @ ../GD32E230_Firmware_Library/GD32E230_standard_peripheral/Source/gd32e230_usart.c:645:0
	.fnstart
	.cfi_startproc
@ %bb.0:
	.pad	#16
	sub	sp, #16
	.cfi_def_cfa_offset 16
	str	r0, [sp, #12]
	str	r1, [sp, #8]
	str	r2, [sp, #4]
	str	r3, [sp]
.Ltmp80:
	.loc	5 647 5 prologue_end    @ ../GD32E230_Firmware_Library/GD32E230_standard_peripheral/Source/gd32e230_usart.c:647:5
	ldr	r0, [sp, #12]
	.loc	5 647 30 is_stmt 0      @ ../GD32E230_Firmware_Library/GD32E230_standard_peripheral/Source/gd32e230_usart.c:647:30
	ldr	r1, [r0]
	movs	r2, #1
	bics	r1, r2
	str	r1, [r0]
	.loc	5 649 5 is_stmt 1       @ ../GD32E230_Firmware_Library/GD32E230_standard_peripheral/Source/gd32e230_usart.c:649:5
	ldr	r0, [sp, #12]
	.loc	5 649 30 is_stmt 0      @ ../GD32E230_Firmware_Library/GD32E230_standard_peripheral/Source/gd32e230_usart.c:649:30
	ldr	r1, [r0, #4]
	movw	r2, #1792
	bics	r1, r2
	str	r1, [r0, #4]
	.loc	5 651 52 is_stmt 1      @ ../GD32E230_Firmware_Library/GD32E230_standard_peripheral/Source/gd32e230_usart.c:651:52
	ldr	r0, [sp, #8]
	movw	r1, #256
	.loc	5 651 50 is_stmt 0      @ ../GD32E230_Firmware_Library/GD32E230_standard_peripheral/Source/gd32e230_usart.c:651:50
	ands	r0, r1
	.loc	5 651 5                 @ ../GD32E230_Firmware_Library/GD32E230_standard_peripheral/Source/gd32e230_usart.c:651:5
	ldr	r1, [sp, #12]
	.loc	5 651 30                @ ../GD32E230_Firmware_Library/GD32E230_standard_peripheral/Source/gd32e230_usart.c:651:30
	ldr	r2, [r1, #4]
	orrs	r2, r0
	str	r2, [r1, #4]
	.loc	5 652 51 is_stmt 1      @ ../GD32E230_Firmware_Library/GD32E230_standard_peripheral/Source/gd32e230_usart.c:652:51
	ldr	r0, [sp, #4]
	movw	r1, #512
	.loc	5 652 49 is_stmt 0      @ ../GD32E230_Firmware_Library/GD32E230_standard_peripheral/Source/gd32e230_usart.c:652:49
	ands	r0, r1
	.loc	5 652 5                 @ ../GD32E230_Firmware_Library/GD32E230_standard_peripheral/Source/gd32e230_usart.c:652:5
	ldr	r1, [sp, #12]
	.loc	5 652 30                @ ../GD32E230_Firmware_Library/GD32E230_standard_peripheral/Source/gd32e230_usart.c:652:30
	ldr	r2, [r1, #4]
	orrs	r2, r0
	str	r2, [r1, #4]
	.loc	5 653 51 is_stmt 1      @ ../GD32E230_Firmware_Library/GD32E230_standard_peripheral/Source/gd32e230_usart.c:653:51
	ldr	r0, [sp]
	movw	r1, #1024
	.loc	5 653 49 is_stmt 0      @ ../GD32E230_Firmware_Library/GD32E230_standard_peripheral/Source/gd32e230_usart.c:653:49
	ands	r0, r1
	.loc	5 653 5                 @ ../GD32E230_Firmware_Library/GD32E230_standard_peripheral/Source/gd32e230_usart.c:653:5
	ldr	r1, [sp, #12]
	.loc	5 653 30                @ ../GD32E230_Firmware_Library/GD32E230_standard_peripheral/Source/gd32e230_usart.c:653:30
	ldr	r2, [r1, #4]
	orrs	r2, r0
	str	r2, [r1, #4]
	.loc	5 654 1 is_stmt 1       @ ../GD32E230_Firmware_Library/GD32E230_standard_peripheral/Source/gd32e230_usart.c:654:1
	add	sp, #16
	bx	lr
.Ltmp81:
.Lfunc_end35:
	.size	usart_synchronous_clock_config, .Lfunc_end35-usart_synchronous_clock_config
	.cfi_endproc
	.cantunwind
	.fnend
                                        @ -- End function
	.section	.text.usart_guard_time_config,"ax",%progbits
	.hidden	usart_guard_time_config @ -- Begin function usart_guard_time_config
	.globl	usart_guard_time_config
	.p2align	1
	.type	usart_guard_time_config,%function
	.code	16                      @ @usart_guard_time_config
	.thumb_func
usart_guard_time_config:
.Lfunc_begin36:
	.loc	5 664 0                 @ ../GD32E230_Firmware_Library/GD32E230_standard_peripheral/Source/gd32e230_usart.c:664:0
	.fnstart
	.cfi_startproc
@ %bb.0:
	.pad	#8
	sub	sp, #8
	.cfi_def_cfa_offset 8
	str	r0, [sp, #4]
	str	r1, [sp]
.Ltmp82:
	.loc	5 666 5 prologue_end    @ ../GD32E230_Firmware_Library/GD32E230_standard_peripheral/Source/gd32e230_usart.c:666:5
	ldr	r0, [sp, #4]
	.loc	5 666 30 is_stmt 0      @ ../GD32E230_Firmware_Library/GD32E230_standard_peripheral/Source/gd32e230_usart.c:666:30
	ldr	r1, [r0]
	movs	r2, #1
	bics	r1, r2
	str	r1, [r0]
	.loc	5 668 5 is_stmt 1       @ ../GD32E230_Firmware_Library/GD32E230_standard_peripheral/Source/gd32e230_usart.c:668:5
	ldr	r0, [sp, #4]
	.loc	5 668 28 is_stmt 0      @ ../GD32E230_Firmware_Library/GD32E230_standard_peripheral/Source/gd32e230_usart.c:668:28
	ldr	r1, [r0, #16]
	movw	r2, #65280
	bics	r1, r2
	str	r1, [r0, #16]
	.loc	5 669 50 is_stmt 1      @ ../GD32E230_Firmware_Library/GD32E230_standard_peripheral/Source/gd32e230_usart.c:669:50
	ldr	r0, [sp]
	.loc	5 669 56 is_stmt 0      @ ../GD32E230_Firmware_Library/GD32E230_standard_peripheral/Source/gd32e230_usart.c:669:56
	lsls	r0, r0, #8
	.loc	5 669 46                @ ../GD32E230_Firmware_Library/GD32E230_standard_peripheral/Source/gd32e230_usart.c:669:46
	uxth	r0, r0
	.loc	5 669 5                 @ ../GD32E230_Firmware_Library/GD32E230_standard_peripheral/Source/gd32e230_usart.c:669:5
	ldr	r1, [sp, #4]
	.loc	5 669 28                @ ../GD32E230_Firmware_Library/GD32E230_standard_peripheral/Source/gd32e230_usart.c:669:28
	ldr	r2, [r1, #16]
	orrs	r2, r0
	str	r2, [r1, #16]
	.loc	5 670 1 is_stmt 1       @ ../GD32E230_Firmware_Library/GD32E230_standard_peripheral/Source/gd32e230_usart.c:670:1
	add	sp, #8
	bx	lr
.Ltmp83:
.Lfunc_end36:
	.size	usart_guard_time_config, .Lfunc_end36-usart_guard_time_config
	.cfi_endproc
	.cantunwind
	.fnend
                                        @ -- End function
	.section	.text.usart_smartcard_mode_enable,"ax",%progbits
	.hidden	usart_smartcard_mode_enable @ -- Begin function usart_smartcard_mode_enable
	.globl	usart_smartcard_mode_enable
	.p2align	1
	.type	usart_smartcard_mode_enable,%function
	.code	16                      @ @usart_smartcard_mode_enable
	.thumb_func
usart_smartcard_mode_enable:
.Lfunc_begin37:
	.loc	5 679 0                 @ ../GD32E230_Firmware_Library/GD32E230_standard_peripheral/Source/gd32e230_usart.c:679:0
	.fnstart
	.cfi_startproc
@ %bb.0:
	.pad	#4
	sub	sp, #4
	.cfi_def_cfa_offset 4
	str	r0, [sp]
.Ltmp84:
	.loc	5 681 5 prologue_end    @ ../GD32E230_Firmware_Library/GD32E230_standard_peripheral/Source/gd32e230_usart.c:681:5
	ldr	r0, [sp]
	.loc	5 681 30 is_stmt 0      @ ../GD32E230_Firmware_Library/GD32E230_standard_peripheral/Source/gd32e230_usart.c:681:30
	ldr	r1, [r0]
	movs	r2, #1
	bics	r1, r2
	str	r1, [r0]
	.loc	5 683 5 is_stmt 1       @ ../GD32E230_Firmware_Library/GD32E230_standard_peripheral/Source/gd32e230_usart.c:683:5
	ldr	r0, [sp]
	.loc	5 683 30 is_stmt 0      @ ../GD32E230_Firmware_Library/GD32E230_standard_peripheral/Source/gd32e230_usart.c:683:30
	ldr	r1, [r0, #8]
	movs	r2, #32
	orrs	r1, r2
	str	r1, [r0, #8]
	.loc	5 684 1 is_stmt 1       @ ../GD32E230_Firmware_Library/GD32E230_standard_peripheral/Source/gd32e230_usart.c:684:1
	add	sp, #4
	bx	lr
.Ltmp85:
.Lfunc_end37:
	.size	usart_smartcard_mode_enable, .Lfunc_end37-usart_smartcard_mode_enable
	.cfi_endproc
	.cantunwind
	.fnend
                                        @ -- End function
	.section	.text.usart_smartcard_mode_disable,"ax",%progbits
	.hidden	usart_smartcard_mode_disable @ -- Begin function usart_smartcard_mode_disable
	.globl	usart_smartcard_mode_disable
	.p2align	1
	.type	usart_smartcard_mode_disable,%function
	.code	16                      @ @usart_smartcard_mode_disable
	.thumb_func
usart_smartcard_mode_disable:
.Lfunc_begin38:
	.loc	5 693 0                 @ ../GD32E230_Firmware_Library/GD32E230_standard_peripheral/Source/gd32e230_usart.c:693:0
	.fnstart
	.cfi_startproc
@ %bb.0:
	.pad	#4
	sub	sp, #4
	.cfi_def_cfa_offset 4
	str	r0, [sp]
.Ltmp86:
	.loc	5 695 5 prologue_end    @ ../GD32E230_Firmware_Library/GD32E230_standard_peripheral/Source/gd32e230_usart.c:695:5
	ldr	r0, [sp]
	.loc	5 695 30 is_stmt 0      @ ../GD32E230_Firmware_Library/GD32E230_standard_peripheral/Source/gd32e230_usart.c:695:30
	ldr	r1, [r0]
	movs	r2, #1
	bics	r1, r2
	str	r1, [r0]
	.loc	5 697 5 is_stmt 1       @ ../GD32E230_Firmware_Library/GD32E230_standard_peripheral/Source/gd32e230_usart.c:697:5
	ldr	r0, [sp]
	.loc	5 697 30 is_stmt 0      @ ../GD32E230_Firmware_Library/GD32E230_standard_peripheral/Source/gd32e230_usart.c:697:30
	ldr	r1, [r0, #8]
	movs	r2, #32
	bics	r1, r2
	str	r1, [r0, #8]
	.loc	5 698 1 is_stmt 1       @ ../GD32E230_Firmware_Library/GD32E230_standard_peripheral/Source/gd32e230_usart.c:698:1
	add	sp, #4
	bx	lr
.Ltmp87:
.Lfunc_end38:
	.size	usart_smartcard_mode_disable, .Lfunc_end38-usart_smartcard_mode_disable
	.cfi_endproc
	.cantunwind
	.fnend
                                        @ -- End function
	.section	.text.usart_smartcard_mode_nack_enable,"ax",%progbits
	.hidden	usart_smartcard_mode_nack_enable @ -- Begin function usart_smartcard_mode_nack_enable
	.globl	usart_smartcard_mode_nack_enable
	.p2align	1
	.type	usart_smartcard_mode_nack_enable,%function
	.code	16                      @ @usart_smartcard_mode_nack_enable
	.thumb_func
usart_smartcard_mode_nack_enable:
.Lfunc_begin39:
	.loc	5 707 0                 @ ../GD32E230_Firmware_Library/GD32E230_standard_peripheral/Source/gd32e230_usart.c:707:0
	.fnstart
	.cfi_startproc
@ %bb.0:
	.pad	#4
	sub	sp, #4
	.cfi_def_cfa_offset 4
	str	r0, [sp]
.Ltmp88:
	.loc	5 709 5 prologue_end    @ ../GD32E230_Firmware_Library/GD32E230_standard_peripheral/Source/gd32e230_usart.c:709:5
	ldr	r0, [sp]
	.loc	5 709 30 is_stmt 0      @ ../GD32E230_Firmware_Library/GD32E230_standard_peripheral/Source/gd32e230_usart.c:709:30
	ldr	r1, [r0]
	movs	r2, #1
	bics	r1, r2
	str	r1, [r0]
	.loc	5 711 5 is_stmt 1       @ ../GD32E230_Firmware_Library/GD32E230_standard_peripheral/Source/gd32e230_usart.c:711:5
	ldr	r0, [sp]
	.loc	5 711 30 is_stmt 0      @ ../GD32E230_Firmware_Library/GD32E230_standard_peripheral/Source/gd32e230_usart.c:711:30
	ldr	r1, [r0, #8]
	movs	r2, #16
	orrs	r1, r2
	str	r1, [r0, #8]
	.loc	5 712 1 is_stmt 1       @ ../GD32E230_Firmware_Library/GD32E230_standard_peripheral/Source/gd32e230_usart.c:712:1
	add	sp, #4
	bx	lr
.Ltmp89:
.Lfunc_end39:
	.size	usart_smartcard_mode_nack_enable, .Lfunc_end39-usart_smartcard_mode_nack_enable
	.cfi_endproc
	.cantunwind
	.fnend
                                        @ -- End function
	.section	.text.usart_smartcard_mode_nack_disable,"ax",%progbits
	.hidden	usart_smartcard_mode_nack_disable @ -- Begin function usart_smartcard_mode_nack_disable
	.globl	usart_smartcard_mode_nack_disable
	.p2align	1
	.type	usart_smartcard_mode_nack_disable,%function
	.code	16                      @ @usart_smartcard_mode_nack_disable
	.thumb_func
usart_smartcard_mode_nack_disable:
.Lfunc_begin40:
	.loc	5 721 0                 @ ../GD32E230_Firmware_Library/GD32E230_standard_peripheral/Source/gd32e230_usart.c:721:0
	.fnstart
	.cfi_startproc
@ %bb.0:
	.pad	#4
	sub	sp, #4
	.cfi_def_cfa_offset 4
	str	r0, [sp]
.Ltmp90:
	.loc	5 723 5 prologue_end    @ ../GD32E230_Firmware_Library/GD32E230_standard_peripheral/Source/gd32e230_usart.c:723:5
	ldr	r0, [sp]
	.loc	5 723 30 is_stmt 0      @ ../GD32E230_Firmware_Library/GD32E230_standard_peripheral/Source/gd32e230_usart.c:723:30
	ldr	r1, [r0]
	movs	r2, #1
	bics	r1, r2
	str	r1, [r0]
	.loc	5 725 5 is_stmt 1       @ ../GD32E230_Firmware_Library/GD32E230_standard_peripheral/Source/gd32e230_usart.c:725:5
	ldr	r0, [sp]
	.loc	5 725 30 is_stmt 0      @ ../GD32E230_Firmware_Library/GD32E230_standard_peripheral/Source/gd32e230_usart.c:725:30
	ldr	r1, [r0, #8]
	movs	r2, #16
	bics	r1, r2
	str	r1, [r0, #8]
	.loc	5 726 1 is_stmt 1       @ ../GD32E230_Firmware_Library/GD32E230_standard_peripheral/Source/gd32e230_usart.c:726:1
	add	sp, #4
	bx	lr
.Ltmp91:
.Lfunc_end40:
	.size	usart_smartcard_mode_nack_disable, .Lfunc_end40-usart_smartcard_mode_nack_disable
	.cfi_endproc
	.cantunwind
	.fnend
                                        @ -- End function
	.section	.text.usart_smartcard_mode_early_nack_enable,"ax",%progbits
	.hidden	usart_smartcard_mode_early_nack_enable @ -- Begin function usart_smartcard_mode_early_nack_enable
	.globl	usart_smartcard_mode_early_nack_enable
	.p2align	1
	.type	usart_smartcard_mode_early_nack_enable,%function
	.code	16                      @ @usart_smartcard_mode_early_nack_enable
	.thumb_func
usart_smartcard_mode_early_nack_enable:
.Lfunc_begin41:
	.loc	5 735 0                 @ ../GD32E230_Firmware_Library/GD32E230_standard_peripheral/Source/gd32e230_usart.c:735:0
	.fnstart
	.cfi_startproc
@ %bb.0:
	.pad	#4
	sub	sp, #4
	.cfi_def_cfa_offset 4
	str	r0, [sp]
.Ltmp92:
	.loc	5 736 5 prologue_end    @ ../GD32E230_Firmware_Library/GD32E230_standard_peripheral/Source/gd32e230_usart.c:736:5
	ldr	r0, [sp]
	movs	r1, #208
	.loc	5 736 30 is_stmt 0      @ ../GD32E230_Firmware_Library/GD32E230_standard_peripheral/Source/gd32e230_usart.c:736:30
	ldr	r2, [r0, r1]
	movs	r3, #1
	orrs	r2, r3
	str	r2, [r0, r1]
	.loc	5 737 1 is_stmt 1       @ ../GD32E230_Firmware_Library/GD32E230_standard_peripheral/Source/gd32e230_usart.c:737:1
	add	sp, #4
	bx	lr
.Ltmp93:
.Lfunc_end41:
	.size	usart_smartcard_mode_early_nack_enable, .Lfunc_end41-usart_smartcard_mode_early_nack_enable
	.cfi_endproc
	.cantunwind
	.fnend
                                        @ -- End function
	.section	.text.usart_smartcard_mode_early_nack_disable,"ax",%progbits
	.hidden	usart_smartcard_mode_early_nack_disable @ -- Begin function usart_smartcard_mode_early_nack_disable
	.globl	usart_smartcard_mode_early_nack_disable
	.p2align	1
	.type	usart_smartcard_mode_early_nack_disable,%function
	.code	16                      @ @usart_smartcard_mode_early_nack_disable
	.thumb_func
usart_smartcard_mode_early_nack_disable:
.Lfunc_begin42:
	.loc	5 746 0                 @ ../GD32E230_Firmware_Library/GD32E230_standard_peripheral/Source/gd32e230_usart.c:746:0
	.fnstart
	.cfi_startproc
@ %bb.0:
	.pad	#4
	sub	sp, #4
	.cfi_def_cfa_offset 4
	str	r0, [sp]
.Ltmp94:
	.loc	5 747 5 prologue_end    @ ../GD32E230_Firmware_Library/GD32E230_standard_peripheral/Source/gd32e230_usart.c:747:5
	ldr	r0, [sp]
	movs	r1, #208
	.loc	5 747 30 is_stmt 0      @ ../GD32E230_Firmware_Library/GD32E230_standard_peripheral/Source/gd32e230_usart.c:747:30
	ldr	r2, [r0, r1]
	movs	r3, #1
	bics	r2, r3
	str	r2, [r0, r1]
	.loc	5 748 1 is_stmt 1       @ ../GD32E230_Firmware_Library/GD32E230_standard_peripheral/Source/gd32e230_usart.c:748:1
	add	sp, #4
	bx	lr
.Ltmp95:
.Lfunc_end42:
	.size	usart_smartcard_mode_early_nack_disable, .Lfunc_end42-usart_smartcard_mode_early_nack_disable
	.cfi_endproc
	.cantunwind
	.fnend
                                        @ -- End function
	.section	.text.usart_smartcard_autoretry_config,"ax",%progbits
	.hidden	usart_smartcard_autoretry_config @ -- Begin function usart_smartcard_autoretry_config
	.globl	usart_smartcard_autoretry_config
	.p2align	1
	.type	usart_smartcard_autoretry_config,%function
	.code	16                      @ @usart_smartcard_autoretry_config
	.thumb_func
usart_smartcard_autoretry_config:
.Lfunc_begin43:
	.loc	5 758 0                 @ ../GD32E230_Firmware_Library/GD32E230_standard_peripheral/Source/gd32e230_usart.c:758:0
	.fnstart
	.cfi_startproc
@ %bb.0:
	.pad	#8
	sub	sp, #8
	.cfi_def_cfa_offset 8
	str	r0, [sp, #4]
	str	r1, [sp]
.Ltmp96:
	.loc	5 760 5 prologue_end    @ ../GD32E230_Firmware_Library/GD32E230_standard_peripheral/Source/gd32e230_usart.c:760:5
	ldr	r0, [sp, #4]
	.loc	5 760 30 is_stmt 0      @ ../GD32E230_Firmware_Library/GD32E230_standard_peripheral/Source/gd32e230_usart.c:760:30
	ldr	r1, [r0]
	movs	r2, #1
	bics	r1, r2
	str	r1, [r0]
	.loc	5 761 5 is_stmt 1       @ ../GD32E230_Firmware_Library/GD32E230_standard_peripheral/Source/gd32e230_usart.c:761:5
	ldr	r0, [sp, #4]
	.loc	5 761 30 is_stmt 0      @ ../GD32E230_Firmware_Library/GD32E230_standard_peripheral/Source/gd32e230_usart.c:761:30
	ldr	r1, [r0, #8]
	movs	r2, #7
	lsls	r2, r2, #17
	bics	r1, r2
	str	r1, [r0, #8]
	.loc	5 762 56 is_stmt 1      @ ../GD32E230_Firmware_Library/GD32E230_standard_peripheral/Source/gd32e230_usart.c:762:56
	ldr	r0, [sp]
	.loc	5 762 53 is_stmt 0      @ ../GD32E230_Firmware_Library/GD32E230_standard_peripheral/Source/gd32e230_usart.c:762:53
	lsls	r0, r0, #29
	lsrs	r0, r0, #12
	.loc	5 762 5                 @ ../GD32E230_Firmware_Library/GD32E230_standard_peripheral/Source/gd32e230_usart.c:762:5
	ldr	r1, [sp, #4]
	.loc	5 762 30                @ ../GD32E230_Firmware_Library/GD32E230_standard_peripheral/Source/gd32e230_usart.c:762:30
	ldr	r2, [r1, #8]
	orrs	r2, r0
	str	r2, [r1, #8]
	.loc	5 763 1 is_stmt 1       @ ../GD32E230_Firmware_Library/GD32E230_standard_peripheral/Source/gd32e230_usart.c:763:1
	add	sp, #8
	bx	lr
.Ltmp97:
.Lfunc_end43:
	.size	usart_smartcard_autoretry_config, .Lfunc_end43-usart_smartcard_autoretry_config
	.cfi_endproc
	.cantunwind
	.fnend
                                        @ -- End function
	.section	.text.usart_block_length_config,"ax",%progbits
	.hidden	usart_block_length_config @ -- Begin function usart_block_length_config
	.globl	usart_block_length_config
	.p2align	1
	.type	usart_block_length_config,%function
	.code	16                      @ @usart_block_length_config
	.thumb_func
usart_block_length_config:
.Lfunc_begin44:
	.loc	5 773 0                 @ ../GD32E230_Firmware_Library/GD32E230_standard_peripheral/Source/gd32e230_usart.c:773:0
	.fnstart
	.cfi_startproc
@ %bb.0:
	.pad	#8
	sub	sp, #8
	.cfi_def_cfa_offset 8
	str	r0, [sp, #4]
	str	r1, [sp]
.Ltmp98:
	.loc	5 774 5 prologue_end    @ ../GD32E230_Firmware_Library/GD32E230_standard_peripheral/Source/gd32e230_usart.c:774:5
	ldr	r0, [sp, #4]
	.loc	5 774 28 is_stmt 0      @ ../GD32E230_Firmware_Library/GD32E230_standard_peripheral/Source/gd32e230_usart.c:774:28
	ldr	r1, [r0, #20]
	movs	r2, #255
	lsls	r2, r2, #24
	bics	r1, r2
	str	r1, [r0, #20]
	.loc	5 775 48 is_stmt 1      @ ../GD32E230_Firmware_Library/GD32E230_standard_peripheral/Source/gd32e230_usart.c:775:48
	ldr	r0, [sp]
	.loc	5 775 52 is_stmt 0      @ ../GD32E230_Firmware_Library/GD32E230_standard_peripheral/Source/gd32e230_usart.c:775:52
	lsls	r0, r0, #24
	.loc	5 775 5                 @ ../GD32E230_Firmware_Library/GD32E230_standard_peripheral/Source/gd32e230_usart.c:775:5
	ldr	r1, [sp, #4]
	.loc	5 775 28                @ ../GD32E230_Firmware_Library/GD32E230_standard_peripheral/Source/gd32e230_usart.c:775:28
	ldr	r2, [r1, #20]
	orrs	r2, r0
	str	r2, [r1, #20]
	.loc	5 776 1 is_stmt 1       @ ../GD32E230_Firmware_Library/GD32E230_standard_peripheral/Source/gd32e230_usart.c:776:1
	add	sp, #8
	bx	lr
.Ltmp99:
.Lfunc_end44:
	.size	usart_block_length_config, .Lfunc_end44-usart_block_length_config
	.cfi_endproc
	.cantunwind
	.fnend
                                        @ -- End function
	.section	.text.usart_irda_mode_enable,"ax",%progbits
	.hidden	usart_irda_mode_enable  @ -- Begin function usart_irda_mode_enable
	.globl	usart_irda_mode_enable
	.p2align	1
	.type	usart_irda_mode_enable,%function
	.code	16                      @ @usart_irda_mode_enable
	.thumb_func
usart_irda_mode_enable:
.Lfunc_begin45:
	.loc	5 785 0                 @ ../GD32E230_Firmware_Library/GD32E230_standard_peripheral/Source/gd32e230_usart.c:785:0
	.fnstart
	.cfi_startproc
@ %bb.0:
	.pad	#4
	sub	sp, #4
	.cfi_def_cfa_offset 4
	str	r0, [sp]
.Ltmp100:
	.loc	5 787 5 prologue_end    @ ../GD32E230_Firmware_Library/GD32E230_standard_peripheral/Source/gd32e230_usart.c:787:5
	ldr	r0, [sp]
	.loc	5 787 30 is_stmt 0      @ ../GD32E230_Firmware_Library/GD32E230_standard_peripheral/Source/gd32e230_usart.c:787:30
	ldr	r1, [r0]
	movs	r2, #1
	bics	r1, r2
	str	r1, [r0]
	.loc	5 789 5 is_stmt 1       @ ../GD32E230_Firmware_Library/GD32E230_standard_peripheral/Source/gd32e230_usart.c:789:5
	ldr	r0, [sp]
	.loc	5 789 30 is_stmt 0      @ ../GD32E230_Firmware_Library/GD32E230_standard_peripheral/Source/gd32e230_usart.c:789:30
	ldr	r1, [r0, #8]
	movs	r2, #2
	orrs	r1, r2
	str	r1, [r0, #8]
	.loc	5 790 1 is_stmt 1       @ ../GD32E230_Firmware_Library/GD32E230_standard_peripheral/Source/gd32e230_usart.c:790:1
	add	sp, #4
	bx	lr
.Ltmp101:
.Lfunc_end45:
	.size	usart_irda_mode_enable, .Lfunc_end45-usart_irda_mode_enable
	.cfi_endproc
	.cantunwind
	.fnend
                                        @ -- End function
	.section	.text.usart_irda_mode_disable,"ax",%progbits
	.hidden	usart_irda_mode_disable @ -- Begin function usart_irda_mode_disable
	.globl	usart_irda_mode_disable
	.p2align	1
	.type	usart_irda_mode_disable,%function
	.code	16                      @ @usart_irda_mode_disable
	.thumb_func
usart_irda_mode_disable:
.Lfunc_begin46:
	.loc	5 799 0                 @ ../GD32E230_Firmware_Library/GD32E230_standard_peripheral/Source/gd32e230_usart.c:799:0
	.fnstart
	.cfi_startproc
@ %bb.0:
	.pad	#4
	sub	sp, #4
	.cfi_def_cfa_offset 4
	str	r0, [sp]
.Ltmp102:
	.loc	5 801 5 prologue_end    @ ../GD32E230_Firmware_Library/GD32E230_standard_peripheral/Source/gd32e230_usart.c:801:5
	ldr	r0, [sp]
	.loc	5 801 30 is_stmt 0      @ ../GD32E230_Firmware_Library/GD32E230_standard_peripheral/Source/gd32e230_usart.c:801:30
	ldr	r1, [r0]
	movs	r2, #1
	bics	r1, r2
	str	r1, [r0]
	.loc	5 803 5 is_stmt 1       @ ../GD32E230_Firmware_Library/GD32E230_standard_peripheral/Source/gd32e230_usart.c:803:5
	ldr	r0, [sp]
	.loc	5 803 30 is_stmt 0      @ ../GD32E230_Firmware_Library/GD32E230_standard_peripheral/Source/gd32e230_usart.c:803:30
	ldr	r1, [r0, #8]
	movs	r2, #2
	bics	r1, r2
	str	r1, [r0, #8]
	.loc	5 804 1 is_stmt 1       @ ../GD32E230_Firmware_Library/GD32E230_standard_peripheral/Source/gd32e230_usart.c:804:1
	add	sp, #4
	bx	lr
.Ltmp103:
.Lfunc_end46:
	.size	usart_irda_mode_disable, .Lfunc_end46-usart_irda_mode_disable
	.cfi_endproc
	.cantunwind
	.fnend
                                        @ -- End function
	.section	.text.usart_prescaler_config,"ax",%progbits
	.hidden	usart_prescaler_config  @ -- Begin function usart_prescaler_config
	.globl	usart_prescaler_config
	.p2align	1
	.type	usart_prescaler_config,%function
	.code	16                      @ @usart_prescaler_config
	.thumb_func
usart_prescaler_config:
.Lfunc_begin47:
	.loc	5 814 0                 @ ../GD32E230_Firmware_Library/GD32E230_standard_peripheral/Source/gd32e230_usart.c:814:0
	.fnstart
	.cfi_startproc
@ %bb.0:
	.pad	#8
	sub	sp, #8
	.cfi_def_cfa_offset 8
	str	r0, [sp, #4]
	str	r1, [sp]
.Ltmp104:
	.loc	5 816 5 prologue_end    @ ../GD32E230_Firmware_Library/GD32E230_standard_peripheral/Source/gd32e230_usart.c:816:5
	ldr	r0, [sp, #4]
	.loc	5 816 30 is_stmt 0      @ ../GD32E230_Firmware_Library/GD32E230_standard_peripheral/Source/gd32e230_usart.c:816:30
	ldr	r1, [r0]
	movs	r2, #1
	bics	r1, r2
	str	r1, [r0]
	.loc	5 817 5 is_stmt 1       @ ../GD32E230_Firmware_Library/GD32E230_standard_peripheral/Source/gd32e230_usart.c:817:5
	ldr	r0, [sp, #4]
	.loc	5 817 28 is_stmt 0      @ ../GD32E230_Firmware_Library/GD32E230_standard_peripheral/Source/gd32e230_usart.c:817:28
	ldr	r1, [r0, #16]
	movs	r2, #255
	bics	r1, r2
	str	r1, [r0, #16]
	.loc	5 818 31 is_stmt 1      @ ../GD32E230_Firmware_Library/GD32E230_standard_peripheral/Source/gd32e230_usart.c:818:31
	ldr	r0, [sp]
	.loc	5 818 5 is_stmt 0       @ ../GD32E230_Firmware_Library/GD32E230_standard_peripheral/Source/gd32e230_usart.c:818:5
	ldr	r1, [sp, #4]
	.loc	5 818 28                @ ../GD32E230_Firmware_Library/GD32E230_standard_peripheral/Source/gd32e230_usart.c:818:28
	ldr	r2, [r1, #16]
	orrs	r2, r0
	str	r2, [r1, #16]
	.loc	5 819 1 is_stmt 1       @ ../GD32E230_Firmware_Library/GD32E230_standard_peripheral/Source/gd32e230_usart.c:819:1
	add	sp, #8
	bx	lr
.Ltmp105:
.Lfunc_end47:
	.size	usart_prescaler_config, .Lfunc_end47-usart_prescaler_config
	.cfi_endproc
	.cantunwind
	.fnend
                                        @ -- End function
	.section	.text.usart_irda_lowpower_config,"ax",%progbits
	.hidden	usart_irda_lowpower_config @ -- Begin function usart_irda_lowpower_config
	.globl	usart_irda_lowpower_config
	.p2align	1
	.type	usart_irda_lowpower_config,%function
	.code	16                      @ @usart_irda_lowpower_config
	.thumb_func
usart_irda_lowpower_config:
.Lfunc_begin48:
	.loc	5 832 0                 @ ../GD32E230_Firmware_Library/GD32E230_standard_peripheral/Source/gd32e230_usart.c:832:0
	.fnstart
	.cfi_startproc
@ %bb.0:
	.pad	#8
	sub	sp, #8
	.cfi_def_cfa_offset 8
	str	r0, [sp, #4]
	str	r1, [sp]
.Ltmp106:
	.loc	5 834 5 prologue_end    @ ../GD32E230_Firmware_Library/GD32E230_standard_peripheral/Source/gd32e230_usart.c:834:5
	ldr	r0, [sp, #4]
	.loc	5 834 30 is_stmt 0      @ ../GD32E230_Firmware_Library/GD32E230_standard_peripheral/Source/gd32e230_usart.c:834:30
	ldr	r1, [r0]
	movs	r2, #1
	bics	r1, r2
	str	r1, [r0]
	.loc	5 835 5 is_stmt 1       @ ../GD32E230_Firmware_Library/GD32E230_standard_peripheral/Source/gd32e230_usart.c:835:5
	ldr	r0, [sp, #4]
	.loc	5 835 30 is_stmt 0      @ ../GD32E230_Firmware_Library/GD32E230_standard_peripheral/Source/gd32e230_usart.c:835:30
	ldr	r1, [r0, #8]
	movs	r2, #4
	bics	r1, r2
	str	r1, [r0, #8]
	.loc	5 836 52 is_stmt 1      @ ../GD32E230_Firmware_Library/GD32E230_standard_peripheral/Source/gd32e230_usart.c:836:52
	ldr	r0, [sp]
	.loc	5 836 50 is_stmt 0      @ ../GD32E230_Firmware_Library/GD32E230_standard_peripheral/Source/gd32e230_usart.c:836:50
	ands	r0, r2
	.loc	5 836 5                 @ ../GD32E230_Firmware_Library/GD32E230_standard_peripheral/Source/gd32e230_usart.c:836:5
	ldr	r1, [sp, #4]
	.loc	5 836 30                @ ../GD32E230_Firmware_Library/GD32E230_standard_peripheral/Source/gd32e230_usart.c:836:30
	ldr	r2, [r1, #8]
	orrs	r2, r0
	str	r2, [r1, #8]
	.loc	5 837 1 is_stmt 1       @ ../GD32E230_Firmware_Library/GD32E230_standard_peripheral/Source/gd32e230_usart.c:837:1
	add	sp, #8
	bx	lr
.Ltmp107:
.Lfunc_end48:
	.size	usart_irda_lowpower_config, .Lfunc_end48-usart_irda_lowpower_config
	.cfi_endproc
	.cantunwind
	.fnend
                                        @ -- End function
	.section	.text.usart_hardware_flow_rts_config,"ax",%progbits
	.hidden	usart_hardware_flow_rts_config @ -- Begin function usart_hardware_flow_rts_config
	.globl	usart_hardware_flow_rts_config
	.p2align	1
	.type	usart_hardware_flow_rts_config,%function
	.code	16                      @ @usart_hardware_flow_rts_config
	.thumb_func
usart_hardware_flow_rts_config:
.Lfunc_begin49:
	.loc	5 850 0                 @ ../GD32E230_Firmware_Library/GD32E230_standard_peripheral/Source/gd32e230_usart.c:850:0
	.fnstart
	.cfi_startproc
@ %bb.0:
	.pad	#8
	sub	sp, #8
	.cfi_def_cfa_offset 8
	str	r0, [sp, #4]
	str	r1, [sp]
.Ltmp108:
	.loc	5 852 5 prologue_end    @ ../GD32E230_Firmware_Library/GD32E230_standard_peripheral/Source/gd32e230_usart.c:852:5
	ldr	r0, [sp, #4]
	.loc	5 852 30 is_stmt 0      @ ../GD32E230_Firmware_Library/GD32E230_standard_peripheral/Source/gd32e230_usart.c:852:30
	ldr	r1, [r0]
	movs	r2, #1
	bics	r1, r2
	str	r1, [r0]
	.loc	5 854 5 is_stmt 1       @ ../GD32E230_Firmware_Library/GD32E230_standard_peripheral/Source/gd32e230_usart.c:854:5
	ldr	r0, [sp, #4]
	.loc	5 854 30 is_stmt 0      @ ../GD32E230_Firmware_Library/GD32E230_standard_peripheral/Source/gd32e230_usart.c:854:30
	ldr	r1, [r0, #8]
	movw	r2, #256
	bics	r1, r2
	str	r1, [r0, #8]
	.loc	5 855 33 is_stmt 1      @ ../GD32E230_Firmware_Library/GD32E230_standard_peripheral/Source/gd32e230_usart.c:855:33
	ldr	r0, [sp]
	.loc	5 855 5 is_stmt 0       @ ../GD32E230_Firmware_Library/GD32E230_standard_peripheral/Source/gd32e230_usart.c:855:5
	ldr	r1, [sp, #4]
	.loc	5 855 30                @ ../GD32E230_Firmware_Library/GD32E230_standard_peripheral/Source/gd32e230_usart.c:855:30
	ldr	r2, [r1, #8]
	orrs	r2, r0
	str	r2, [r1, #8]
	.loc	5 856 1 is_stmt 1       @ ../GD32E230_Firmware_Library/GD32E230_standard_peripheral/Source/gd32e230_usart.c:856:1
	add	sp, #8
	bx	lr
.Ltmp109:
.Lfunc_end49:
	.size	usart_hardware_flow_rts_config, .Lfunc_end49-usart_hardware_flow_rts_config
	.cfi_endproc
	.cantunwind
	.fnend
                                        @ -- End function
	.section	.text.usart_hardware_flow_cts_config,"ax",%progbits
	.hidden	usart_hardware_flow_cts_config @ -- Begin function usart_hardware_flow_cts_config
	.globl	usart_hardware_flow_cts_config
	.p2align	1
	.type	usart_hardware_flow_cts_config,%function
	.code	16                      @ @usart_hardware_flow_cts_config
	.thumb_func
usart_hardware_flow_cts_config:
.Lfunc_begin50:
	.loc	5 869 0                 @ ../GD32E230_Firmware_Library/GD32E230_standard_peripheral/Source/gd32e230_usart.c:869:0
	.fnstart
	.cfi_startproc
@ %bb.0:
	.pad	#8
	sub	sp, #8
	.cfi_def_cfa_offset 8
	str	r0, [sp, #4]
	str	r1, [sp]
.Ltmp110:
	.loc	5 871 5 prologue_end    @ ../GD32E230_Firmware_Library/GD32E230_standard_peripheral/Source/gd32e230_usart.c:871:5
	ldr	r0, [sp, #4]
	.loc	5 871 30 is_stmt 0      @ ../GD32E230_Firmware_Library/GD32E230_standard_peripheral/Source/gd32e230_usart.c:871:30
	ldr	r1, [r0]
	movs	r2, #1
	bics	r1, r2
	str	r1, [r0]
	.loc	5 873 5 is_stmt 1       @ ../GD32E230_Firmware_Library/GD32E230_standard_peripheral/Source/gd32e230_usart.c:873:5
	ldr	r0, [sp, #4]
	.loc	5 873 30 is_stmt 0      @ ../GD32E230_Firmware_Library/GD32E230_standard_peripheral/Source/gd32e230_usart.c:873:30
	ldr	r1, [r0, #8]
	movw	r2, #512
	bics	r1, r2
	str	r1, [r0, #8]
	.loc	5 874 33 is_stmt 1      @ ../GD32E230_Firmware_Library/GD32E230_standard_peripheral/Source/gd32e230_usart.c:874:33
	ldr	r0, [sp]
	.loc	5 874 5 is_stmt 0       @ ../GD32E230_Firmware_Library/GD32E230_standard_peripheral/Source/gd32e230_usart.c:874:5
	ldr	r1, [sp, #4]
	.loc	5 874 30                @ ../GD32E230_Firmware_Library/GD32E230_standard_peripheral/Source/gd32e230_usart.c:874:30
	ldr	r2, [r1, #8]
	orrs	r2, r0
	str	r2, [r1, #8]
	.loc	5 875 1 is_stmt 1       @ ../GD32E230_Firmware_Library/GD32E230_standard_peripheral/Source/gd32e230_usart.c:875:1
	add	sp, #8
	bx	lr
.Ltmp111:
.Lfunc_end50:
	.size	usart_hardware_flow_cts_config, .Lfunc_end50-usart_hardware_flow_cts_config
	.cfi_endproc
	.cantunwind
	.fnend
                                        @ -- End function
	.section	.text.usart_hardware_flow_coherence_config,"ax",%progbits
	.hidden	usart_hardware_flow_coherence_config @ -- Begin function usart_hardware_flow_coherence_config
	.globl	usart_hardware_flow_coherence_config
	.p2align	1
	.type	usart_hardware_flow_coherence_config,%function
	.code	16                      @ @usart_hardware_flow_coherence_config
	.thumb_func
usart_hardware_flow_coherence_config:
.Lfunc_begin51:
	.loc	5 888 0                 @ ../GD32E230_Firmware_Library/GD32E230_standard_peripheral/Source/gd32e230_usart.c:888:0
	.fnstart
	.cfi_startproc
@ %bb.0:
	.pad	#8
	sub	sp, #8
	.cfi_def_cfa_offset 8
	str	r0, [sp, #4]
	str	r1, [sp]
.Ltmp112:
	.loc	5 889 5 prologue_end    @ ../GD32E230_Firmware_Library/GD32E230_standard_peripheral/Source/gd32e230_usart.c:889:5
	ldr	r0, [sp, #4]
	movs	r1, #192
	.loc	5 889 29 is_stmt 0      @ ../GD32E230_Firmware_Library/GD32E230_standard_peripheral/Source/gd32e230_usart.c:889:29
	ldr	r2, [r0, r1]
	movs	r3, #1
	bics	r2, r3
	str	r2, [r0, r1]
	.loc	5 890 49 is_stmt 1      @ ../GD32E230_Firmware_Library/GD32E230_standard_peripheral/Source/gd32e230_usart.c:890:49
	ldr	r0, [sp]
	.loc	5 890 47 is_stmt 0      @ ../GD32E230_Firmware_Library/GD32E230_standard_peripheral/Source/gd32e230_usart.c:890:47
	ands	r0, r3
	.loc	5 890 5                 @ ../GD32E230_Firmware_Library/GD32E230_standard_peripheral/Source/gd32e230_usart.c:890:5
	ldr	r2, [sp, #4]
	.loc	5 890 29                @ ../GD32E230_Firmware_Library/GD32E230_standard_peripheral/Source/gd32e230_usart.c:890:29
	ldr	r3, [r2, r1]
	orrs	r3, r0
	str	r3, [r2, r1]
	.loc	5 891 1 is_stmt 1       @ ../GD32E230_Firmware_Library/GD32E230_standard_peripheral/Source/gd32e230_usart.c:891:1
	add	sp, #8
	bx	lr
.Ltmp113:
.Lfunc_end51:
	.size	usart_hardware_flow_coherence_config, .Lfunc_end51-usart_hardware_flow_coherence_config
	.cfi_endproc
	.cantunwind
	.fnend
                                        @ -- End function
	.section	.text.usart_rs485_driver_enable,"ax",%progbits
	.hidden	usart_rs485_driver_enable @ -- Begin function usart_rs485_driver_enable
	.globl	usart_rs485_driver_enable
	.p2align	1
	.type	usart_rs485_driver_enable,%function
	.code	16                      @ @usart_rs485_driver_enable
	.thumb_func
usart_rs485_driver_enable:
.Lfunc_begin52:
	.loc	5 900 0                 @ ../GD32E230_Firmware_Library/GD32E230_standard_peripheral/Source/gd32e230_usart.c:900:0
	.fnstart
	.cfi_startproc
@ %bb.0:
	.pad	#4
	sub	sp, #4
	.cfi_def_cfa_offset 4
	str	r0, [sp]
.Ltmp114:
	.loc	5 902 5 prologue_end    @ ../GD32E230_Firmware_Library/GD32E230_standard_peripheral/Source/gd32e230_usart.c:902:5
	ldr	r0, [sp]
	.loc	5 902 30 is_stmt 0      @ ../GD32E230_Firmware_Library/GD32E230_standard_peripheral/Source/gd32e230_usart.c:902:30
	ldr	r1, [r0]
	movs	r2, #1
	bics	r1, r2
	str	r1, [r0]
	.loc	5 904 5 is_stmt 1       @ ../GD32E230_Firmware_Library/GD32E230_standard_peripheral/Source/gd32e230_usart.c:904:5
	ldr	r0, [sp]
	.loc	5 904 30 is_stmt 0      @ ../GD32E230_Firmware_Library/GD32E230_standard_peripheral/Source/gd32e230_usart.c:904:30
	ldr	r1, [r0, #8]
	movw	r2, #16384
	orrs	r1, r2
	str	r1, [r0, #8]
	.loc	5 905 1 is_stmt 1       @ ../GD32E230_Firmware_Library/GD32E230_standard_peripheral/Source/gd32e230_usart.c:905:1
	add	sp, #4
	bx	lr
.Ltmp115:
.Lfunc_end52:
	.size	usart_rs485_driver_enable, .Lfunc_end52-usart_rs485_driver_enable
	.cfi_endproc
	.cantunwind
	.fnend
                                        @ -- End function
	.section	.text.usart_rs485_driver_disable,"ax",%progbits
	.hidden	usart_rs485_driver_disable @ -- Begin function usart_rs485_driver_disable
	.globl	usart_rs485_driver_disable
	.p2align	1
	.type	usart_rs485_driver_disable,%function
	.code	16                      @ @usart_rs485_driver_disable
	.thumb_func
usart_rs485_driver_disable:
.Lfunc_begin53:
	.loc	5 914 0                 @ ../GD32E230_Firmware_Library/GD32E230_standard_peripheral/Source/gd32e230_usart.c:914:0
	.fnstart
	.cfi_startproc
@ %bb.0:
	.pad	#4
	sub	sp, #4
	.cfi_def_cfa_offset 4
	str	r0, [sp]
.Ltmp116:
	.loc	5 916 5 prologue_end    @ ../GD32E230_Firmware_Library/GD32E230_standard_peripheral/Source/gd32e230_usart.c:916:5
	ldr	r0, [sp]
	.loc	5 916 30 is_stmt 0      @ ../GD32E230_Firmware_Library/GD32E230_standard_peripheral/Source/gd32e230_usart.c:916:30
	ldr	r1, [r0]
	movs	r2, #1
	bics	r1, r2
	str	r1, [r0]
	.loc	5 918 5 is_stmt 1       @ ../GD32E230_Firmware_Library/GD32E230_standard_peripheral/Source/gd32e230_usart.c:918:5
	ldr	r0, [sp]
	.loc	5 918 30 is_stmt 0      @ ../GD32E230_Firmware_Library/GD32E230_standard_peripheral/Source/gd32e230_usart.c:918:30
	ldr	r1, [r0, #8]
	movw	r2, #16384
	bics	r1, r2
	str	r1, [r0, #8]
	.loc	5 919 1 is_stmt 1       @ ../GD32E230_Firmware_Library/GD32E230_standard_peripheral/Source/gd32e230_usart.c:919:1
	add	sp, #4
	bx	lr
.Ltmp117:
.Lfunc_end53:
	.size	usart_rs485_driver_disable, .Lfunc_end53-usart_rs485_driver_disable
	.cfi_endproc
	.cantunwind
	.fnend
                                        @ -- End function
	.section	.text.usart_driver_assertime_config,"ax",%progbits
	.hidden	usart_driver_assertime_config @ -- Begin function usart_driver_assertime_config
	.globl	usart_driver_assertime_config
	.p2align	1
	.type	usart_driver_assertime_config,%function
	.code	16                      @ @usart_driver_assertime_config
	.thumb_func
usart_driver_assertime_config:
.Lfunc_begin54:
	.loc	5 929 0                 @ ../GD32E230_Firmware_Library/GD32E230_standard_peripheral/Source/gd32e230_usart.c:929:0
	.fnstart
	.cfi_startproc
@ %bb.0:
	.pad	#8
	sub	sp, #8
	.cfi_def_cfa_offset 8
	str	r0, [sp, #4]
	str	r1, [sp]
.Ltmp118:
	.loc	5 931 5 prologue_end    @ ../GD32E230_Firmware_Library/GD32E230_standard_peripheral/Source/gd32e230_usart.c:931:5
	ldr	r0, [sp, #4]
	.loc	5 931 30 is_stmt 0      @ ../GD32E230_Firmware_Library/GD32E230_standard_peripheral/Source/gd32e230_usart.c:931:30
	ldr	r1, [r0]
	movs	r2, #1
	bics	r1, r2
	str	r1, [r0]
	.loc	5 933 5 is_stmt 1       @ ../GD32E230_Firmware_Library/GD32E230_standard_peripheral/Source/gd32e230_usart.c:933:5
	ldr	r0, [sp, #4]
	.loc	5 933 30 is_stmt 0      @ ../GD32E230_Firmware_Library/GD32E230_standard_peripheral/Source/gd32e230_usart.c:933:30
	ldr	r1, [r0]
	movs	r2, #31
	lsls	r2, r2, #21
	bics	r1, r2
	str	r1, [r0]
	.loc	5 934 53 is_stmt 1      @ ../GD32E230_Firmware_Library/GD32E230_standard_peripheral/Source/gd32e230_usart.c:934:53
	ldr	r0, [sp]
	.loc	5 934 49 is_stmt 0      @ ../GD32E230_Firmware_Library/GD32E230_standard_peripheral/Source/gd32e230_usart.c:934:49
	lsls	r0, r0, #27
	lsrs	r0, r0, #6
	.loc	5 934 5                 @ ../GD32E230_Firmware_Library/GD32E230_standard_peripheral/Source/gd32e230_usart.c:934:5
	ldr	r1, [sp, #4]
	.loc	5 934 30                @ ../GD32E230_Firmware_Library/GD32E230_standard_peripheral/Source/gd32e230_usart.c:934:30
	ldr	r2, [r1]
	orrs	r2, r0
	str	r2, [r1]
	.loc	5 935 1 is_stmt 1       @ ../GD32E230_Firmware_Library/GD32E230_standard_peripheral/Source/gd32e230_usart.c:935:1
	add	sp, #8
	bx	lr
.Ltmp119:
.Lfunc_end54:
	.size	usart_driver_assertime_config, .Lfunc_end54-usart_driver_assertime_config
	.cfi_endproc
	.cantunwind
	.fnend
                                        @ -- End function
	.section	.text.usart_driver_deassertime_config,"ax",%progbits
	.hidden	usart_driver_deassertime_config @ -- Begin function usart_driver_deassertime_config
	.globl	usart_driver_deassertime_config
	.p2align	1
	.type	usart_driver_deassertime_config,%function
	.code	16                      @ @usart_driver_deassertime_config
	.thumb_func
usart_driver_deassertime_config:
.Lfunc_begin55:
	.loc	5 945 0                 @ ../GD32E230_Firmware_Library/GD32E230_standard_peripheral/Source/gd32e230_usart.c:945:0
	.fnstart
	.cfi_startproc
@ %bb.0:
	.pad	#8
	sub	sp, #8
	.cfi_def_cfa_offset 8
	str	r0, [sp, #4]
	str	r1, [sp]
.Ltmp120:
	.loc	5 947 5 prologue_end    @ ../GD32E230_Firmware_Library/GD32E230_standard_peripheral/Source/gd32e230_usart.c:947:5
	ldr	r0, [sp, #4]
	.loc	5 947 30 is_stmt 0      @ ../GD32E230_Firmware_Library/GD32E230_standard_peripheral/Source/gd32e230_usart.c:947:30
	ldr	r1, [r0]
	movs	r2, #1
	bics	r1, r2
	str	r1, [r0]
	.loc	5 949 5 is_stmt 1       @ ../GD32E230_Firmware_Library/GD32E230_standard_peripheral/Source/gd32e230_usart.c:949:5
	ldr	r0, [sp, #4]
	.loc	5 949 30 is_stmt 0      @ ../GD32E230_Firmware_Library/GD32E230_standard_peripheral/Source/gd32e230_usart.c:949:30
	ldr	r1, [r0]
	movs	r2, #31
	lsls	r2, r2, #16
	bics	r1, r2
	str	r1, [r0]
	.loc	5 950 53 is_stmt 1      @ ../GD32E230_Firmware_Library/GD32E230_standard_peripheral/Source/gd32e230_usart.c:950:53
	ldr	r0, [sp]
	.loc	5 950 49 is_stmt 0      @ ../GD32E230_Firmware_Library/GD32E230_standard_peripheral/Source/gd32e230_usart.c:950:49
	lsls	r0, r0, #27
	lsrs	r0, r0, #11
	.loc	5 950 5                 @ ../GD32E230_Firmware_Library/GD32E230_standard_peripheral/Source/gd32e230_usart.c:950:5
	ldr	r1, [sp, #4]
	.loc	5 950 30                @ ../GD32E230_Firmware_Library/GD32E230_standard_peripheral/Source/gd32e230_usart.c:950:30
	ldr	r2, [r1]
	orrs	r2, r0
	str	r2, [r1]
	.loc	5 951 1 is_stmt 1       @ ../GD32E230_Firmware_Library/GD32E230_standard_peripheral/Source/gd32e230_usart.c:951:1
	add	sp, #8
	bx	lr
.Ltmp121:
.Lfunc_end55:
	.size	usart_driver_deassertime_config, .Lfunc_end55-usart_driver_deassertime_config
	.cfi_endproc
	.cantunwind
	.fnend
                                        @ -- End function
	.section	.text.usart_depolarity_config,"ax",%progbits
	.hidden	usart_depolarity_config @ -- Begin function usart_depolarity_config
	.globl	usart_depolarity_config
	.p2align	1
	.type	usart_depolarity_config,%function
	.code	16                      @ @usart_depolarity_config
	.thumb_func
usart_depolarity_config:
.Lfunc_begin56:
	.loc	5 964 0                 @ ../GD32E230_Firmware_Library/GD32E230_standard_peripheral/Source/gd32e230_usart.c:964:0
	.fnstart
	.cfi_startproc
@ %bb.0:
	.pad	#8
	sub	sp, #8
	.cfi_def_cfa_offset 8
	str	r0, [sp, #4]
	str	r1, [sp]
.Ltmp122:
	.loc	5 966 5 prologue_end    @ ../GD32E230_Firmware_Library/GD32E230_standard_peripheral/Source/gd32e230_usart.c:966:5
	ldr	r0, [sp, #4]
	.loc	5 966 30 is_stmt 0      @ ../GD32E230_Firmware_Library/GD32E230_standard_peripheral/Source/gd32e230_usart.c:966:30
	ldr	r1, [r0]
	movs	r2, #1
	bics	r1, r2
	str	r1, [r0]
	.loc	5 968 5 is_stmt 1       @ ../GD32E230_Firmware_Library/GD32E230_standard_peripheral/Source/gd32e230_usart.c:968:5
	ldr	r0, [sp, #4]
	.loc	5 968 30 is_stmt 0      @ ../GD32E230_Firmware_Library/GD32E230_standard_peripheral/Source/gd32e230_usart.c:968:30
	ldr	r1, [r0, #8]
	movw	r2, #32768
	bics	r1, r2
	str	r1, [r0, #8]
	.loc	5 969 51 is_stmt 1      @ ../GD32E230_Firmware_Library/GD32E230_standard_peripheral/Source/gd32e230_usart.c:969:51
	ldr	r0, [sp]
	.loc	5 969 49 is_stmt 0      @ ../GD32E230_Firmware_Library/GD32E230_standard_peripheral/Source/gd32e230_usart.c:969:49
	ands	r0, r2
	.loc	5 969 5                 @ ../GD32E230_Firmware_Library/GD32E230_standard_peripheral/Source/gd32e230_usart.c:969:5
	ldr	r1, [sp, #4]
	.loc	5 969 30                @ ../GD32E230_Firmware_Library/GD32E230_standard_peripheral/Source/gd32e230_usart.c:969:30
	ldr	r2, [r1, #8]
	orrs	r2, r0
	str	r2, [r1, #8]
	.loc	5 970 1 is_stmt 1       @ ../GD32E230_Firmware_Library/GD32E230_standard_peripheral/Source/gd32e230_usart.c:970:1
	add	sp, #8
	bx	lr
.Ltmp123:
.Lfunc_end56:
	.size	usart_depolarity_config, .Lfunc_end56-usart_depolarity_config
	.cfi_endproc
	.cantunwind
	.fnend
                                        @ -- End function
	.section	.text.usart_dma_receive_config,"ax",%progbits
	.hidden	usart_dma_receive_config @ -- Begin function usart_dma_receive_config
	.globl	usart_dma_receive_config
	.p2align	1
	.type	usart_dma_receive_config,%function
	.code	16                      @ @usart_dma_receive_config
	.thumb_func
usart_dma_receive_config:
.Lfunc_begin57:
	.loc	5 983 0                 @ ../GD32E230_Firmware_Library/GD32E230_standard_peripheral/Source/gd32e230_usart.c:983:0
	.fnstart
	.cfi_startproc
@ %bb.0:
	.pad	#8
	sub	sp, #8
	.cfi_def_cfa_offset 8
	str	r0, [sp, #4]
	str	r1, [sp]
.Ltmp124:
	.loc	5 984 5 prologue_end    @ ../GD32E230_Firmware_Library/GD32E230_standard_peripheral/Source/gd32e230_usart.c:984:5
	ldr	r0, [sp, #4]
	.loc	5 984 30 is_stmt 0      @ ../GD32E230_Firmware_Library/GD32E230_standard_peripheral/Source/gd32e230_usart.c:984:30
	ldr	r1, [r0, #8]
	movs	r2, #64
	bics	r1, r2
	str	r1, [r0, #8]
	.loc	5 986 33 is_stmt 1      @ ../GD32E230_Firmware_Library/GD32E230_standard_peripheral/Source/gd32e230_usart.c:986:33
	ldr	r0, [sp]
	.loc	5 986 5 is_stmt 0       @ ../GD32E230_Firmware_Library/GD32E230_standard_peripheral/Source/gd32e230_usart.c:986:5
	ldr	r1, [sp, #4]
	.loc	5 986 30                @ ../GD32E230_Firmware_Library/GD32E230_standard_peripheral/Source/gd32e230_usart.c:986:30
	ldr	r2, [r1, #8]
	orrs	r2, r0
	str	r2, [r1, #8]
	.loc	5 987 1 is_stmt 1       @ ../GD32E230_Firmware_Library/GD32E230_standard_peripheral/Source/gd32e230_usart.c:987:1
	add	sp, #8
	bx	lr
.Ltmp125:
.Lfunc_end57:
	.size	usart_dma_receive_config, .Lfunc_end57-usart_dma_receive_config
	.cfi_endproc
	.cantunwind
	.fnend
                                        @ -- End function
	.section	.text.usart_dma_transmit_config,"ax",%progbits
	.hidden	usart_dma_transmit_config @ -- Begin function usart_dma_transmit_config
	.globl	usart_dma_transmit_config
	.p2align	1
	.type	usart_dma_transmit_config,%function
	.code	16                      @ @usart_dma_transmit_config
	.thumb_func
usart_dma_transmit_config:
.Lfunc_begin58:
	.loc	5 1000 0                @ ../GD32E230_Firmware_Library/GD32E230_standard_peripheral/Source/gd32e230_usart.c:1000:0
	.fnstart
	.cfi_startproc
@ %bb.0:
	.pad	#8
	sub	sp, #8
	.cfi_def_cfa_offset 8
	str	r0, [sp, #4]
	str	r1, [sp]
.Ltmp126:
	.loc	5 1001 5 prologue_end   @ ../GD32E230_Firmware_Library/GD32E230_standard_peripheral/Source/gd32e230_usart.c:1001:5
	ldr	r0, [sp, #4]
	.loc	5 1001 30 is_stmt 0     @ ../GD32E230_Firmware_Library/GD32E230_standard_peripheral/Source/gd32e230_usart.c:1001:30
	ldr	r1, [r0, #8]
	movs	r2, #128
	bics	r1, r2
	str	r1, [r0, #8]
	.loc	5 1003 33 is_stmt 1     @ ../GD32E230_Firmware_Library/GD32E230_standard_peripheral/Source/gd32e230_usart.c:1003:33
	ldr	r0, [sp]
	.loc	5 1003 5 is_stmt 0      @ ../GD32E230_Firmware_Library/GD32E230_standard_peripheral/Source/gd32e230_usart.c:1003:5
	ldr	r1, [sp, #4]
	.loc	5 1003 30               @ ../GD32E230_Firmware_Library/GD32E230_standard_peripheral/Source/gd32e230_usart.c:1003:30
	ldr	r2, [r1, #8]
	orrs	r2, r0
	str	r2, [r1, #8]
	.loc	5 1004 1 is_stmt 1      @ ../GD32E230_Firmware_Library/GD32E230_standard_peripheral/Source/gd32e230_usart.c:1004:1
	add	sp, #8
	bx	lr
.Ltmp127:
.Lfunc_end58:
	.size	usart_dma_transmit_config, .Lfunc_end58-usart_dma_transmit_config
	.cfi_endproc
	.cantunwind
	.fnend
                                        @ -- End function
	.section	.text.usart_reception_error_dma_disable,"ax",%progbits
	.hidden	usart_reception_error_dma_disable @ -- Begin function usart_reception_error_dma_disable
	.globl	usart_reception_error_dma_disable
	.p2align	1
	.type	usart_reception_error_dma_disable,%function
	.code	16                      @ @usart_reception_error_dma_disable
	.thumb_func
usart_reception_error_dma_disable:
.Lfunc_begin59:
	.loc	5 1013 0                @ ../GD32E230_Firmware_Library/GD32E230_standard_peripheral/Source/gd32e230_usart.c:1013:0
	.fnstart
	.cfi_startproc
@ %bb.0:
	.pad	#4
	sub	sp, #4
	.cfi_def_cfa_offset 4
	str	r0, [sp]
.Ltmp128:
	.loc	5 1015 5 prologue_end   @ ../GD32E230_Firmware_Library/GD32E230_standard_peripheral/Source/gd32e230_usart.c:1015:5
	ldr	r0, [sp]
	.loc	5 1015 30 is_stmt 0     @ ../GD32E230_Firmware_Library/GD32E230_standard_peripheral/Source/gd32e230_usart.c:1015:30
	ldr	r1, [r0]
	movs	r2, #1
	bics	r1, r2
	str	r1, [r0]
	.loc	5 1017 5 is_stmt 1      @ ../GD32E230_Firmware_Library/GD32E230_standard_peripheral/Source/gd32e230_usart.c:1017:5
	ldr	r0, [sp]
	.loc	5 1017 30 is_stmt 0     @ ../GD32E230_Firmware_Library/GD32E230_standard_peripheral/Source/gd32e230_usart.c:1017:30
	ldr	r1, [r0, #8]
	movw	r2, #8192
	orrs	r1, r2
	str	r1, [r0, #8]
	.loc	5 1018 1 is_stmt 1      @ ../GD32E230_Firmware_Library/GD32E230_standard_peripheral/Source/gd32e230_usart.c:1018:1
	add	sp, #4
	bx	lr
.Ltmp129:
.Lfunc_end59:
	.size	usart_reception_error_dma_disable, .Lfunc_end59-usart_reception_error_dma_disable
	.cfi_endproc
	.cantunwind
	.fnend
                                        @ -- End function
	.section	.text.usart_reception_error_dma_enable,"ax",%progbits
	.hidden	usart_reception_error_dma_enable @ -- Begin function usart_reception_error_dma_enable
	.globl	usart_reception_error_dma_enable
	.p2align	1
	.type	usart_reception_error_dma_enable,%function
	.code	16                      @ @usart_reception_error_dma_enable
	.thumb_func
usart_reception_error_dma_enable:
.Lfunc_begin60:
	.loc	5 1027 0                @ ../GD32E230_Firmware_Library/GD32E230_standard_peripheral/Source/gd32e230_usart.c:1027:0
	.fnstart
	.cfi_startproc
@ %bb.0:
	.pad	#4
	sub	sp, #4
	.cfi_def_cfa_offset 4
	str	r0, [sp]
.Ltmp130:
	.loc	5 1029 5 prologue_end   @ ../GD32E230_Firmware_Library/GD32E230_standard_peripheral/Source/gd32e230_usart.c:1029:5
	ldr	r0, [sp]
	.loc	5 1029 30 is_stmt 0     @ ../GD32E230_Firmware_Library/GD32E230_standard_peripheral/Source/gd32e230_usart.c:1029:30
	ldr	r1, [r0]
	movs	r2, #1
	bics	r1, r2
	str	r1, [r0]
	.loc	5 1031 5 is_stmt 1      @ ../GD32E230_Firmware_Library/GD32E230_standard_peripheral/Source/gd32e230_usart.c:1031:5
	ldr	r0, [sp]
	.loc	5 1031 30 is_stmt 0     @ ../GD32E230_Firmware_Library/GD32E230_standard_peripheral/Source/gd32e230_usart.c:1031:30
	ldr	r1, [r0, #8]
	movw	r2, #8192
	bics	r1, r2
	str	r1, [r0, #8]
	.loc	5 1032 1 is_stmt 1      @ ../GD32E230_Firmware_Library/GD32E230_standard_peripheral/Source/gd32e230_usart.c:1032:1
	add	sp, #4
	bx	lr
.Ltmp131:
.Lfunc_end60:
	.size	usart_reception_error_dma_enable, .Lfunc_end60-usart_reception_error_dma_enable
	.cfi_endproc
	.cantunwind
	.fnend
                                        @ -- End function
	.section	.text.usart_wakeup_enable,"ax",%progbits
	.hidden	usart_wakeup_enable     @ -- Begin function usart_wakeup_enable
	.globl	usart_wakeup_enable
	.p2align	1
	.type	usart_wakeup_enable,%function
	.code	16                      @ @usart_wakeup_enable
	.thumb_func
usart_wakeup_enable:
.Lfunc_begin61:
	.loc	5 1041 0                @ ../GD32E230_Firmware_Library/GD32E230_standard_peripheral/Source/gd32e230_usart.c:1041:0
	.fnstart
	.cfi_startproc
@ %bb.0:
	.pad	#4
	sub	sp, #4
	.cfi_def_cfa_offset 4
	str	r0, [sp]
.Ltmp132:
	.loc	5 1042 5 prologue_end   @ ../GD32E230_Firmware_Library/GD32E230_standard_peripheral/Source/gd32e230_usart.c:1042:5
	ldr	r0, [sp]
	.loc	5 1042 30 is_stmt 0     @ ../GD32E230_Firmware_Library/GD32E230_standard_peripheral/Source/gd32e230_usart.c:1042:30
	ldr	r1, [r0]
	movs	r2, #2
	orrs	r1, r2
	str	r1, [r0]
	.loc	5 1043 1 is_stmt 1      @ ../GD32E230_Firmware_Library/GD32E230_standard_peripheral/Source/gd32e230_usart.c:1043:1
	add	sp, #4
	bx	lr
.Ltmp133:
.Lfunc_end61:
	.size	usart_wakeup_enable, .Lfunc_end61-usart_wakeup_enable
	.cfi_endproc
	.cantunwind
	.fnend
                                        @ -- End function
	.section	.text.usart_wakeup_disable,"ax",%progbits
	.hidden	usart_wakeup_disable    @ -- Begin function usart_wakeup_disable
	.globl	usart_wakeup_disable
	.p2align	1
	.type	usart_wakeup_disable,%function
	.code	16                      @ @usart_wakeup_disable
	.thumb_func
usart_wakeup_disable:
.Lfunc_begin62:
	.loc	5 1052 0                @ ../GD32E230_Firmware_Library/GD32E230_standard_peripheral/Source/gd32e230_usart.c:1052:0
	.fnstart
	.cfi_startproc
@ %bb.0:
	.pad	#4
	sub	sp, #4
	.cfi_def_cfa_offset 4
	str	r0, [sp]
.Ltmp134:
	.loc	5 1053 5 prologue_end   @ ../GD32E230_Firmware_Library/GD32E230_standard_peripheral/Source/gd32e230_usart.c:1053:5
	ldr	r0, [sp]
	.loc	5 1053 30 is_stmt 0     @ ../GD32E230_Firmware_Library/GD32E230_standard_peripheral/Source/gd32e230_usart.c:1053:30
	ldr	r1, [r0]
	movs	r2, #2
	bics	r1, r2
	str	r1, [r0]
	.loc	5 1054 1 is_stmt 1      @ ../GD32E230_Firmware_Library/GD32E230_standard_peripheral/Source/gd32e230_usart.c:1054:1
	add	sp, #4
	bx	lr
.Ltmp135:
.Lfunc_end62:
	.size	usart_wakeup_disable, .Lfunc_end62-usart_wakeup_disable
	.cfi_endproc
	.cantunwind
	.fnend
                                        @ -- End function
	.section	.text.usart_wakeup_mode_config,"ax",%progbits
	.hidden	usart_wakeup_mode_config @ -- Begin function usart_wakeup_mode_config
	.globl	usart_wakeup_mode_config
	.p2align	1
	.type	usart_wakeup_mode_config,%function
	.code	16                      @ @usart_wakeup_mode_config
	.thumb_func
usart_wakeup_mode_config:
.Lfunc_begin63:
	.loc	5 1068 0                @ ../GD32E230_Firmware_Library/GD32E230_standard_peripheral/Source/gd32e230_usart.c:1068:0
	.fnstart
	.cfi_startproc
@ %bb.0:
	.pad	#8
	sub	sp, #8
	.cfi_def_cfa_offset 8
	str	r0, [sp, #4]
	str	r1, [sp]
.Ltmp136:
	.loc	5 1070 5 prologue_end   @ ../GD32E230_Firmware_Library/GD32E230_standard_peripheral/Source/gd32e230_usart.c:1070:5
	ldr	r0, [sp, #4]
	.loc	5 1070 30 is_stmt 0     @ ../GD32E230_Firmware_Library/GD32E230_standard_peripheral/Source/gd32e230_usart.c:1070:30
	ldr	r1, [r0]
	movs	r2, #1
	bics	r1, r2
	str	r1, [r0]
	.loc	5 1072 5 is_stmt 1      @ ../GD32E230_Firmware_Library/GD32E230_standard_peripheral/Source/gd32e230_usart.c:1072:5
	ldr	r0, [sp, #4]
	.loc	5 1072 30 is_stmt 0     @ ../GD32E230_Firmware_Library/GD32E230_standard_peripheral/Source/gd32e230_usart.c:1072:30
	ldr	r1, [r0, #8]
	movs	r2, #3
	lsls	r2, r2, #20
	bics	r1, r2
	str	r1, [r0, #8]
	.loc	5 1073 51 is_stmt 1     @ ../GD32E230_Firmware_Library/GD32E230_standard_peripheral/Source/gd32e230_usart.c:1073:51
	ldr	r0, [sp]
	.loc	5 1073 48 is_stmt 0     @ ../GD32E230_Firmware_Library/GD32E230_standard_peripheral/Source/gd32e230_usart.c:1073:48
	ands	r0, r2
	.loc	5 1073 5                @ ../GD32E230_Firmware_Library/GD32E230_standard_peripheral/Source/gd32e230_usart.c:1073:5
	ldr	r1, [sp, #4]
	.loc	5 1073 30               @ ../GD32E230_Firmware_Library/GD32E230_standard_peripheral/Source/gd32e230_usart.c:1073:30
	ldr	r2, [r1, #8]
	orrs	r2, r0
	str	r2, [r1, #8]
	.loc	5 1074 1 is_stmt 1      @ ../GD32E230_Firmware_Library/GD32E230_standard_peripheral/Source/gd32e230_usart.c:1074:1
	add	sp, #8
	bx	lr
.Ltmp137:
.Lfunc_end63:
	.size	usart_wakeup_mode_config, .Lfunc_end63-usart_wakeup_mode_config
	.cfi_endproc
	.cantunwind
	.fnend
                                        @ -- End function
	.section	.text.usart_receive_fifo_enable,"ax",%progbits
	.hidden	usart_receive_fifo_enable @ -- Begin function usart_receive_fifo_enable
	.globl	usart_receive_fifo_enable
	.p2align	1
	.type	usart_receive_fifo_enable,%function
	.code	16                      @ @usart_receive_fifo_enable
	.thumb_func
usart_receive_fifo_enable:
.Lfunc_begin64:
	.loc	5 1083 0                @ ../GD32E230_Firmware_Library/GD32E230_standard_peripheral/Source/gd32e230_usart.c:1083:0
	.fnstart
	.cfi_startproc
@ %bb.0:
	.pad	#4
	sub	sp, #4
	.cfi_def_cfa_offset 4
	str	r0, [sp]
.Ltmp138:
	.loc	5 1084 5 prologue_end   @ ../GD32E230_Firmware_Library/GD32E230_standard_peripheral/Source/gd32e230_usart.c:1084:5
	ldr	r0, [sp]
	movs	r1, #208
	.loc	5 1084 30 is_stmt 0     @ ../GD32E230_Firmware_Library/GD32E230_standard_peripheral/Source/gd32e230_usart.c:1084:30
	ldr	r2, [r0, r1]
	movw	r3, #256
	orrs	r2, r3
	str	r2, [r0, r1]
	.loc	5 1085 1 is_stmt 1      @ ../GD32E230_Firmware_Library/GD32E230_standard_peripheral/Source/gd32e230_usart.c:1085:1
	add	sp, #4
	bx	lr
.Ltmp139:
.Lfunc_end64:
	.size	usart_receive_fifo_enable, .Lfunc_end64-usart_receive_fifo_enable
	.cfi_endproc
	.cantunwind
	.fnend
                                        @ -- End function
	.section	.text.usart_receive_fifo_disable,"ax",%progbits
	.hidden	usart_receive_fifo_disable @ -- Begin function usart_receive_fifo_disable
	.globl	usart_receive_fifo_disable
	.p2align	1
	.type	usart_receive_fifo_disable,%function
	.code	16                      @ @usart_receive_fifo_disable
	.thumb_func
usart_receive_fifo_disable:
.Lfunc_begin65:
	.loc	5 1094 0                @ ../GD32E230_Firmware_Library/GD32E230_standard_peripheral/Source/gd32e230_usart.c:1094:0
	.fnstart
	.cfi_startproc
@ %bb.0:
	.pad	#4
	sub	sp, #4
	.cfi_def_cfa_offset 4
	str	r0, [sp]
.Ltmp140:
	.loc	5 1095 5 prologue_end   @ ../GD32E230_Firmware_Library/GD32E230_standard_peripheral/Source/gd32e230_usart.c:1095:5
	ldr	r0, [sp]
	movs	r1, #208
	.loc	5 1095 30 is_stmt 0     @ ../GD32E230_Firmware_Library/GD32E230_standard_peripheral/Source/gd32e230_usart.c:1095:30
	ldr	r2, [r0, r1]
	movw	r3, #256
	bics	r2, r3
	str	r2, [r0, r1]
	.loc	5 1096 1 is_stmt 1      @ ../GD32E230_Firmware_Library/GD32E230_standard_peripheral/Source/gd32e230_usart.c:1096:1
	add	sp, #4
	bx	lr
.Ltmp141:
.Lfunc_end65:
	.size	usart_receive_fifo_disable, .Lfunc_end65-usart_receive_fifo_disable
	.cfi_endproc
	.cantunwind
	.fnend
                                        @ -- End function
	.section	.text.usart_receive_fifo_counter_number,"ax",%progbits
	.hidden	usart_receive_fifo_counter_number @ -- Begin function usart_receive_fifo_counter_number
	.globl	usart_receive_fifo_counter_number
	.p2align	1
	.type	usart_receive_fifo_counter_number,%function
	.code	16                      @ @usart_receive_fifo_counter_number
	.thumb_func
usart_receive_fifo_counter_number:
.Lfunc_begin66:
	.loc	5 1105 0                @ ../GD32E230_Firmware_Library/GD32E230_standard_peripheral/Source/gd32e230_usart.c:1105:0
	.fnstart
	.cfi_startproc
@ %bb.0:
	.pad	#4
	sub	sp, #4
	.cfi_def_cfa_offset 4
	str	r0, [sp]
.Ltmp142:
	.loc	5 1106 22 prologue_end  @ ../GD32E230_Firmware_Library/GD32E230_standard_peripheral/Source/gd32e230_usart.c:1106:22
	ldr	r0, [sp]
	movs	r1, #208
	ldr	r0, [r0, r1]
	movw	r1, #28672
	ands	r0, r1
	lsrs	r0, r0, #12
	.loc	5 1106 5 is_stmt 0      @ ../GD32E230_Firmware_Library/GD32E230_standard_peripheral/Source/gd32e230_usart.c:1106:5
	add	sp, #4
	bx	lr
.Ltmp143:
.Lfunc_end66:
	.size	usart_receive_fifo_counter_number, .Lfunc_end66-usart_receive_fifo_counter_number
	.cfi_endproc
	.cantunwind
	.fnend
                                        @ -- End function
	.section	.text.usart_flag_get,"ax",%progbits
	.hidden	usart_flag_get          @ -- Begin function usart_flag_get
	.globl	usart_flag_get
	.p2align	1
	.type	usart_flag_get,%function
	.code	16                      @ @usart_flag_get
	.thumb_func
usart_flag_get:
.Lfunc_begin67:
	.loc	5 1144 0 is_stmt 1      @ ../GD32E230_Firmware_Library/GD32E230_standard_peripheral/Source/gd32e230_usart.c:1144:0
	.fnstart
	.cfi_startproc
@ %bb.0:
	.pad	#12
	sub	sp, #12
	.cfi_def_cfa_offset 12
	mov	r2, r1
	str	r0, [sp, #4]
	mov	r0, sp
	strh	r1, [r0]
.Ltmp144:
	.loc	5 1145 18 prologue_end  @ ../GD32E230_Firmware_Library/GD32E230_standard_peripheral/Source/gd32e230_usart.c:1145:18
	ldr	r1, [sp, #4]
	ldrh	r3, [r0]
	lsrs	r3, r3, #6
	ldr	r1, [r1, r3]
	.loc	5 1145 54 is_stmt 0     @ ../GD32E230_Firmware_Library/GD32E230_standard_peripheral/Source/gd32e230_usart.c:1145:54
	ldrh	r0, [r0]
	movs	r3, #31
	ands	r0, r3
.Ltmp145:
	.loc	5 1145 8                @ ../GD32E230_Firmware_Library/GD32E230_standard_peripheral/Source/gd32e230_usart.c:1145:8
	lsrs	r1, r0
	lsls	r0, r1, #31
	cmp	r0, #0
	beq	.LBB67_2
	b	.LBB67_1
.LBB67_1:
	.loc	5 0 8                   @ ../GD32E230_Firmware_Library/GD32E230_standard_peripheral/Source/gd32e230_usart.c:0:8
	add	r0, sp, #8
	movs	r1, #1
.Ltmp146:
	.loc	5 1146 9 is_stmt 1      @ ../GD32E230_Firmware_Library/GD32E230_standard_peripheral/Source/gd32e230_usart.c:1146:9
	strb	r1, [r0]
	b	.LBB67_3
.Ltmp147:
.LBB67_2:
	.loc	5 0 9 is_stmt 0         @ ../GD32E230_Firmware_Library/GD32E230_standard_peripheral/Source/gd32e230_usart.c:0:9
	add	r0, sp, #8
	movs	r1, #0
.Ltmp148:
	.loc	5 1148 9 is_stmt 1      @ ../GD32E230_Firmware_Library/GD32E230_standard_peripheral/Source/gd32e230_usart.c:1148:9
	strb	r1, [r0]
	b	.LBB67_3
.Ltmp149:
.LBB67_3:
	.loc	5 0 9 is_stmt 0         @ ../GD32E230_Firmware_Library/GD32E230_standard_peripheral/Source/gd32e230_usart.c:0:9
	add	r0, sp, #8
	.loc	5 1150 1 is_stmt 1      @ ../GD32E230_Firmware_Library/GD32E230_standard_peripheral/Source/gd32e230_usart.c:1150:1
	ldrb	r0, [r0]
	add	sp, #12
	bx	lr
.Ltmp150:
.Lfunc_end67:
	.size	usart_flag_get, .Lfunc_end67-usart_flag_get
	.cfi_endproc
	.cantunwind
	.fnend
                                        @ -- End function
	.section	.text.usart_flag_clear,"ax",%progbits
	.hidden	usart_flag_clear        @ -- Begin function usart_flag_clear
	.globl	usart_flag_clear
	.p2align	1
	.type	usart_flag_clear,%function
	.code	16                      @ @usart_flag_clear
	.thumb_func
usart_flag_clear:
.Lfunc_begin68:
	.loc	5 1174 0                @ ../GD32E230_Firmware_Library/GD32E230_standard_peripheral/Source/gd32e230_usart.c:1174:0
	.fnstart
	.cfi_startproc
@ %bb.0:
	.pad	#8
	sub	sp, #8
	.cfi_def_cfa_offset 8
	mov	r2, r1
	str	r0, [sp, #4]
	mov	r0, sp
	strh	r1, [r0]
.Ltmp151:
	.loc	5 1175 33 prologue_end  @ ../GD32E230_Firmware_Library/GD32E230_standard_peripheral/Source/gd32e230_usart.c:1175:33
	ldrh	r0, [r0]
	movs	r1, #31
	ands	r0, r1
	movs	r1, #1
	lsls	r1, r0
	.loc	5 1175 5 is_stmt 0      @ ../GD32E230_Firmware_Library/GD32E230_standard_peripheral/Source/gd32e230_usart.c:1175:5
	ldr	r0, [sp, #4]
	.loc	5 1175 30               @ ../GD32E230_Firmware_Library/GD32E230_standard_peripheral/Source/gd32e230_usart.c:1175:30
	ldr	r3, [r0, #32]
	orrs	r3, r1
	str	r3, [r0, #32]
	.loc	5 1176 1 is_stmt 1      @ ../GD32E230_Firmware_Library/GD32E230_standard_peripheral/Source/gd32e230_usart.c:1176:1
	add	sp, #8
	bx	lr
.Ltmp152:
.Lfunc_end68:
	.size	usart_flag_clear, .Lfunc_end68-usart_flag_clear
	.cfi_endproc
	.cantunwind
	.fnend
                                        @ -- End function
	.section	.text.usart_interrupt_enable,"ax",%progbits
	.hidden	usart_interrupt_enable  @ -- Begin function usart_interrupt_enable
	.globl	usart_interrupt_enable
	.p2align	1
	.type	usart_interrupt_enable,%function
	.code	16                      @ @usart_interrupt_enable
	.thumb_func
usart_interrupt_enable:
.Lfunc_begin69:
	.loc	5 1201 0                @ ../GD32E230_Firmware_Library/GD32E230_standard_peripheral/Source/gd32e230_usart.c:1201:0
	.fnstart
	.cfi_startproc
@ %bb.0:
	.save	{r4, lr}
	push	{r4, lr}
	.cfi_def_cfa_offset 8
	.cfi_offset lr, -4
	.cfi_offset r4, -8
	.pad	#8
	sub	sp, #8
	.cfi_def_cfa_offset 16
	mov	r2, r1
	str	r0, [sp, #4]
	mov	r0, sp
	strh	r1, [r0]
.Ltmp153:
	.loc	5 1202 45 prologue_end  @ ../GD32E230_Firmware_Library/GD32E230_standard_peripheral/Source/gd32e230_usart.c:1202:45
	ldrh	r0, [r0]
	movs	r1, #31
	mov	r3, r0
	ands	r3, r1
	movs	r1, #1
	lsls	r1, r3
	.loc	5 1202 5 is_stmt 0      @ ../GD32E230_Firmware_Library/GD32E230_standard_peripheral/Source/gd32e230_usart.c:1202:5
	ldr	r3, [sp, #4]
	lsrs	r0, r0, #6
	.loc	5 1202 42               @ ../GD32E230_Firmware_Library/GD32E230_standard_peripheral/Source/gd32e230_usart.c:1202:42
	ldr	r4, [r3, r0]
	orrs	r4, r1
	str	r4, [r3, r0]
	.loc	5 1203 1 is_stmt 1      @ ../GD32E230_Firmware_Library/GD32E230_standard_peripheral/Source/gd32e230_usart.c:1203:1
	add	sp, #8
	pop	{r4, pc}
.Ltmp154:
.Lfunc_end69:
	.size	usart_interrupt_enable, .Lfunc_end69-usart_interrupt_enable
	.cfi_endproc
	.cantunwind
	.fnend
                                        @ -- End function
	.section	.text.usart_interrupt_disable,"ax",%progbits
	.hidden	usart_interrupt_disable @ -- Begin function usart_interrupt_disable
	.globl	usart_interrupt_disable
	.p2align	1
	.type	usart_interrupt_disable,%function
	.code	16                      @ @usart_interrupt_disable
	.thumb_func
usart_interrupt_disable:
.Lfunc_begin70:
	.loc	5 1228 0                @ ../GD32E230_Firmware_Library/GD32E230_standard_peripheral/Source/gd32e230_usart.c:1228:0
	.fnstart
	.cfi_startproc
@ %bb.0:
	.save	{r4, lr}
	push	{r4, lr}
	.cfi_def_cfa_offset 8
	.cfi_offset lr, -4
	.cfi_offset r4, -8
	.pad	#8
	sub	sp, #8
	.cfi_def_cfa_offset 16
	mov	r2, r1
	str	r0, [sp, #4]
	mov	r0, sp
	strh	r1, [r0]
.Ltmp155:
	.loc	5 1229 46 prologue_end  @ ../GD32E230_Firmware_Library/GD32E230_standard_peripheral/Source/gd32e230_usart.c:1229:46
	ldrh	r0, [r0]
	movs	r1, #31
	mov	r3, r0
	ands	r3, r1
	movs	r1, #1
	lsls	r1, r3
	.loc	5 1229 5 is_stmt 0      @ ../GD32E230_Firmware_Library/GD32E230_standard_peripheral/Source/gd32e230_usart.c:1229:5
	ldr	r3, [sp, #4]
	lsrs	r0, r0, #6
	.loc	5 1229 42               @ ../GD32E230_Firmware_Library/GD32E230_standard_peripheral/Source/gd32e230_usart.c:1229:42
	ldr	r4, [r3, r0]
	bics	r4, r1
	str	r4, [r3, r0]
	.loc	5 1230 1 is_stmt 1      @ ../GD32E230_Firmware_Library/GD32E230_standard_peripheral/Source/gd32e230_usart.c:1230:1
	add	sp, #8
	pop	{r4, pc}
.Ltmp156:
.Lfunc_end70:
	.size	usart_interrupt_disable, .Lfunc_end70-usart_interrupt_disable
	.cfi_endproc
	.cantunwind
	.fnend
                                        @ -- End function
	.section	.text.usart_command_enable,"ax",%progbits
	.hidden	usart_command_enable    @ -- Begin function usart_command_enable
	.globl	usart_command_enable
	.p2align	1
	.type	usart_command_enable,%function
	.code	16                      @ @usart_command_enable
	.thumb_func
usart_command_enable:
.Lfunc_begin71:
	.loc	5 1246 0                @ ../GD32E230_Firmware_Library/GD32E230_standard_peripheral/Source/gd32e230_usart.c:1246:0
	.fnstart
	.cfi_startproc
@ %bb.0:
	.pad	#8
	sub	sp, #8
	.cfi_def_cfa_offset 8
	str	r0, [sp, #4]
	str	r1, [sp]
.Ltmp157:
	.loc	5 1247 33 prologue_end  @ ../GD32E230_Firmware_Library/GD32E230_standard_peripheral/Source/gd32e230_usart.c:1247:33
	ldr	r0, [sp]
	.loc	5 1247 5 is_stmt 0      @ ../GD32E230_Firmware_Library/GD32E230_standard_peripheral/Source/gd32e230_usart.c:1247:5
	ldr	r1, [sp, #4]
	.loc	5 1247 29               @ ../GD32E230_Firmware_Library/GD32E230_standard_peripheral/Source/gd32e230_usart.c:1247:29
	ldr	r2, [r1, #24]
	orrs	r2, r0
	str	r2, [r1, #24]
	.loc	5 1248 1 is_stmt 1      @ ../GD32E230_Firmware_Library/GD32E230_standard_peripheral/Source/gd32e230_usart.c:1248:1
	add	sp, #8
	bx	lr
.Ltmp158:
.Lfunc_end71:
	.size	usart_command_enable, .Lfunc_end71-usart_command_enable
	.cfi_endproc
	.cantunwind
	.fnend
                                        @ -- End function
	.section	.text.usart_interrupt_flag_get,"ax",%progbits
	.hidden	usart_interrupt_flag_get @ -- Begin function usart_interrupt_flag_get
	.globl	usart_interrupt_flag_get
	.p2align	1
	.type	usart_interrupt_flag_get,%function
	.code	16                      @ @usart_interrupt_flag_get
	.thumb_func
usart_interrupt_flag_get:
.Lfunc_begin72:
	.loc	5 1275 0                @ ../GD32E230_Firmware_Library/GD32E230_standard_peripheral/Source/gd32e230_usart.c:1275:0
	.fnstart
	.cfi_startproc
@ %bb.0:
	.save	{r4, lr}
	push	{r4, lr}
	.cfi_def_cfa_offset 8
	.cfi_offset lr, -4
	.cfi_offset r4, -8
	.pad	#20
	sub	sp, #20
	.cfi_def_cfa_offset 28
	str	r0, [sp, #12]
	str	r1, [sp, #8]
	movs	r0, #0
.Ltmp159:
	.loc	5 1276 14 prologue_end  @ ../GD32E230_Firmware_Library/GD32E230_standard_peripheral/Source/gd32e230_usart.c:1276:14
	str	r0, [sp, #4]
	.loc	5 1276 30 is_stmt 0     @ ../GD32E230_Firmware_Library/GD32E230_standard_peripheral/Source/gd32e230_usart.c:1276:30
	str	r0, [sp]
	.loc	5 1278 18 is_stmt 1     @ ../GD32E230_Firmware_Library/GD32E230_standard_peripheral/Source/gd32e230_usart.c:1278:18
	ldr	r0, [sp, #12]
	add	r1, sp, #8
	ldrh	r1, [r1]
	lsrs	r1, r1, #6
	ldr	r0, [r0, r1]
	.loc	5 1278 58 is_stmt 0     @ ../GD32E230_Firmware_Library/GD32E230_standard_peripheral/Source/gd32e230_usart.c:1278:58
	ldr	r1, [sp, #8]
	movs	r2, #31
	ands	r1, r2
	movs	r3, #1
	mov	r4, r3
	lsls	r4, r1
	.loc	5 1278 56               @ ../GD32E230_Firmware_Library/GD32E230_standard_peripheral/Source/gd32e230_usart.c:1278:56
	ands	r0, r4
	.loc	5 1278 15               @ ../GD32E230_Firmware_Library/GD32E230_standard_peripheral/Source/gd32e230_usart.c:1278:15
	str	r0, [sp, #4]
	.loc	5 1280 19 is_stmt 1     @ ../GD32E230_Firmware_Library/GD32E230_standard_peripheral/Source/gd32e230_usart.c:1280:19
	ldr	r0, [sp, #12]
	ldr	r1, [sp, #8]
	lsrs	r1, r1, #22
	ldr	r0, [r0, r1]
	.loc	5 1280 60 is_stmt 0     @ ../GD32E230_Firmware_Library/GD32E230_standard_peripheral/Source/gd32e230_usart.c:1280:60
	ldr	r1, [sp, #8]
	lsls	r2, r2, #16
	ands	r1, r2
	lsrs	r1, r1, #16
	lsls	r3, r1
	.loc	5 1280 58               @ ../GD32E230_Firmware_Library/GD32E230_standard_peripheral/Source/gd32e230_usart.c:1280:58
	ands	r0, r3
	.loc	5 1280 16               @ ../GD32E230_Firmware_Library/GD32E230_standard_peripheral/Source/gd32e230_usart.c:1280:16
	str	r0, [sp]
.Ltmp160:
	.loc	5 1282 8 is_stmt 1      @ ../GD32E230_Firmware_Library/GD32E230_standard_peripheral/Source/gd32e230_usart.c:1282:8
	ldr	r0, [sp]
	.loc	5 1282 19 is_stmt 0     @ ../GD32E230_Firmware_Library/GD32E230_standard_peripheral/Source/gd32e230_usart.c:1282:19
	cmp	r0, #0
	beq	.LBB72_3
	b	.LBB72_1
.LBB72_1:
	.loc	5 1282 22               @ ../GD32E230_Firmware_Library/GD32E230_standard_peripheral/Source/gd32e230_usart.c:1282:22
	ldr	r0, [sp, #4]
.Ltmp161:
	.loc	5 1282 8                @ ../GD32E230_Firmware_Library/GD32E230_standard_peripheral/Source/gd32e230_usart.c:1282:8
	cmp	r0, #0
	beq	.LBB72_3
	b	.LBB72_2
.LBB72_2:
	.loc	5 0 8                   @ ../GD32E230_Firmware_Library/GD32E230_standard_peripheral/Source/gd32e230_usart.c:0:8
	add	r0, sp, #16
	movs	r1, #1
.Ltmp162:
	.loc	5 1283 9 is_stmt 1      @ ../GD32E230_Firmware_Library/GD32E230_standard_peripheral/Source/gd32e230_usart.c:1283:9
	strb	r1, [r0]
	b	.LBB72_4
.Ltmp163:
.LBB72_3:
	.loc	5 0 9 is_stmt 0         @ ../GD32E230_Firmware_Library/GD32E230_standard_peripheral/Source/gd32e230_usart.c:0:9
	add	r0, sp, #16
	movs	r1, #0
.Ltmp164:
	.loc	5 1285 9 is_stmt 1      @ ../GD32E230_Firmware_Library/GD32E230_standard_peripheral/Source/gd32e230_usart.c:1285:9
	strb	r1, [r0]
	b	.LBB72_4
.Ltmp165:
.LBB72_4:
	.loc	5 0 9 is_stmt 0         @ ../GD32E230_Firmware_Library/GD32E230_standard_peripheral/Source/gd32e230_usart.c:0:9
	add	r0, sp, #16
	.loc	5 1287 1 is_stmt 1      @ ../GD32E230_Firmware_Library/GD32E230_standard_peripheral/Source/gd32e230_usart.c:1287:1
	ldrb	r0, [r0]
	add	sp, #20
	pop	{r4, pc}
.Ltmp166:
.Lfunc_end72:
	.size	usart_interrupt_flag_get, .Lfunc_end72-usart_interrupt_flag_get
	.cfi_endproc
	.cantunwind
	.fnend
                                        @ -- End function
	.section	.text.usart_interrupt_flag_clear,"ax",%progbits
	.hidden	usart_interrupt_flag_clear @ -- Begin function usart_interrupt_flag_clear
	.globl	usart_interrupt_flag_clear
	.p2align	2
	.type	usart_interrupt_flag_clear,%function
	.code	16                      @ @usart_interrupt_flag_clear
	.thumb_func
usart_interrupt_flag_clear:
.Lfunc_begin73:
	.loc	5 1312 0                @ ../GD32E230_Firmware_Library/GD32E230_standard_peripheral/Source/gd32e230_usart.c:1312:0
	.fnstart
	.cfi_startproc
@ %bb.0:
	.pad	#8
	sub	sp, #8
	.cfi_def_cfa_offset 8
	str	r0, [sp, #4]
	str	r1, [sp]
.Ltmp167:
	.loc	5 1313 30 prologue_end  @ ../GD32E230_Firmware_Library/GD32E230_standard_peripheral/Source/gd32e230_usart.c:1313:30
	ldr	r0, [sp]
	ldr	r1, __arm_cp.73_0
.Ltmp168:
	.loc	5 1313 8 is_stmt 0      @ ../GD32E230_Firmware_Library/GD32E230_standard_peripheral/Source/gd32e230_usart.c:1313:8
	cmp	r0, r1
	bne	.LBB73_2
	b	.LBB73_1
.LBB73_1:
.Ltmp169:
	.loc	5 1314 9 is_stmt 1      @ ../GD32E230_Firmware_Library/GD32E230_standard_peripheral/Source/gd32e230_usart.c:1314:9
	ldr	r0, [sp, #4]
	movs	r1, #208
	.loc	5 1314 34 is_stmt 0     @ ../GD32E230_Firmware_Library/GD32E230_standard_peripheral/Source/gd32e230_usart.c:1314:34
	ldr	r2, [r0, r1]
	movw	r3, #32768
	bics	r2, r3
	str	r2, [r0, r1]
	.loc	5 1315 5 is_stmt 1      @ ../GD32E230_Firmware_Library/GD32E230_standard_peripheral/Source/gd32e230_usart.c:1315:5
	b	.LBB73_3
.Ltmp170:
.LBB73_2:
	.loc	5 1316 37               @ ../GD32E230_Firmware_Library/GD32E230_standard_peripheral/Source/gd32e230_usart.c:1316:37
	ldr	r0, [sp]
	movs	r1, #31
	lsls	r1, r1, #16
	ands	r0, r1
	lsrs	r0, r0, #16
	movs	r1, #1
	lsls	r1, r0
	.loc	5 1316 9 is_stmt 0      @ ../GD32E230_Firmware_Library/GD32E230_standard_peripheral/Source/gd32e230_usart.c:1316:9
	ldr	r0, [sp, #4]
	.loc	5 1316 34               @ ../GD32E230_Firmware_Library/GD32E230_standard_peripheral/Source/gd32e230_usart.c:1316:34
	ldr	r2, [r0, #32]
	orrs	r2, r1
	str	r2, [r0, #32]
	b	.LBB73_3
.Ltmp171:
.LBB73_3:
	.loc	5 1318 1 is_stmt 1      @ ../GD32E230_Firmware_Library/GD32E230_standard_peripheral/Source/gd32e230_usart.c:1318:1
	add	sp, #8
	bx	lr
.Ltmp172:
	.p2align	2
@ %bb.4:
	.loc	5 0 1 is_stmt 0         @ ../GD32E230_Firmware_Library/GD32E230_standard_peripheral/Source/gd32e230_usart.c:0:1
__arm_cp.73_0:
	.long	873411593               @ 0x340f3409
.Lcpi_end9:
	.size	__arm_cp.73_0, .Lcpi_end9-__arm_cp.73_0
.Lfunc_end73:
	.size	usart_interrupt_flag_clear, .Lfunc_end73-usart_interrupt_flag_clear
	.cfi_endproc
	.cantunwind
	.fnend
                                        @ -- End function
	.section	".note.GNU-stack","",%progbits
	.eabi_attribute	30, 6	@ Tag_ABI_optimization_goals
	.ARM_attribute	16, 1	@ Tag_AV_eba