	.text
	.syntax unified
	.eabi_attribute	67, "2.09"	@ Tag_conformance
	.cpu	cortex-m23
	.eabi_attribute	6, 16	@ Tag_CPU_arch
	.eabi_attribute	7, 77	@ Tag_CPU_arch_profile
	.eabi_attribute	8, 0	@ Tag_ARM_ISA_use
	.eabi_attribute	9, 3	@ Tag_THUMB_ISA_use
	.eabi_attribute	34, 0	@ Tag_CPU_unaligned_access
	.eabi_attribute	17, 1	@ Tag_ABI_PCS_GOT_use
	.eabi_attribute	20, 2	@ Tag_ABI_FP_denormal
	.eabi_attribute	21, 0	@ Tag_ABI_FP_exceptions
	.eabi_attribute	23, 1	@ Tag_ABI_FP_number_model
	.eabi_attribute	24, 1	@ Tag_ABI_align_needed
	.eabi_attribute	25, 1	@ Tag_ABI_align_preserved
	.eabi_attribute	38, 1	@ Tag_ABI_FP_16bit_format
	.eabi_attribute	18, 2	@ Tag_ABI_PCS_wchar_t
	.eabi_attribute	26, 1	@ Tag_ABI_enum_size
	.eabi_attribute	14, 0	@ Tag_ABI_PCS_R9_use
	.file	"gd32e230_dbg.c"
	.file	1 "E:\\Soway\\Soway_product-soft\\105 - T119-GD\\E230 -  ds18b20-F8\\MDK-ARM" "../GD32E230_Firmware_Library/GD32E230_standard_peripheral/Include\\gd32e230_dbg.h"
	.file	2 "D:\\Keil_v5\\ARM\\ARMCLANG\\Bin\\..\\include" "stdint.h"
	.section	.text.dbg_deinit,"ax",%progbits
	.hidden	dbg_deinit              @ -- Begin function dbg_deinit
	.globl	dbg_deinit
	.p2align	2
	.type	dbg_deinit,%function
	.code	16                      @ @dbg_deinit
	.thumb_func
dbg_deinit:
.Lfunc_begin0:
	.file	3 "E:\\Soway\\Soway_product-soft\\105 - T119-GD\\E230 -  ds18b20-F8\\MDK-ARM" "../GD32E230_Firmware_Library/GD32E230_standard_peripheral/Source/gd32e230_dbg.c"
	.loc	3 48 0                  @ ../GD32E230_Firmware_Library/GD32E230_standard_peripheral/Source/gd32e230_dbg.c:48:0
	.fnstart
	.cfi_sections .debug_frame
	.cfi_startproc
@ %bb.0:
	ldr	r0, __arm_cp.0_0
	movs	r1, #0
.Ltmp0:
	.loc	3 49 14 prologue_end    @ ../GD32E230_Firmware_Library/GD32E230_standard_peripheral/Source/gd32e230_dbg.c:49:14
	str	r1, [r0]
	ldr	r0, __arm_cp.0_1
	.loc	3 50 14                 @ ../GD32E230_Firmware_Library/GD32E230_standard_peripheral/Source/gd32e230_dbg.c:50:14
	str	r1, [r0]
	.loc	3 51 1                  @ ../GD32E230_Firmware_Library/GD32E230_standard_peripheral/Source/gd32e230_dbg.c:51:1
	bx	lr
.Ltmp1:
	.p2align	2
@ %bb.1:
	.loc	3 0 1 is_stmt 0         @ ../GD32E230_Firmware_Library/GD32E230_standard_peripheral/Source/gd32e230_dbg.c:0:1
__arm_cp.0_0:
	.long	1073829892              @ 0x40015804
.Lcpi_end0:
	.size	__arm_cp.0_0, .Lcpi_end0-__arm_cp.0_0
__arm_cp.0_1:
	.long	1073829896              @ 0x40015808
.Lcpi_end1:
	.size	__arm_cp.0_1, .Lcpi_end1-__arm_cp.0_1
.Lfunc_end0:
	.size	dbg_deinit, .Lfunc_end0-dbg_deinit
	.cfi_endproc
	.cantunwind
	.fnend
                                        @ -- End function
	.section	.text.dbg_id_get,"ax",%progbits
	.hidden	dbg_id_get              @ -- Begin function dbg_id_get
	.globl	dbg_id_get
	.p2align	2
	.type	dbg_id_get,%function
	.code	16                      @ @dbg_id_get
	.thumb_func
dbg_id_get:
.Lfunc_begin1:
	.loc	3 60 0 is_stmt 1        @ ../GD32E230_Firmware_Library/GD32E230_standard_peripheral/Source/gd32e230_dbg.c:60:0
	.fnstart
	.cfi_startproc
@ %bb.0:
	ldr	r0, __arm_cp.1_0
.Ltmp2:
	.loc	3 61 12 prologue_end    @ ../GD32E230_Firmware_Library/GD32E230_standard_peripheral/Source/gd32e230_dbg.c:61:12
	ldr	r0, [r0]
	.loc	3 61 5 is_stmt 0        @ ../GD32E230_Firmware_Library/GD32E230_standard_peripheral/Source/gd32e230_dbg.c:61:5
	bx	lr
.Ltmp3:
	.p2align	2
@ %bb.1:
	.loc	3 0 5                   @ ../GD32E230_Firmware_Library/GD32E230_standard_peripheral/Source/gd32e230_dbg.c:0:5
__arm_cp.1_0:
	.long	1073829888              @ 0x40015800
.Lcpi_end2:
	.size	__arm_cp.1_0, .Lcpi_end2-__arm_cp.1_0
.Lfunc_end1:
	.size	dbg_id_get, .Lfunc_end1-dbg_id_get
	.cfi_endproc
	.cantunwind
	.fnend
                                        @ -- End function
	.section	.text.dbg_low_power_enable,"ax",%progbits
	.hidden	dbg_low_power_enable    @ -- Begin function dbg_low_power_enable
	.globl	dbg_low_power_enable
	.p2align	2
	.type	dbg_low_power_enable,%function
	.code	16                      @ @dbg_low_power_enable
	.thumb_func
dbg_low_power_enable:
.Lfunc_begin2:
	.loc	3 75 0 is_stmt 1        @ ../GD32E230_Firmware_Library/GD32E230_standard_peripheral/Source/gd32e230_dbg.c:75:0
	.fnstart
	.cfi_startproc
@ %bb.0:
	.pad	#4
	sub	sp, #4
	.cfi_def_cfa_offset 4
	str	r0, [sp]
.Ltmp4:
	.loc	3 76 17 prologue_end    @ ../GD32E230_Firmware_Library/GD32E230_standard_peripheral/Source/gd32e230_dbg.c:76:17
	ldr	r0, [sp]
	ldr	r1, __arm_cp.2_0
	.loc	3 76 14 is_stmt 0       @ ../GD32E230_Firmware_Library/GD32E230_standard_peripheral/Source/gd32e230_dbg.c:76:14
	ldr	r2, [r1]
	orrs	r2, r0
	str	r2, [r1]
	.loc	3 77 1 is_stmt 1        @ ../GD32E230_Firmware_Library/GD32E230_standard_peripheral/Source/gd32e230_dbg.c:77:1
	add	sp, #4
	bx	lr
.Ltmp5:
	.p2align	2
@ %bb.1:
	.loc	3 0 1 is_stmt 0         @ ../GD32E230_Firmware_Library/GD32E230_standard_peripheral/Source/gd32e230_dbg.c:0:1
__arm_cp.2_0:
	.long	1073829892              @ 0x40015804
.Lcpi_end3:
	.size	__arm_cp.2_0, .Lcpi_end3-__arm_cp.2_0
.Lfunc_end2:
	.size	dbg_low_power_enable, .Lfunc_end2-dbg_low_power_enable
	.cfi_endproc
	.cantunwind
	.fnend
                                        @ -- End function
	.section	.text.dbg_low_power_disable,"ax",%progbits
	.hidden	dbg_low_power_disable   @ -- Begin function dbg_low_power_disable
	.globl	dbg_low_power_disable
	.p2align	2
	.type	dbg_low_power_disable,%function
	.code	16                      @ @dbg_low_power_disable
	.thumb_func
dbg_low_power_disable:
.Lfunc_begin3:
	.loc	3 90 0 is_stmt 1        @ ../GD32E230_Firmware_Library/GD32E230_standard_peripheral/Source/gd32e230_dbg.c:90:0
	.fnstart
	.cfi_startproc
@ %bb.0:
	.pad	#4
	sub	sp, #4
	.cfi_def_cfa_offset 4
	str	r0, [sp]
.Ltmp6:
	.loc	3 91 18 prologue_end    @ ../GD32E230_Firmware_Library/GD32E230_standard_peripheral/Source/gd32e230_dbg.c:91:18
	ldr	r0, [sp]
	ldr	r1, __arm_cp.3_0
	.loc	3 91 14 is_stmt 0       @ ../GD32E230_Firmware_Library/GD32E230_standard_peripheral/Source/gd32e230_dbg.c:91:14
	ldr	r2, [r1]
	bics	r2, r0
	str	r2, [r1]
	.loc	3 92 1 is_stmt 1        @ ../GD32E230_Firmware_Library/GD32E230_standard_peripheral/Source/gd32e230_dbg.c:92:1
	add	sp, #4
	bx	lr
.Ltmp7:
	.p2align	2
@ %bb.1:
	.loc	3 0 1 is_stmt 0         @ ../GD32E230_Firmware_Library/GD32E230_standard_peripheral/Source/gd32e230_dbg.c:0:1
__arm_cp.3_0:
	.long	1073829892              @ 0x40015804
.Lcpi_end4:
	.size	__arm_cp.3_0, .Lcpi_end4-__arm_cp.3_0
.Lfunc_end3:
	.size	dbg_low_power_disable, .Lfunc_end3-dbg_low_power_disable
	.cfi_endproc
	.cantunwind
	.fnend
                                        @ -- End function
	.section	.text.dbg_periph_enable,"ax",%progbits
	.hidden	dbg_periph_enable       @ -- Begin function dbg_periph_enable
	.globl	dbg_periph_enable
	.p2align	2
	.type	dbg_periph_enable,%function
	.code	16                      @ @dbg_periph_enable
	.thumb_func
dbg_periph_enable:
.Lfunc_begin4:
	.loc	3 114 0 is_stmt 1       @ ../GD32E230_Firmware_Library/GD32E230_standard_peripheral/Source/gd32e230_dbg.c:114:0
	.fnstart
	.cfi_startproc
@ %bb.0:
	.save	{r4, lr}
	push	{r4, lr}
	.cfi_def_cfa_offset 8
	.cfi_offset lr, -4
	.cfi_offset r4, -8
	.pad	#4
	sub	sp, #4
	.cfi_def_cfa_offset 12
	mov	r1, r0
	mov	r2, sp
	strh	r0, [r2]
.Ltmp8:
	.loc	3 115 32 prologue_end   @ ../GD32E230_Firmware_Library/GD32E230_standard_peripheral/Source/gd32e230_dbg.c:115:32
	ldrh	r0, [r2]
	movs	r2, #31
	mov	r3, r0
	ands	r3, r2
	movs	r2, #1
	lsls	r2, r3
	.loc	3 115 5 is_stmt 0       @ ../GD32E230_Firmware_Library/GD32E230_standard_peripheral/Source/gd32e230_dbg.c:115:5
	lsrs	r0, r0, #6
	ldr	r3, __arm_cp.4_0
	.loc	3 115 29                @ ../GD32E230_Firmware_Library/GD32E230_standard_peripheral/Source/gd32e230_dbg.c:115:29
	ldr	r4, [r0, r3]
	orrs	r4, r2
	str	r4, [r0, r3]
	.loc	3 116 1 is_stmt 1       @ ../GD32E230_Firmware_Library/GD32E230_standard_peripheral/Source/gd32e230_dbg.c:116:1
	add	sp, #4
	pop	{r4, pc}
.Ltmp9:
	.p2align	2
@ %bb.1:
	.loc	3 0 1 is_stmt 0         @ ../GD32E230_Firmware_Library/GD32E230_standard_peripheral/Source/gd32e230_dbg.c:0:1
__arm_cp.4_0:
	.long	1073829888              @ 0x40015800
.Lcpi_end5:
	.size	__arm_cp.4_0, .Lcpi_end5-__arm_cp.4_0
.Lfunc_end4:
	.size	dbg_periph_enable, .Lfunc_end4-dbg_periph_enable
	.cfi_endproc
	.cantunwind
	.fnend
                                        @ -- End function
	.section	.text.dbg_periph_disable,"ax",%progbits
	.hidden	dbg_periph_disable      @ -- Begin function dbg_periph_disable
	.globl	dbg_periph_disable
	.p2align	2
	.type	dbg_periph_disable,%function
	.code	16                      @ @dbg_periph_disable
	.thumb_func
dbg_periph_disable:
.Lfunc_begin5:
	.loc	3 138 0 is_stmt 1       @ ../GD32E230_Firmware_Library/GD32E230_standard_peripheral/Source/gd32e230_dbg.c:138:0
	.fnstart
	.cfi_startproc
@ %bb.0:
	.save	{r4, lr}
	push	{r4, lr}
	.cfi_def_cfa_offset 8
	.cfi_offset lr, -4
	.cfi_offset r4, -8
	.pad	#4
	sub	sp, #4
	.cfi_def_cfa_offset 12
	mov	r1, r0
	mov	r2, sp
	strh	r0, [r2]
.Ltmp10:
	.loc	3 139 33 prologue_end   @ ../GD32E230_Firmware_Library/GD32E230_standard_peripheral/Source/gd32e230_dbg.c:139:33
	ldrh	r0, [r2]
	movs	r2, #31
	mov	r3, r0
	ands	r3, r2
	movs	r2, #1
	lsls	r2, r3
	.loc	3 139 5 is_stmt 0       @ ../GD32E230_Firmware_Library/GD32E230_standard_peripheral/Source/gd32e230_dbg.c:139:5
	lsrs	r0, r0, #6
	ldr	r3, __arm_cp.5_0
	.loc	3 139 29                @ ../GD32E230_Firmware_Library/GD32E230_standard_peripheral/Source/gd32e230_dbg.c:139:29
	ldr	r4, [r0, r3]
	bics	r4, r2
	str	r4, [r0, r3]
	.loc	3 140 1 is_stmt 1       @ ../GD32E230_Firmware_Library/GD32E230_standard_peripheral/Source/gd32e230_dbg.c:140:1
	add	sp, #4
	pop	{r4, pc}
.Ltmp11:
	.p2align	2
@ %bb.1:
	.loc	3 0 1 is_stmt 0         @ ../GD32E230_Firmware_Library/GD32E230_standard_peripheral/Source/gd32e230_dbg.c:0:1
__arm_cp.5_0:
	.long	1073829888              @ 0x40015800
.Lcpi_end6:
	.size	__arm_cp.5_0, .Lcpi_end6-__arm_cp.5_0
.Lfunc_end5:
	.size	dbg_periph_disable, .Lfunc_end5-dbg_periph_disable
	.cfi_endproc
	.cantunwind
	.fnend
                                        @ -- End function
	.section	".note.GNU-stack","",%progbits
	.eabi_attribute	30, 6	@ Tag_ABI_optimization_goals
	.ARM_attribute	16, 1	@ Tag_AV_eba