	.text
	.syntax unified
	.eabi_attribute	67, "2.09"	@ Tag_conformance
	.cpu	cortex-m23
	.eabi_attribute	6, 16	@ Tag_CPU_arch
	.eabi_attribute	7, 77	@ Tag_CPU_arch_profile
	.eabi_attribute	8, 0	@ Tag_ARM_ISA_use
	.eabi_attribute	9, 3	@ Tag_THUMB_ISA_use
	.eabi_attribute	34, 0	@ Tag_CPU_unaligned_access
	.eabi_attribute	17, 1	@ Tag_ABI_PCS_GOT_use
	.eabi_attribute	20, 2	@ Tag_ABI_FP_denormal
	.eabi_attribute	21, 0	@ Tag_ABI_FP_exceptions
	.eabi_attribute	23, 1	@ Tag_ABI_FP_number_model
	.eabi_attribute	24, 1	@ Tag_ABI_align_needed
	.eabi_attribute	25, 1	@ Tag_ABI_align_preserved
	.eabi_attribute	38, 1	@ Tag_ABI_FP_16bit_format
	.eabi_attribute	18, 2	@ Tag_ABI_PCS_wchar_t
	.eabi_attribute	26, 1	@ Tag_ABI_enum_size
	.eabi_attribute	14, 0	@ Tag_ABI_PCS_R9_use
	.file	"gd32e230_spi.c"
	.file	1 "E:\\Soway\\Soway_product-soft\\105 - T119-GD\\E230 -  ds18b20-F8\\MDK-ARM" "../GD32E230_Firmware_Library/GD32E230_standard_peripheral/Include\\gd32e230_rcu.h"
	.file	2 "E:\\Soway\\Soway_product-soft\\105 - T119-GD\\E230 -  ds18b20-F8\\MDK-ARM" "../GD32E230_Firmware_Library/CMSIS/GD/GD32E230/Include\\gd32e230.h"
	.file	3 "D:\\Keil_v5\\ARM\\ARMCLANG\\Bin\\..\\include" "stdint.h"
	.section	.text.spi_i2s_deinit,"ax",%progbits
	.hidden	spi_i2s_deinit          @ -- Begin function spi_i2s_deinit
	.globl	spi_i2s_deinit
	.p2align	2
	.type	spi_i2s_deinit,%function
	.code	16                      @ @spi_i2s_deinit
	.thumb_func
spi_i2s_deinit:
.Lfunc_begin0:
	.file	4 "E:\\Soway\\Soway_product-soft\\105 - T119-GD\\E230 -  ds18b20-F8\\MDK-ARM" "../GD32E230_Firmware_Library/GD32E230_standard_peripheral/Source/gd32e230_spi.c"
	.loc	4 60 0                  @ ../GD32E230_Firmware_Library/GD32E230_standard_peripheral/Source/gd32e230_spi.c:60:0
	.fnstart
	.cfi_sections .debug_frame
	.cfi_startproc
@ %bb.0:
	.save	{r7, lr}
	push	{r7, lr}
	.cfi_def_cfa_offset 8
	.cfi_offset lr, -4
	.cfi_offset r7, -8
	.pad	#16
	sub	sp, #16
	.cfi_def_cfa_offset 24
	str	r0, [sp, #12]
.Ltmp0:
	.loc	4 61 12 prologue_end    @ ../GD32E230_Firmware_Library/GD32E230_standard_peripheral/Source/gd32e230_spi.c:61:12
	ldr	r0, [sp, #12]
	ldr	r1, __arm_cp.0_0
	.loc	4 61 5 is_stmt 0        @ ../GD32E230_Firmware_Library/GD32E230_standard_peripheral/Source/gd32e230_spi.c:61:5
	cmp	r0, r1
	str	r0, [sp, #8]            @ 4-byte Spill
	beq	.LBB0_3
	b	.LBB0_1
.LBB0_1:
	.loc	4 0 5                   @ ../GD32E230_Firmware_Library/GD32E230_standard_peripheral/Source/gd32e230_spi.c:0:5
	ldr	r0, __arm_cp.0_1
	.loc	4 61 5                  @ ../GD32E230_Firmware_Library/GD32E230_standard_peripheral/Source/gd32e230_spi.c:61:5
	ldr	r1, [sp, #8]            @ 4-byte Reload
	cmp	r1, r0
	bne	.LBB0_4
	b	.LBB0_2
.LBB0_2:
	.loc	4 0 5                   @ ../GD32E230_Firmware_Library/GD32E230_standard_peripheral/Source/gd32e230_spi.c:0:5
	movw	r0, #780
.Ltmp1:
	.loc	4 64 9 is_stmt 1        @ ../GD32E230_Firmware_Library/GD32E230_standard_peripheral/Source/gd32e230_spi.c:64:9
	str	r0, [sp, #4]            @ 4-byte Spill
	bl	rcu_periph_reset_enable
	.loc	4 65 9                  @ ../GD32E230_Firmware_Library/GD32E230_standard_peripheral/Source/gd32e230_spi.c:65:9
	ldr	r0, [sp, #4]            @ 4-byte Reload
	bl	rcu_periph_reset_disable
	.loc	4 66 9                  @ ../GD32E230_Firmware_Library/GD32E230_standard_peripheral/Source/gd32e230_spi.c:66:9
	b	.LBB0_5
.LBB0_3:
	.loc	4 0 9 is_stmt 0         @ ../GD32E230_Firmware_Library/GD32E230_standard_peripheral/Source/gd32e230_spi.c:0:9
	ldr	r0, __arm_cp.0_2
	.loc	4 69 9 is_stmt 1        @ ../GD32E230_Firmware_Library/GD32E230_standard_peripheral/Source/gd32e230_spi.c:69:9
	str	r0, [sp]                @ 4-byte Spill
	bl	rcu_periph_reset_enable
	.loc	4 70 9                  @ ../GD32E230_Firmware_Library/GD32E230_standard_peripheral/Source/gd32e230_spi.c:70:9
	ldr	r0, [sp]                @ 4-byte Reload
	bl	rcu_periph_reset_disable
	.loc	4 71 9                  @ ../GD32E230_Firmware_Library/GD32E230_standard_peripheral/Source/gd32e230_spi.c:71:9
	b	.LBB0_5
.LBB0_4:
	.loc	4 73 9                  @ ../GD32E230_Firmware_Library/GD32E230_standard_peripheral/Source/gd32e230_spi.c:73:9
	b	.LBB0_5
.Ltmp2:
.LBB0_5:
	.loc	4 75 1                  @ ../GD32E230_Firmware_Library/GD32E230_standard_peripheral/Source/gd32e230_spi.c:75:1
	add	sp, #16
	pop	{r7, pc}
.Ltmp3:
	.p2align	2
@ %bb.6:
	.loc	4 0 1 is_stmt 0         @ ../GD32E230_Firmware_Library/GD32E230_standard_peripheral/Source/gd32e230_spi.c:0:1
__arm_cp.0_0:
	.long	1073756160              @ 0x40003800
.Lcpi_end0:
	.size	__arm_cp.0_0, .Lcpi_end0-__arm_cp.0_0
__arm_cp.0_1:
	.long	1073819648              @ 0x40013000
.Lcpi_end1:
	.size	__arm_cp.0_1, .Lcpi_end1-__arm_cp.0_1
__arm_cp.0_2:
	.long	1038                    @ 0x40e
.Lcpi_end2:
	.size	__arm_cp.0_2, .Lcpi_end2-__arm_cp.0_2
.Lfunc_end0:
	.size	spi_i2s_deinit, .Lfunc_end0-spi_i2s_deinit
	.cfi_endproc
	.cantunwind
	.fnend
                                        @ -- End function
	.section	.text.spi_struct_para_init,"ax",%progbits
	.hidden	spi_struct_para_init    @ -- Begin function spi_struct_para_init
	.globl	spi_struct_para_init
	.p2align	1
	.type	spi_struct_para_init,%function
	.code	16                      @ @spi_struct_para_init
	.thumb_func
spi_struct_para_init:
.Lfunc_begin1:
	.loc	4 84 0 is_stmt 1        @ ../GD32E230_Firmware_Library/GD32E230_standard_peripheral/Source/gd32e230_spi.c:84:0
	.fnstart
	.cfi_startproc
@ %bb.0:
	.pad	#4
	sub	sp, #4
	.cfi_def_cfa_offset 4
	str	r0, [sp]
.Ltmp4:
	.loc	4 86 5 prologue_end     @ ../GD32E230_Firmware_Library/GD32E230_standard_peripheral/Source/gd32e230_spi.c:86:5
	ldr	r0, [sp]
	movs	r1, #0
	.loc	4 86 29 is_stmt 0       @ ../GD32E230_Firmware_Library/GD32E230_standard_peripheral/Source/gd32e230_spi.c:86:29
	str	r1, [r0]
	.loc	4 87 5 is_stmt 1        @ ../GD32E230_Firmware_Library/GD32E230_standard_peripheral/Source/gd32e230_spi.c:87:5
	ldr	r0, [sp]
	.loc	4 87 28 is_stmt 0       @ ../GD32E230_Firmware_Library/GD32E230_standard_peripheral/Source/gd32e230_spi.c:87:28
	str	r1, [r0, #4]
	.loc	4 88 5 is_stmt 1        @ ../GD32E230_Firmware_Library/GD32E230_standard_peripheral/Source/gd32e230_spi.c:88:5
	ldr	r0, [sp]
	movw	r2, #1792
	.loc	4 88 28 is_stmt 0       @ ../GD32E230_Firmware_Library/GD32E230_standard_peripheral/Source/gd32e230_spi.c:88:28
	str	r2, [r0, #8]
	.loc	4 89 5 is_stmt 1        @ ../GD32E230_Firmware_Library/GD32E230_standard_peripheral/Source/gd32e230_spi.c:89:5
	ldr	r0, [sp]
	.loc	4 89 21 is_stmt 0       @ ../GD32E230_Firmware_Library/GD32E230_standard_peripheral/Source/gd32e230_spi.c:89:21
	str	r1, [r0, #12]
	.loc	4 90 5 is_stmt 1        @ ../GD32E230_Firmware_Library/GD32E230_standard_peripheral/Source/gd32e230_spi.c:90:5
	ldr	r0, [sp]
	.loc	4 90 38 is_stmt 0       @ ../GD32E230_Firmware_Library/GD32E230_standard_peripheral/Source/gd32e230_spi.c:90:38
	str	r1, [r0, #20]
	.loc	4 91 5 is_stmt 1        @ ../GD32E230_Firmware_Library/GD32E230_standard_peripheral/Source/gd32e230_spi.c:91:5
	ldr	r0, [sp]
	.loc	4 91 26 is_stmt 0       @ ../GD32E230_Firmware_Library/GD32E230_standard_peripheral/Source/gd32e230_spi.c:91:26
	str	r1, [r0, #24]
	.loc	4 92 1 is_stmt 1        @ ../GD32E230_Firmware_Library/GD32E230_standard_peripheral/Source/gd32e230_spi.c:92:1
	add	sp, #4
	bx	lr
.Ltmp5:
.Lfunc_end1:
	.size	spi_struct_para_init, .Lfunc_end1-spi_struct_para_init
	.cfi_endproc
	.cantunwind
	.fnend
                                        @ -- End function
	.section	.text.spi_init,"ax",%progbits
	.hidden	spi_init                @ -- Begin function spi_init
	.globl	spi_init
	.p2align	2
	.type	spi_init,%function
	.code	16                      @ @spi_init
	.thumb_func
spi_init:
.Lfunc_begin2:
	.loc	4 118 0                 @ ../GD32E230_Firmware_Library/GD32E230_standard_peripheral/Source/gd32e230_spi.c:118:0
	.fnstart
	.cfi_startproc
@ %bb.0:
	.pad	#24
	sub	sp, #24
	.cfi_def_cfa_offset 24
	str	r0, [sp, #16]
	str	r1, [sp, #12]
	movs	r0, #0
.Ltmp6:
	.loc	4 119 26 prologue_end   @ ../GD32E230_Firmware_Library/GD32E230_standard_peripheral/Source/gd32e230_spi.c:119:26
	str	r0, [sp]
	.loc	4 121 12                @ ../GD32E230_Firmware_Library/GD32E230_standard_peripheral/Source/gd32e230_spi.c:121:12
	ldr	r0, [sp, #16]
	ldr	r0, [r0]
	.loc	4 121 10 is_stmt 0      @ ../GD32E230_Firmware_Library/GD32E230_standard_peripheral/Source/gd32e230_spi.c:121:10
	str	r0, [sp, #8]
	.loc	4 122 10 is_stmt 1      @ ../GD32E230_Firmware_Library/GD32E230_standard_peripheral/Source/gd32e230_spi.c:122:10
	ldr	r0, [sp, #8]
	movw	r1, #12352
	ands	r0, r1
	str	r0, [sp, #8]
	.loc	4 124 12                @ ../GD32E230_Firmware_Library/GD32E230_standard_peripheral/Source/gd32e230_spi.c:124:12
	ldr	r0, [sp, #16]
	ldr	r0, [r0]
	.loc	4 124 10 is_stmt 0      @ ../GD32E230_Firmware_Library/GD32E230_standard_peripheral/Source/gd32e230_spi.c:124:10
	str	r0, [sp, #4]
	.loc	4 125 10 is_stmt 1      @ ../GD32E230_Firmware_Library/GD32E230_standard_peripheral/Source/gd32e230_spi.c:125:10
	ldr	r0, [sp, #4]
	movw	r1, #14400
	ands	r0, r1
	str	r0, [sp, #4]
	.loc	4 127 12                @ ../GD32E230_Firmware_Library/GD32E230_standard_peripheral/Source/gd32e230_spi.c:127:12
	ldr	r0, [sp, #16]
	ldr	r0, [r0, #4]
	.loc	4 127 10 is_stmt 0      @ ../GD32E230_Firmware_Library/GD32E230_standard_peripheral/Source/gd32e230_spi.c:127:10
	str	r0, [sp]
	.loc	4 128 10 is_stmt 1      @ ../GD32E230_Firmware_Library/GD32E230_standard_peripheral/Source/gd32e230_spi.c:128:10
	ldr	r0, [sp]
	ldr	r1, __arm_cp.2_0
	ands	r0, r1
	str	r0, [sp]
.Ltmp7:
	.loc	4 130 17                @ ../GD32E230_Firmware_Library/GD32E230_standard_peripheral/Source/gd32e230_spi.c:130:17
	ldr	r0, [sp, #16]
	ldr	r1, __arm_cp.2_1
.Ltmp8:
	.loc	4 130 9 is_stmt 0       @ ../GD32E230_Firmware_Library/GD32E230_standard_peripheral/Source/gd32e230_spi.c:130:9
	cmp	r0, r1
	bne	.LBB2_6
	b	.LBB2_1
.LBB2_1:
.Ltmp9:
	.loc	4 132 17 is_stmt 1      @ ../GD32E230_Firmware_Library/GD32E230_standard_peripheral/Source/gd32e230_spi.c:132:17
	ldr	r0, [sp, #12]
	.loc	4 132 29 is_stmt 0      @ ../GD32E230_Firmware_Library/GD32E230_standard_peripheral/Source/gd32e230_spi.c:132:29
	ldr	r0, [r0]
	.loc	4 132 14                @ ../GD32E230_Firmware_Library/GD32E230_standard_peripheral/Source/gd32e230_spi.c:132:14
	ldr	r1, [sp, #8]
	orrs	r1, r0
	str	r1, [sp, #8]
	.loc	4 134 17 is_stmt 1      @ ../GD32E230_Firmware_Library/GD32E230_standard_peripheral/Source/gd32e230_spi.c:134:17
	ldr	r0, [sp, #12]
	.loc	4 134 29 is_stmt 0      @ ../GD32E230_Firmware_Library/GD32E230_standard_peripheral/Source/gd32e230_spi.c:134:29
	ldr	r0, [r0, #4]
	.loc	4 134 14                @ ../GD32E230_Firmware_Library/GD32E230_standard_peripheral/Source/gd32e230_spi.c:134:14
	ldr	r1, [sp, #8]
	orrs	r1, r0
	str	r1, [sp, #8]
	.loc	4 136 17 is_stmt 1      @ ../GD32E230_Firmware_Library/GD32E230_standard_peripheral/Source/gd32e230_spi.c:136:17
	ldr	r0, [sp, #12]
	.loc	4 136 29 is_stmt 0      @ ../GD32E230_Firmware_Library/GD32E230_standard_peripheral/Source/gd32e230_spi.c:136:29
	ldr	r0, [r0, #12]
	.loc	4 136 14                @ ../GD32E230_Firmware_Library/GD32E230_standard_peripheral/Source/gd32e230_spi.c:136:14
	ldr	r1, [sp, #8]
	orrs	r1, r0
	str	r1, [sp, #8]
	.loc	4 138 17 is_stmt 1      @ ../GD32E230_Firmware_Library/GD32E230_standard_peripheral/Source/gd32e230_spi.c:138:17
	ldr	r0, [sp, #12]
	.loc	4 138 29 is_stmt 0      @ ../GD32E230_Firmware_Library/GD32E230_standard_peripheral/Source/gd32e230_spi.c:138:29
	ldr	r0, [r0, #16]
	.loc	4 138 14                @ ../GD32E230_Firmware_Library/GD32E230_standard_peripheral/Source/gd32e230_spi.c:138:14
	ldr	r1, [sp, #8]
	orrs	r1, r0
	str	r1, [sp, #8]
	.loc	4 140 17 is_stmt 1      @ ../GD32E230_Firmware_Library/GD32E230_standard_peripheral/Source/gd32e230_spi.c:140:17
	ldr	r0, [sp, #12]
	.loc	4 140 29 is_stmt 0      @ ../GD32E230_Firmware_Library/GD32E230_standard_peripheral/Source/gd32e230_spi.c:140:29
	ldr	r0, [r0, #20]
	.loc	4 140 14                @ ../GD32E230_Firmware_Library/GD32E230_standard_peripheral/Source/gd32e230_spi.c:140:14
	ldr	r1, [sp, #8]
	orrs	r1, r0
	str	r1, [sp, #8]
	.loc	4 142 17 is_stmt 1      @ ../GD32E230_Firmware_Library/GD32E230_standard_peripheral/Source/gd32e230_spi.c:142:17
	ldr	r0, [sp, #12]
	.loc	4 142 29 is_stmt 0      @ ../GD32E230_Firmware_Library/GD32E230_standard_peripheral/Source/gd32e230_spi.c:142:29
	ldr	r0, [r0, #24]
	.loc	4 142 14                @ ../GD32E230_Firmware_Library/GD32E230_standard_peripheral/Source/gd32e230_spi.c:142:14
	ldr	r1, [sp, #8]
	orrs	r1, r0
	str	r1, [sp, #8]
.Ltmp10:
	.loc	4 145 35 is_stmt 1      @ ../GD32E230_Firmware_Library/GD32E230_standard_peripheral/Source/gd32e230_spi.c:145:35
	ldr	r0, [sp, #12]
	.loc	4 145 47 is_stmt 0      @ ../GD32E230_Firmware_Library/GD32E230_standard_peripheral/Source/gd32e230_spi.c:145:47
	ldr	r0, [r0, #8]
	movw	r1, #1792
	.loc	4 145 59                @ ../GD32E230_Firmware_Library/GD32E230_standard_peripheral/Source/gd32e230_spi.c:145:59
	cmp	r0, r1
	beq	.LBB2_4
	b	.LBB2_2
.LBB2_2:
	.loc	4 145 86                @ ../GD32E230_Firmware_Library/GD32E230_standard_peripheral/Source/gd32e230_spi.c:145:86
	ldr	r0, [sp, #12]
	.loc	4 145 98                @ ../GD32E230_Firmware_Library/GD32E230_standard_peripheral/Source/gd32e230_spi.c:145:98
	ldr	r0, [r0, #8]
	movw	r1, #3840
.Ltmp11:
	.loc	4 145 12                @ ../GD32E230_Firmware_Library/GD32E230_standard_peripheral/Source/gd32e230_spi.c:145:12
	cmp	r0, r1
	beq	.LBB2_4
	b	.LBB2_3
.LBB2_3:
	.loc	4 0 12                  @ ../GD32E230_Firmware_Library/GD32E230_standard_peripheral/Source/gd32e230_spi.c:0:12
	add	r0, sp, #20
	movs	r1, #0
.Ltmp12:
	.loc	4 147 13 is_stmt 1      @ ../GD32E230_Firmware_Library/GD32E230_standard_peripheral/Source/gd32e230_spi.c:147:13
	strb	r1, [r0]
	b	.LBB2_8
.Ltmp13:
.LBB2_4:
	.loc	4 149 22                @ ../GD32E230_Firmware_Library/GD32E230_standard_peripheral/Source/gd32e230_spi.c:149:22
	ldr	r0, [sp, #12]
	.loc	4 149 34 is_stmt 0      @ ../GD32E230_Firmware_Library/GD32E230_standard_peripheral/Source/gd32e230_spi.c:149:34
	ldr	r0, [r0, #8]
	movw	r1, #2048
	.loc	4 149 45                @ ../GD32E230_Firmware_Library/GD32E230_standard_peripheral/Source/gd32e230_spi.c:149:45
	ands	r0, r1
	.loc	4 149 18                @ ../GD32E230_Firmware_Library/GD32E230_standard_peripheral/Source/gd32e230_spi.c:149:18
	ldr	r1, [sp, #8]
	orrs	r1, r0
	str	r1, [sp, #8]
	b	.LBB2_5
.Ltmp14:
.LBB2_5:
	.loc	4 153 42 is_stmt 1      @ ../GD32E230_Firmware_Library/GD32E230_standard_peripheral/Source/gd32e230_spi.c:153:42
	ldr	r0, [sp, #8]
	.loc	4 153 9 is_stmt 0       @ ../GD32E230_Firmware_Library/GD32E230_standard_peripheral/Source/gd32e230_spi.c:153:9
	ldr	r1, [sp, #16]
	.loc	4 153 30                @ ../GD32E230_Firmware_Library/GD32E230_standard_peripheral/Source/gd32e230_spi.c:153:30
	str	r0, [r1]
	.loc	4 155 5 is_stmt 1       @ ../GD32E230_Firmware_Library/GD32E230_standard_peripheral/Source/gd32e230_spi.c:155:5
	b	.LBB2_7
.Ltmp15:
.LBB2_6:
	.loc	4 157 17                @ ../GD32E230_Firmware_Library/GD32E230_standard_peripheral/Source/gd32e230_spi.c:157:17
	ldr	r0, [sp, #12]
	.loc	4 157 29 is_stmt 0      @ ../GD32E230_Firmware_Library/GD32E230_standard_peripheral/Source/gd32e230_spi.c:157:29
	ldr	r0, [r0]
	.loc	4 157 14                @ ../GD32E230_Firmware_Library/GD32E230_standard_peripheral/Source/gd32e230_spi.c:157:14
	ldr	r1, [sp, #4]
	orrs	r1, r0
	str	r1, [sp, #4]
	.loc	4 159 17 is_stmt 1      @ ../GD32E230_Firmware_Library/GD32E230_standard_peripheral/Source/gd32e230_spi.c:159:17
	ldr	r0, [sp, #12]
	.loc	4 159 29 is_stmt 0      @ ../GD32E230_Firmware_Library/GD32E230_standard_peripheral/Source/gd32e230_spi.c:159:29
	ldr	r0, [r0, #4]
	.loc	4 159 14                @ ../GD32E230_Firmware_Library/GD32E230_standard_peripheral/Source/gd32e230_spi.c:159:14
	ldr	r1, [sp, #4]
	orrs	r1, r0
	str	r1, [sp, #4]
	.loc	4 161 17 is_stmt 1      @ ../GD32E230_Firmware_Library/GD32E230_standard_peripheral/Source/gd32e230_spi.c:161:17
	ldr	r0, [sp, #12]
	.loc	4 161 29 is_stmt 0      @ ../GD32E230_Firmware_Library/GD32E230_standard_peripheral/Source/gd32e230_spi.c:161:29
	ldr	r0, [r0, #12]
	.loc	4 161 14                @ ../GD32E230_Firmware_Library/GD32E230_standard_peripheral/Source/gd32e230_spi.c:161:14
	ldr	r1, [sp, #4]
	orrs	r1, r0
	str	r1, [sp, #4]
	.loc	4 163 17 is_stmt 1      @ ../GD32E230_Firmware_Library/GD32E230_standard_peripheral/Source/gd32e230_spi.c:163:17
	ldr	r0, [sp, #12]
	.loc	4 163 29 is_stmt 0      @ ../GD32E230_Firmware_Library/GD32E230_standard_peripheral/Source/gd32e230_spi.c:163:29
	ldr	r0, [r0, #16]
	.loc	4 163 14                @ ../GD32E230_Firmware_Library/GD32E230_standard_peripheral/Source/gd32e230_spi.c:163:14
	ldr	r1, [sp, #4]
	orrs	r1, r0
	str	r1, [sp, #4]
	.loc	4 165 17 is_stmt 1      @ ../GD32E230_Firmware_Library/GD32E230_standard_peripheral/Source/gd32e230_spi.c:165:17
	ldr	r0, [sp, #12]
	.loc	4 165 29 is_stmt 0      @ ../GD32E230_Firmware_Library/GD32E230_standard_peripheral/Source/gd32e230_spi.c:165:29
	ldr	r0, [r0, #20]
	.loc	4 165 14                @ ../GD32E230_Firmware_Library/GD32E230_standard_peripheral/Source/gd32e230_spi.c:165:14
	ldr	r1, [sp, #4]
	orrs	r1, r0
	str	r1, [sp, #4]
	.loc	4 167 17 is_stmt 1      @ ../GD32E230_Firmware_Library/GD32E230_standard_peripheral/Source/gd32e230_spi.c:167:17
	ldr	r0, [sp, #12]
	.loc	4 167 29 is_stmt 0      @ ../GD32E230_Firmware_Library/GD32E230_standard_peripheral/Source/gd32e230_spi.c:167:29
	ldr	r0, [r0, #24]
	.loc	4 167 14                @ ../GD32E230_Firmware_Library/GD32E230_standard_peripheral/Source/gd32e230_spi.c:167:14
	ldr	r1, [sp, #4]
	orrs	r1, r0
	str	r1, [sp, #4]
	.loc	4 169 42 is_stmt 1      @ ../GD32E230_Firmware_Library/GD32E230_standard_peripheral/Source/gd32e230_spi.c:169:42
	ldr	r0, [sp, #4]
	.loc	4 169 9 is_stmt 0       @ ../GD32E230_Firmware_Library/GD32E230_standard_peripheral/Source/gd32e230_spi.c:169:9
	ldr	r1, [sp, #16]
	.loc	4 169 30                @ ../GD32E230_Firmware_Library/GD32E230_standard_peripheral/Source/gd32e230_spi.c:169:30
	str	r0, [r1]
	.loc	4 172 17 is_stmt 1      @ ../GD32E230_Firmware_Library/GD32E230_standard_peripheral/Source/gd32e230_spi.c:172:17
	ldr	r0, [sp, #12]
	.loc	4 172 29 is_stmt 0      @ ../GD32E230_Firmware_Library/GD32E230_standard_peripheral/Source/gd32e230_spi.c:172:29
	ldr	r0, [r0, #8]
	.loc	4 172 14                @ ../GD32E230_Firmware_Library/GD32E230_standard_peripheral/Source/gd32e230_spi.c:172:14
	ldr	r1, [sp]
	orrs	r1, r0
	str	r1, [sp]
	.loc	4 174 42 is_stmt 1      @ ../GD32E230_Firmware_Library/GD32E230_standard_peripheral/Source/gd32e230_spi.c:174:42
	ldr	r0, [sp]
	.loc	4 174 9 is_stmt 0       @ ../GD32E230_Firmware_Library/GD32E230_standard_peripheral/Source/gd32e230_spi.c:174:9
	ldr	r1, [sp, #16]
	.loc	4 174 30                @ ../GD32E230_Firmware_Library/GD32E230_standard_peripheral/Source/gd32e230_spi.c:174:30
	str	r0, [r1, #4]
	b	.LBB2_7
.Ltmp16:
.LBB2_7:
	.loc	4 178 5 is_stmt 1       @ ../GD32E230_Firmware_Library/GD32E230_standard_peripheral/Source/gd32e230_spi.c:178:5
	ldr	r0, [sp, #16]
	.loc	4 178 28 is_stmt 0      @ ../GD32E230_Firmware_Library/GD32E230_standard_peripheral/Source/gd32e230_spi.c:178:28
	ldr	r1, [r0, #28]
	movw	r2, #2048
	bics	r1, r2
	str	r1, [r0, #28]
	add	r0, sp, #20
	movs	r1, #1
	.loc	4 180 5 is_stmt 1       @ ../GD32E230_Firmware_Library/GD32E230_standard_peripheral/Source/gd32e230_spi.c:180:5
	strb	r1, [r0]
	b	.LBB2_8
.LBB2_8:
	.loc	4 0 5 is_stmt 0         @ ../GD32E230_Firmware_Library/GD32E230_standard_peripheral/Source/gd32e230_spi.c:0:5
	add	r0, sp, #20
	.loc	4 181 1 is_stmt 1       @ ../GD32E230_Firmware_Library/GD32E230_standard_peripheral/Source/gd32e230_spi.c:181:1
	ldrb	r0, [r0]
	add	sp, #24
	bx	lr
.Ltmp17:
	.p2align	2
@ %bb.9:
	.loc	4 0 1 is_stmt 0         @ ../GD32E230_Firmware_Library/GD32E230_standard_peripheral/Source/gd32e230_spi.c:0:1
__arm_cp.2_0:
	.long	61695                   @ 0xf0ff
.Lcpi_end3:
	.size	__arm_cp.2_0, .Lcpi_end3-__arm_cp.2_0
__arm_cp.2_1:
	.long	1073819648              @ 0x40013000
.Lcpi_end4:
	.size	__arm_cp.2_1, .Lcpi_end4-__arm_cp.2_1
.Lfunc_end2:
	.size	spi_init, .Lfunc_end2-spi_init
	.cfi_endproc
	.cantunwind
	.fnend
                                        @ -- End function
	.section	.text.spi_enable,"ax",%progbits
	.hidden	spi_enable              @ -- Begin function spi_enable
	.globl	spi_enable
	.p2align	1
	.type	spi_enable,%function
	.code	16                      @ @spi_enable
	.thumb_func
spi_enable:
.Lfunc_begin3:
	.loc	4 190 0 is_stmt 1       @ ../GD32E230_Firmware_Library/GD32E230_standard_peripheral/Source/gd32e230_spi.c:190:0
	.fnstart
	.cfi_startproc
@ %bb.0:
	.pad	#4
	sub	sp, #4
	.cfi_def_cfa_offset 4
	str	r0, [sp]
.Ltmp18:
	.loc	4 191 5 prologue_end    @ ../GD32E230_Firmware_Library/GD32E230_standard_peripheral/Source/gd32e230_spi.c:191:5
	ldr	r0, [sp]
	.loc	4 191 26 is_stmt 0      @ ../GD32E230_Firmware_Library/GD32E230_standard_peripheral/Source/gd32e230_spi.c:191:26
	ldr	r1, [r0]
	movs	r2, #64
	orrs	r1, r2
	str	r1, [r0]
	.loc	4 192 1 is_stmt 1       @ ../GD32E230_Firmware_Library/GD32E230_standard_peripheral/Source/gd32e230_spi.c:192:1
	add	sp, #4
	bx	lr
.Ltmp19:
.Lfunc_end3:
	.size	spi_enable, .Lfunc_end3-spi_enable
	.cfi_endproc
	.cantunwind
	.fnend
                                        @ -- End function
	.section	.text.spi_disable,"ax",%progbits
	.hidden	spi_disable             @ -- Begin function spi_disable
	.globl	spi_disable
	.p2align	1
	.type	spi_disable,%function
	.code	16                      @ @spi_disable
	.thumb_func
spi_disable:
.Lfunc_begin4:
	.loc	4 201 0                 @ ../GD32E230_Firmware_Library/GD32E230_standard_peripheral/Source/gd32e230_spi.c:201:0
	.fnstart
	.cfi_startproc
@ %bb.0:
	.pad	#4
	sub	sp, #4
	.cfi_def_cfa_offset 4
	str	r0, [sp]
.Ltmp20:
	.loc	4 202 5 prologue_end    @ ../GD32E230_Firmware_Library/GD32E230_standard_peripheral/Source/gd32e230_spi.c:202:5
	ldr	r0, [sp]
	.loc	4 202 26 is_stmt 0      @ ../GD32E230_Firmware_Library/GD32E230_standard_peripheral/Source/gd32e230_spi.c:202:26
	ldr	r1, [r0]
	movs	r2, #64
	bics	r1, r2
	str	r1, [r0]
	.loc	4 203 1 is_stmt 1       @ ../GD32E230_Firmware_Library/GD32E230_standard_peripheral/Source/gd32e230_spi.c:203:1
	add	sp, #4
	bx	lr
.Ltmp21:
.Lfunc_end4:
	.size	spi_disable, .Lfunc_end4-spi_disable
	.cfi_endproc
	.cantunwind
	.fnend
                                        @ -- End function
	.section	.text.i2s_init,"ax",%progbits
	.hidden	i2s_init                @ -- Begin function i2s_init
	.globl	i2s_init
	.p2align	2
	.type	i2s_init,%function
	.code	16                      @ @i2s_init
	.thumb_func
i2s_init:
.Lfunc_begin5:
	.loc	4 229 0                 @ ../GD32E230_Firmware_Library/GD32E230_standard_peripheral/Source/gd32e230_spi.c:229:0
	.fnstart
	.cfi_startproc
@ %bb.0:
	.pad	#20
	sub	sp, #20
	.cfi_def_cfa_offset 20
	str	r0, [sp, #16]
	str	r1, [sp, #12]
	str	r2, [sp, #8]
	str	r3, [sp, #4]
	movs	r0, #0
.Ltmp22:
	.loc	4 230 14 prologue_end   @ ../GD32E230_Firmware_Library/GD32E230_standard_peripheral/Source/gd32e230_spi.c:230:14
	str	r0, [sp]
	.loc	4 231 11                @ ../GD32E230_Firmware_Library/GD32E230_standard_peripheral/Source/gd32e230_spi.c:231:11
	ldr	r0, [sp, #16]
	ldr	r0, [r0, #28]
	.loc	4 231 9 is_stmt 0       @ ../GD32E230_Firmware_Library/GD32E230_standard_peripheral/Source/gd32e230_spi.c:231:9
	str	r0, [sp]
	.loc	4 232 9 is_stmt 1       @ ../GD32E230_Firmware_Library/GD32E230_standard_peripheral/Source/gd32e230_spi.c:232:9
	ldr	r0, [sp]
	ldr	r1, __arm_cp.5_0
	ands	r0, r1
	str	r0, [sp]
	.loc	4 235 9                 @ ../GD32E230_Firmware_Library/GD32E230_standard_peripheral/Source/gd32e230_spi.c:235:9
	ldr	r0, [sp]
	movw	r1, #2048
	orrs	r0, r1
	str	r0, [sp]
	.loc	4 237 22                @ ../GD32E230_Firmware_Library/GD32E230_standard_peripheral/Source/gd32e230_spi.c:237:22
	ldr	r0, [sp, #12]
	.loc	4 237 9 is_stmt 0       @ ../GD32E230_Firmware_Library/GD32E230_standard_peripheral/Source/gd32e230_spi.c:237:9
	ldr	r1, [sp]
	orrs	r1, r0
	str	r1, [sp]
	.loc	4 239 22 is_stmt 1      @ ../GD32E230_Firmware_Library/GD32E230_standard_peripheral/Source/gd32e230_spi.c:239:22
	ldr	r0, [sp, #8]
	.loc	4 239 9 is_stmt 0       @ ../GD32E230_Firmware_Library/GD32E230_standard_peripheral/Source/gd32e230_spi.c:239:9
	ldr	r1, [sp]
	orrs	r1, r0
	str	r1, [sp]
	.loc	4 241 22 is_stmt 1      @ ../GD32E230_Firmware_Library/GD32E230_standard_peripheral/Source/gd32e230_spi.c:241:22
	ldr	r0, [sp, #4]
	.loc	4 241 9 is_stmt 0       @ ../GD32E230_Firmware_Library/GD32E230_standard_peripheral/Source/gd32e230_spi.c:241:9
	ldr	r1, [sp]
	orrs	r1, r0
	str	r1, [sp]
	.loc	4 244 40 is_stmt 1      @ ../GD32E230_Firmware_Library/GD32E230_standard_peripheral/Source/gd32e230_spi.c:244:40
	ldr	r0, [sp]
	.loc	4 244 5 is_stmt 0       @ ../GD32E230_Firmware_Library/GD32E230_standard_peripheral/Source/gd32e230_spi.c:244:5
	ldr	r1, [sp, #16]
	.loc	4 244 28                @ ../GD32E230_Firmware_Library/GD32E230_standard_peripheral/Source/gd32e230_spi.c:244:28
	str	r0, [r1, #28]
	.loc	4 245 1 is_stmt 1       @ ../GD32E230_Firmware_Library/GD32E230_standard_peripheral/Source/gd32e230_spi.c:245:1
	add	sp, #20
	bx	lr
.Ltmp23:
	.p2align	2
@ %bb.1:
	.loc	4 0 1 is_stmt 0         @ ../GD32E230_Firmware_Library/GD32E230_standard_peripheral/Source/gd32e230_spi.c:0:1
__arm_cp.5_0:
	.long	61511                   @ 0xf047
.Lcpi_end5:
	.size	__arm_cp.5_0, .Lcpi_end5-__arm_cp.5_0
.Lfunc_end5:
	.size	i2s_init, .Lfunc_end5-i2s_init
	.cfi_endproc
	.cantunwind
	.fnend
                                        @ -- End function
	.section	.text.i2s_psc_config,"ax",%progbits
	.hidden	i2s_psc_config          @ -- Begin function i2s_psc_config
	.globl	i2s_psc_config
	.p2align	1
	.type	i2s_psc_config,%function
	.code	16                      @ @i2s_psc_config
	.thumb_func
i2s_psc_config:
.Lfunc_begin6:
	.loc	4 275 0 is_stmt 1       @ ../GD32E230_Firmware_Library/GD32E230_standard_peripheral/Source/gd32e230_spi.c:275:0
	.fnstart
	.cfi_startproc
@ %bb.0:
	.save	{r7, lr}
	push	{r7, lr}
	.cfi_def_cfa_offset 8
	.cfi_offset lr, -4
	.cfi_offset r7, -8
	.pad	#32
	sub	sp, #32
	.cfi_def_cfa_offset 40
	str	r0, [sp, #28]
	str	r1, [sp, #24]
	str	r2, [sp, #20]
	str	r3, [sp, #16]
	movs	r0, #2
.Ltmp24:
	.loc	4 276 14 prologue_end   @ ../GD32E230_Firmware_Library/GD32E230_standard_peripheral/Source/gd32e230_spi.c:276:14
	str	r0, [sp, #12]
	movs	r1, #0
	.loc	4 276 27 is_stmt 0      @ ../GD32E230_Firmware_Library/GD32E230_standard_peripheral/Source/gd32e230_spi.c:276:27
	str	r1, [sp, #8]
	.loc	4 277 14 is_stmt 1      @ ../GD32E230_Firmware_Library/GD32E230_standard_peripheral/Source/gd32e230_spi.c:277:14
	str	r1, [sp, #4]
	.loc	4 278 14                @ ../GD32E230_Firmware_Library/GD32E230_standard_peripheral/Source/gd32e230_spi.c:278:14
	str	r1, [sp]
	.loc	4 281 5                 @ ../GD32E230_Firmware_Library/GD32E230_standard_peripheral/Source/gd32e230_spi.c:281:5
	ldr	r2, [sp, #28]
	.loc	4 281 28 is_stmt 0      @ ../GD32E230_Firmware_Library/GD32E230_standard_peripheral/Source/gd32e230_spi.c:281:28
	str	r0, [r2, #32]
	.loc	4 284 16 is_stmt 1      @ ../GD32E230_Firmware_Library/GD32E230_standard_peripheral/Source/gd32e230_spi.c:284:16
	mov	r0, r1
	bl	rcu_clock_freq_get
	.loc	4 284 14 is_stmt 0      @ ../GD32E230_Firmware_Library/GD32E230_standard_peripheral/Source/gd32e230_spi.c:284:14
	str	r0, [sp]
.Ltmp25:
	.loc	4 287 29 is_stmt 1      @ ../GD32E230_Firmware_Library/GD32E230_standard_peripheral/Source/gd32e230_spi.c:287:29
	ldr	r0, [sp, #16]
	movw	r1, #512
.Ltmp26:
	.loc	4 287 8 is_stmt 0       @ ../GD32E230_Firmware_Library/GD32E230_standard_peripheral/Source/gd32e230_spi.c:287:8
	cmp	r0, r1
	bne	.LBB6_2
	b	.LBB6_1
.LBB6_1:
.Ltmp27:
	.loc	4 288 29 is_stmt 1      @ ../GD32E230_Firmware_Library/GD32E230_standard_peripheral/Source/gd32e230_spi.c:288:29
	ldr	r0, [sp]
	.loc	4 288 38 is_stmt 0      @ ../GD32E230_Firmware_Library/GD32E230_standard_peripheral/Source/gd32e230_spi.c:288:38
	lsrs	r0, r0, #8
	movs	r1, #10
	.loc	4 288 46                @ ../GD32E230_Firmware_Library/GD32E230_standard_peripheral/Source/gd32e230_spi.c:288:46
	muls	r1, r0, r1
	.loc	4 288 55                @ ../GD32E230_Firmware_Library/GD32E230_standard_peripheral/Source/gd32e230_spi.c:288:55
	ldr	r0, [sp, #24]
	.loc	4 288 53                @ ../GD32E230_Firmware_Library/GD32E230_standard_peripheral/Source/gd32e230_spi.c:288:53
	udiv	r0, r1, r0
	.loc	4 288 14                @ ../GD32E230_Firmware_Library/GD32E230_standard_peripheral/Source/gd32e230_spi.c:288:14
	str	r0, [sp, #4]
	.loc	4 289 5 is_stmt 1       @ ../GD32E230_Firmware_Library/GD32E230_standard_peripheral/Source/gd32e230_spi.c:289:5
	b	.LBB6_6
.Ltmp28:
.LBB6_2:
	.loc	4 290 43                @ ../GD32E230_Firmware_Library/GD32E230_standard_peripheral/Source/gd32e230_spi.c:290:43
	ldr	r0, [sp, #20]
.Ltmp29:
	.loc	4 290 12 is_stmt 0      @ ../GD32E230_Firmware_Library/GD32E230_standard_peripheral/Source/gd32e230_spi.c:290:12
	cmp	r0, #0
	bne	.LBB6_4
	b	.LBB6_3
.LBB6_3:
.Ltmp30:
	.loc	4 291 33 is_stmt 1      @ ../GD32E230_Firmware_Library/GD32E230_standard_peripheral/Source/gd32e230_spi.c:291:33
	ldr	r0, [sp]
	.loc	4 291 42 is_stmt 0      @ ../GD32E230_Firmware_Library/GD32E230_standard_peripheral/Source/gd32e230_spi.c:291:42
	lsrs	r0, r0, #5
	movs	r1, #10
	.loc	4 291 49                @ ../GD32E230_Firmware_Library/GD32E230_standard_peripheral/Source/gd32e230_spi.c:291:49
	muls	r1, r0, r1
	.loc	4 291 58                @ ../GD32E230_Firmware_Library/GD32E230_standard_peripheral/Source/gd32e230_spi.c:291:58
	ldr	r0, [sp, #24]
	.loc	4 291 56                @ ../GD32E230_Firmware_Library/GD32E230_standard_peripheral/Source/gd32e230_spi.c:291:56
	udiv	r0, r1, r0
	.loc	4 291 18                @ ../GD32E230_Firmware_Library/GD32E230_standard_peripheral/Source/gd32e230_spi.c:291:18
	str	r0, [sp, #4]
	.loc	4 292 9 is_stmt 1       @ ../GD32E230_Firmware_Library/GD32E230_standard_peripheral/Source/gd32e230_spi.c:292:9
	b	.LBB6_5
.Ltmp31:
.LBB6_4:
	.loc	4 293 33                @ ../GD32E230_Firmware_Library/GD32E230_standard_peripheral/Source/gd32e230_spi.c:293:33
	ldr	r0, [sp]
	.loc	4 293 42 is_stmt 0      @ ../GD32E230_Firmware_Library/GD32E230_standard_peripheral/Source/gd32e230_spi.c:293:42
	lsrs	r0, r0, #6
	movs	r1, #10
	.loc	4 293 49                @ ../GD32E230_Firmware_Library/GD32E230_standard_peripheral/Source/gd32e230_spi.c:293:49
	muls	r1, r0, r1
	.loc	4 293 58                @ ../GD32E230_Firmware_Library/GD32E230_standard_peripheral/Source/gd32e230_spi.c:293:58
	ldr	r0, [sp, #24]
	.loc	4 293 56                @ ../GD32E230_Firmware_Library/GD32E230_standard_peripheral/Source/gd32e230_spi.c:293:56
	udiv	r0, r1, r0
	.loc	4 293 18                @ ../GD32E230_Firmware_Library/GD32E230_standard_peripheral/Source/gd32e230_spi.c:293:18
	str	r0, [sp, #4]
	b	.LBB6_5
.Ltmp32:
.LBB6_5:
	.loc	4 0 18                  @ ../GD32E230_Firmware_Library/GD32E230_standard_peripheral/Source/gd32e230_spi.c:0:18
	b	.LBB6_6
.LBB6_6:
	.loc	4 298 13 is_stmt 1      @ ../GD32E230_Firmware_Library/GD32E230_standard_peripheral/Source/gd32e230_spi.c:298:13
	ldr	r0, [sp, #4]
	.loc	4 298 18 is_stmt 0      @ ../GD32E230_Firmware_Library/GD32E230_standard_peripheral/Source/gd32e230_spi.c:298:18
	adds	r0, r0, #5
	movs	r1, #10
	.loc	4 298 24                @ ../GD32E230_Firmware_Library/GD32E230_standard_peripheral/Source/gd32e230_spi.c:298:24
	udiv	r0, r0, r1
	.loc	4 298 10                @ ../GD32E230_Firmware_Library/GD32E230_standard_peripheral/Source/gd32e230_spi.c:298:10
	str	r0, [sp, #4]
	.loc	4 299 14 is_stmt 1      @ ../GD32E230_Firmware_Library/GD32E230_standard_peripheral/Source/gd32e230_spi.c:299:14
	ldr	r0, [sp, #4]
	movs	r1, #1
	.loc	4 299 19 is_stmt 0      @ ../GD32E230_Firmware_Library/GD32E230_standard_peripheral/Source/gd32e230_spi.c:299:19
	ands	r0, r1
	.loc	4 299 11                @ ../GD32E230_Firmware_Library/GD32E230_standard_peripheral/Source/gd32e230_spi.c:299:11
	str	r0, [sp, #8]
	.loc	4 300 16 is_stmt 1      @ ../GD32E230_Firmware_Library/GD32E230_standard_peripheral/Source/gd32e230_spi.c:300:16
	ldr	r0, [sp, #4]
	.loc	4 300 23 is_stmt 0      @ ../GD32E230_Firmware_Library/GD32E230_standard_peripheral/Source/gd32e230_spi.c:300:23
	ldr	r1, [sp, #8]
	.loc	4 300 21                @ ../GD32E230_Firmware_Library/GD32E230_standard_peripheral/Source/gd32e230_spi.c:300:21
	subs	r0, r0, r1
	.loc	4 300 30                @ ../GD32E230_Firmware_Library/GD32E230_standard_peripheral/Source/gd32e230_spi.c:300:30
	lsrs	r0, r0, #1
	.loc	4 300 12                @ ../GD32E230_Firmware_Library/GD32E230_standard_peripheral/Source/gd32e230_spi.c:300:12
	str	r0, [sp, #12]
	.loc	4 301 15 is_stmt 1      @ ../GD32E230_Firmware_Library/GD32E230_standard_peripheral/Source/gd32e230_spi.c:301:15
	ldr	r0, [sp, #8]
	.loc	4 301 21 is_stmt 0      @ ../GD32E230_Firmware_Library/GD32E230_standard_peripheral/Source/gd32e230_spi.c:301:21
	lsls	r0, r0, #8
	.loc	4 301 12                @ ../GD32E230_Firmware_Library/GD32E230_standard_peripheral/Source/gd32e230_spi.c:301:12
	str	r0, [sp, #8]
.Ltmp33:
	.loc	4 304 9 is_stmt 1       @ ../GD32E230_Firmware_Library/GD32E230_standard_peripheral/Source/gd32e230_spi.c:304:9
	ldr	r0, [sp, #12]
	.loc	4 304 22 is_stmt 0      @ ../GD32E230_Firmware_Library/GD32E230_standard_peripheral/Source/gd32e230_spi.c:304:22
	cmp	r0, #2
	blo	.LBB6_8
	b	.LBB6_7
.LBB6_7:
	.loc	4 304 26                @ ../GD32E230_Firmware_Library/GD32E230_standard_peripheral/Source/gd32e230_spi.c:304:26
	ldr	r0, [sp, #12]
.Ltmp34:
	.loc	4 304 8                 @ ../GD32E230_Firmware_Library/GD32E230_standard_peripheral/Source/gd32e230_spi.c:304:8
	lsrs	r0, r0, #8
	cmp	r0, #0
	beq	.LBB6_9
	b	.LBB6_8
.LBB6_8:
	.loc	4 0 8                   @ ../GD32E230_Firmware_Library/GD32E230_standard_peripheral/Source/gd32e230_spi.c:0:8
	movs	r0, #2
.Ltmp35:
	.loc	4 305 16 is_stmt 1      @ ../GD32E230_Firmware_Library/GD32E230_standard_peripheral/Source/gd32e230_spi.c:305:16
	str	r0, [sp, #12]
	movs	r0, #0
	.loc	4 306 15                @ ../GD32E230_Firmware_Library/GD32E230_standard_peripheral/Source/gd32e230_spi.c:306:15
	str	r0, [sp, #8]
	.loc	4 307 5                 @ ../GD32E230_Firmware_Library/GD32E230_standard_peripheral/Source/gd32e230_spi.c:307:5
	b	.LBB6_9
.Ltmp36:
.LBB6_9:
	.loc	4 310 41                @ ../GD32E230_Firmware_Library/GD32E230_standard_peripheral/Source/gd32e230_spi.c:310:41
	ldr	r0, [sp, #12]
	.loc	4 310 50 is_stmt 0      @ ../GD32E230_Firmware_Library/GD32E230_standard_peripheral/Source/gd32e230_spi.c:310:50
	ldr	r1, [sp, #8]
	.loc	4 310 48                @ ../GD32E230_Firmware_Library/GD32E230_standard_peripheral/Source/gd32e230_spi.c:310:48
	orrs	r0, r1
	.loc	4 310 58                @ ../GD32E230_Firmware_Library/GD32E230_standard_peripheral/Source/gd32e230_spi.c:310:58
	ldr	r1, [sp, #16]
	.loc	4 310 56                @ ../GD32E230_Firmware_Library/GD32E230_standard_peripheral/Source/gd32e230_spi.c:310:56
	orrs	r0, r1
	.loc	4 310 5                 @ ../GD32E230_Firmware_Library/GD32E230_standard_peripheral/Source/gd32e230_spi.c:310:5
	ldr	r1, [sp, #28]
	.loc	4 310 28                @ ../GD32E230_Firmware_Library/GD32E230_standard_peripheral/Source/gd32e230_spi.c:310:28
	str	r0, [r1, #32]
	.loc	4 313 5 is_stmt 1       @ ../GD32E230_Firmware_Library/GD32E230_standard_peripheral/Source/gd32e230_spi.c:313:5
	ldr	r0, [sp, #28]
	.loc	4 313 28 is_stmt 0      @ ../GD32E230_Firmware_Library/GD32E230_standard_peripheral/Source/gd32e230_spi.c:313:28
	ldr	r1, [r0, #28]
	movs	r2, #7
	bics	r1, r2
	str	r1, [r0, #28]
	.loc	4 315 41 is_stmt 1      @ ../GD32E230_Firmware_Library/GD32E230_standard_peripheral/Source/gd32e230_spi.c:315:41
	ldr	r0, [sp, #20]
	.loc	4 315 5 is_stmt 0       @ ../GD32E230_Firmware_Library/GD32E230_standard_peripheral/Source/gd32e230_spi.c:315:5
	ldr	r1, [sp, #28]
	.loc	4 315 28                @ ../GD32E230_Firmware_Library/GD32E230_standard_peripheral/Source/gd32e230_spi.c:315:28
	ldr	r2, [r1, #28]
	orrs	r2, r0
	str	r2, [r1, #28]
	.loc	4 316 1 is_stmt 1       @ ../GD32E230_Firmware_Library/GD32E230_standard_peripheral/Source/gd32e230_spi.c:316:1
	add	sp, #32
	pop	{r7, pc}
.Ltmp37:
.Lfunc_end6:
	.size	i2s_psc_config, .Lfunc_end6-i2s_psc_config
	.cfi_endproc
	.cantunwind
	.fnend
                                        @ -- End function
	.section	.text.i2s_enable,"ax",%progbits
	.hidden	i2s_enable              @ -- Begin function i2s_enable
	.globl	i2s_enable
	.p2align	1
	.type	i2s_enable,%function
	.code	16                      @ @i2s_enable
	.thumb_func
i2s_enable:
.Lfunc_begin7:
	.loc	4 326 0                 @ ../GD32E230_Firmware_Library/GD32E230_standard_peripheral/Source/gd32e230_spi.c:326:0
	.fnstart
	.cfi_startproc
@ %bb.0:
	.pad	#4
	sub	sp, #4
	.cfi_def_cfa_offset 4
	str	r0, [sp]
.Ltmp38:
	.loc	4 327 5 prologue_end    @ ../GD32E230_Firmware_Library/GD32E230_standard_peripheral/Source/gd32e230_spi.c:327:5
	ldr	r0, [sp]
	.loc	4 327 28 is_stmt 0      @ ../GD32E230_Firmware_Library/GD32E230_standard_peripheral/Source/gd32e230_spi.c:327:28
	ldr	r1, [r0, #28]
	movw	r2, #1024
	orrs	r1, r2
	str	r1, [r0, #28]
	.loc	4 328 1 is_stmt 1       @ ../GD32E230_Firmware_Library/GD32E230_standard_peripheral/Source/gd32e230_spi.c:328:1
	add	sp, #4
	bx	lr
.Ltmp39:
.Lfunc_end7:
	.size	i2s_enable, .Lfunc_end7-i2s_enable
	.cfi_endproc
	.cantunwind
	.fnend
                                        @ -- End function
	.section	.text.i2s_disable,"ax",%progbits
	.hidden	i2s_disable             @ -- Begin function i2s_disable
	.globl	i2s_disable
	.p2align	1
	.type	i2s_disable,%function
	.code	16                      @ @i2s_disable
	.thumb_func
i2s_disable:
.Lfunc_begin8:
	.loc	4 337 0                 @ ../GD32E230_Firmware_Library/GD32E230_standard_peripheral/Source/gd32e230_spi.c:337:0
	.fnstart
	.cfi_startproc
@ %bb.0:
	.pad	#4
	sub	sp, #4
	.cfi_def_cfa_offset 4
	str	r0, [sp]
.Ltmp40:
	.loc	4 338 5 prologue_end    @ ../GD32E230_Firmware_Library/GD32E230_standard_peripheral/Source/gd32e230_spi.c:338:5
	ldr	r0, [sp]
	.loc	4 338 28 is_stmt 0      @ ../GD32E230_Firmware_Library/GD32E230_standard_peripheral/Source/gd32e230_spi.c:338:28
	ldr	r1, [r0, #28]
	movw	r2, #1024
	bics	r1, r2
	str	r1, [r0, #28]
	.loc	4 339 1 is_stmt 1       @ ../GD32E230_Firmware_Library/GD32E230_standard_peripheral/Source/gd32e230_spi.c:339:1
	add	sp, #4
	bx	lr
.Ltmp41:
.Lfunc_end8:
	.size	i2s_disable, .Lfunc_end8-i2s_disable
	.cfi_endproc
	.cantunwind
	.fnend
                                        @ -- End function
	.section	.text.spi_nss_output_enable,"ax",%progbits
	.hidden	spi_nss_output_enable   @ -- Begin function spi_nss_output_enable
	.globl	spi_nss_output_enable
	.p2align	1
	.type	spi_nss_output_enable,%function
	.code	16                      @ @spi_nss_output_enable
	.thumb_func
spi_nss_output_enable:
.Lfunc_begin9:
	.loc	4 348 0                 @ ../GD32E230_Firmware_Library/GD32E230_standard_peripheral/Source/gd32e230_spi.c:348:0
	.fnstart
	.cfi_startproc
@ %bb.0:
	.pad	#4
	sub	sp, #4
	.cfi_def_cfa_offset 4
	str	r0, [sp]
.Ltmp42:
	.loc	4 349 5 prologue_end    @ ../GD32E230_Firmware_Library/GD32E230_standard_peripheral/Source/gd32e230_spi.c:349:5
	ldr	r0, [sp]
	.loc	4 349 26 is_stmt 0      @ ../GD32E230_Firmware_Library/GD32E230_standard_peripheral/Source/gd32e230_spi.c:349:26
	ldr	r1, [r0, #4]
	movs	r2, #4
	orrs	r1, r2
	str	r1, [r0, #4]
	.loc	4 350 1 is_stmt 1       @ ../GD32E230_Firmware_Library/GD32E230_standard_peripheral/Source/gd32e230_spi.c:350:1
	add	sp, #4
	bx	lr
.Ltmp43:
.Lfunc_end9:
	.size	spi_nss_output_enable, .Lfunc_end9-spi_nss_output_enable
	.cfi_endproc
	.cantunwind
	.fnend
                                        @ -- End function
	.section	.text.spi_nss_output_disable,"ax",%progbits
	.hidden	spi_nss_output_disable  @ -- Begin function spi_nss_output_disable
	.globl	spi_nss_output_disable
	.p2align	1
	.type	spi_nss_output_disable,%function
	.code	16                      @ @spi_nss_output_disable
	.thumb_func
spi_nss_output_disable:
.Lfunc_begin10:
	.loc	4 359 0                 @ ../GD32E230_Firmware_Library/GD32E230_standard_peripheral/Source/gd32e230_spi.c:359:0
	.fnstart
	.cfi_startproc
@ %bb.0:
	.pad	#4
	sub	sp, #4
	.cfi_def_cfa_offset 4
	str	r0, [sp]
.Ltmp44:
	.loc	4 360 5 prologue_end    @ ../GD32E230_Firmware_Library/GD32E230_standard_peripheral/Source/gd32e230_spi.c:360:5
	ldr	r0, [sp]
	.loc	4 360 26 is_stmt 0      @ ../GD32E230_Firmware_Library/GD32E230_standard_peripheral/Source/gd32e230_spi.c:360:26
	ldr	r1, [r0, #4]
	movs	r2, #4
	bics	r1, r2
	str	r1, [r0, #4]
	.loc	4 361 1 is_stmt 1       @ ../GD32E230_Firmware_Library/GD32E230_standard_peripheral/Source/gd32e230_spi.c:361:1
	add	sp, #4
	bx	lr
.Ltmp45:
.Lfunc_end10:
	.size	spi_nss_output_disable, .Lfunc_end10-spi_nss_output_disable
	.cfi_endproc
	.cantunwind
	.fnend
                                        @ -- End function
	.section	.text.spi_nss_internal_high,"ax",%progbits
	.hidden	spi_nss_internal_high   @ -- Begin function spi_nss_internal_high
	.globl	spi_nss_internal_high
	.p2align	1
	.type	spi_nss_internal_high,%function
	.code	16                      @ @spi_nss_internal_high
	.thumb_func
spi_nss_internal_high:
.Lfunc_begin11:
	.loc	4 370 0                 @ ../GD32E230_Firmware_Library/GD32E230_standard_peripheral/Source/gd32e230_spi.c:370:0
	.fnstart
	.cfi_startproc
@ %bb.0:
	.pad	#4
	sub	sp, #4
	.cfi_def_cfa_offset 4
	str	r0, [sp]
.Ltmp46:
	.loc	4 371 5 prologue_end    @ ../GD32E230_Firmware_Library/GD32E230_standard_peripheral/Source/gd32e230_spi.c:371:5
	ldr	r0, [sp]
	.loc	4 371 26 is_stmt 0      @ ../GD32E230_Firmware_Library/GD32E230_standard_peripheral/Source/gd32e230_spi.c:371:26
	ldr	r1, [r0]
	movw	r2, #256
	orrs	r1, r2
	str	r1, [r0]
	.loc	4 372 1 is_stmt 1       @ ../GD32E230_Firmware_Library/GD32E230_standard_peripheral/Source/gd32e230_spi.c:372:1
	add	sp, #4
	bx	lr
.Ltmp47:
.Lfunc_end11:
	.size	spi_nss_internal_high, .Lfunc_end11-spi_nss_internal_high
	.cfi_endproc
	.cantunwind
	.fnend
                                        @ -- End function
	.section	.text.spi_nss_internal_low,"ax",%progbits
	.hidden	spi_nss_internal_low    @ -- Begin function spi_nss_internal_low
	.globl	spi_nss_internal_low
	.p2align	1
	.type	spi_nss_internal_low,%function
	.code	16                      @ @spi_nss_internal_low
	.thumb_func
spi_nss_internal_low:
.Lfunc_begin12:
	.loc	4 381 0                 @ ../GD32E230_Firmware_Library/GD32E230_standard_peripheral/Source/gd32e230_spi.c:381:0
	.fnstart
	.cfi_startproc
@ %bb.0:
	.pad	#4
	sub	sp, #4
	.cfi_def_cfa_offset 4
	str	r0, [sp]
.Ltmp48:
	.loc	4 382 5 prologue_end    @ ../GD32E230_Firmware_Library/GD32E230_standard_peripheral/Source/gd32e230_spi.c:382:5
	ldr	r0, [sp]
	.loc	4 382 26 is_stmt 0      @ ../GD32E230_Firmware_Library/GD32E230_standard_peripheral/Source/gd32e230_spi.c:382:26
	ldr	r1, [r0]
	movw	r2, #256
	bics	r1, r2
	str	r1, [r0]
	.loc	4 383 1 is_stmt 1       @ ../GD32E230_Firmware_Library/GD32E230_standard_peripheral/Source/gd32e230_spi.c:383:1
	add	sp, #4
	bx	lr
.Ltmp49:
.Lfunc_end12:
	.size	spi_nss_internal_low, .Lfunc_end12-spi_nss_internal_low
	.cfi_endproc
	.cantunwind
	.fnend
                                        @ -- End function
	.section	.text.spi_dma_enable,"ax",%progbits
	.hidden	spi_dma_enable          @ -- Begin function spi_dma_enable
	.globl	spi_dma_enable
	.p2align	1
	.type	spi_dma_enable,%function
	.code	16                      @ @spi_dma_enable
	.thumb_func
spi_dma_enable:
.Lfunc_begin13:
	.loc	4 396 0                 @ ../GD32E230_Firmware_Library/GD32E230_standard_peripheral/Source/gd32e230_spi.c:396:0
	.fnstart
	.cfi_startproc
@ %bb.0:
	.pad	#8
	sub	sp, #8
	.cfi_def_cfa_offset 8
	mov	r2, r1
	str	r0, [sp, #4]
	mov	r0, sp
	strb	r1, [r0]
.Ltmp50:
	.loc	4 397 28 prologue_end   @ ../GD32E230_Firmware_Library/GD32E230_standard_peripheral/Source/gd32e230_spi.c:397:28
	ldrb	r0, [r0]
.Ltmp51:
	.loc	4 397 8 is_stmt 0       @ ../GD32E230_Firmware_Library/GD32E230_standard_peripheral/Source/gd32e230_spi.c:397:8
	cmp	r0, #0
	bne	.LBB13_2
	b	.LBB13_1
.LBB13_1:
.Ltmp52:
	.loc	4 398 9 is_stmt 1       @ ../GD32E230_Firmware_Library/GD32E230_standard_peripheral/Source/gd32e230_spi.c:398:9
	ldr	r0, [sp, #4]
	.loc	4 398 30 is_stmt 0      @ ../GD32E230_Firmware_Library/GD32E230_standard_peripheral/Source/gd32e230_spi.c:398:30
	ldr	r1, [r0, #4]
	movs	r2, #2
	orrs	r1, r2
	str	r1, [r0, #4]
	.loc	4 399 5 is_stmt 1       @ ../GD32E230_Firmware_Library/GD32E230_standard_peripheral/Source/gd32e230_spi.c:399:5
	b	.LBB13_3
.Ltmp53:
.LBB13_2:
	.loc	4 400 9                 @ ../GD32E230_Firmware_Library/GD32E230_standard_peripheral/Source/gd32e230_spi.c:400:9
	ldr	r0, [sp, #4]
	.loc	4 400 30 is_stmt 0      @ ../GD32E230_Firmware_Library/GD32E230_standard_peripheral/Source/gd32e230_spi.c:400:30
	ldr	r1, [r0, #4]
	movs	r2, #1
	orrs	r1, r2
	str	r1, [r0, #4]
	b	.LBB13_3
.Ltmp54:
.LBB13_3:
	.loc	4 402 1 is_stmt 1       @ ../GD32E230_Firmware_Library/GD32E230_standard_peripheral/Source/gd32e230_spi.c:402:1
	add	sp, #8
	bx	lr
.Ltmp55:
.Lfunc_end13:
	.size	spi_dma_enable, .Lfunc_end13-spi_dma_enable
	.cfi_endproc
	.cantunwind
	.fnend
                                        @ -- End function
	.section	.text.spi_dma_disable,"ax",%progbits
	.hidden	spi_dma_disable         @ -- Begin function spi_dma_disable
	.globl	spi_dma_disable
	.p2align	1
	.type	spi_dma_disable,%function
	.code	16                      @ @spi_dma_disable
	.thumb_func
spi_dma_disable:
.Lfunc_begin14:
	.loc	4 415 0                 @ ../GD32E230_Firmware_Library/GD32E230_standard_peripheral/Source/gd32e230_spi.c:415:0
	.fnstart
	.cfi_startproc
@ %bb.0:
	.pad	#8
	sub	sp, #8
	.cfi_def_cfa_offset 8
	mov	r2, r1
	str	r0, [sp, #4]
	mov	r0, sp
	strb	r1, [r0]
.Ltmp56:
	.loc	4 416 28 prologue_end   @ ../GD32E230_Firmware_Library/GD32E230_standard_peripheral/Source/gd32e230_spi.c:416:28
	ldrb	r0, [r0]
.Ltmp57:
	.loc	4 416 8 is_stmt 0       @ ../GD32E230_Firmware_Library/GD32E230_standard_peripheral/Source/gd32e230_spi.c:416:8
	cmp	r0, #0
	bne	.LBB14_2
	b	.LBB14_1
.LBB14_1:
.Ltmp58:
	.loc	4 417 9 is_stmt 1       @ ../GD32E230_Firmware_Library/GD32E230_standard_peripheral/Source/gd32e230_spi.c:417:9
	ldr	r0, [sp, #4]
	.loc	4 417 30 is_stmt 0      @ ../GD32E230_Firmware_Library/GD32E230_standard_peripheral/Source/gd32e230_spi.c:417:30
	ldr	r1, [r0, #4]
	movs	r2, #2
	bics	r1, r2
	str	r1, [r0, #4]
	.loc	4 418 5 is_stmt 1       @ ../GD32E230_Firmware_Library/GD32E230_standard_peripheral/Source/gd32e230_spi.c:418:5
	b	.LBB14_3
.Ltmp59:
.LBB14_2:
	.loc	4 419 9                 @ ../GD32E230_Firmware_Library/GD32E230_standard_peripheral/Source/gd32e230_spi.c:419:9
	ldr	r0, [sp, #4]
	.loc	4 419 30 is_stmt 0      @ ../GD32E230_Firmware_Library/GD32E230_standard_peripheral/Source/gd32e230_spi.c:419:30
	ldr	r1, [r0, #4]
	movs	r2, #1
	bics	r1, r2
	str	r1, [r0, #4]
	b	.LBB14_3
.Ltmp60:
.LBB14_3:
	.loc	4 421 1 is_stmt 1       @ ../GD32E230_Firmware_Library/GD32E230_standard_peripheral/Source/gd32e230_spi.c:421:1
	add	sp, #8
	bx	lr
.Ltmp61:
.Lfunc_end14:
	.size	spi_dma_disable, .Lfunc_end14-spi_dma_disable
	.cfi_endproc
	.cantunwind
	.fnend
                                        @ -- End function
	.section	.text.spi_i2s_data_frame_format_config,"ax",%progbits
	.hidden	spi_i2s_data_frame_format_config @ -- Begin function spi_i2s_data_frame_format_config
	.globl	spi_i2s_data_frame_format_config
	.p2align	2
	.type	spi_i2s_data_frame_format_config,%function
	.code	16                      @ @spi_i2s_data_frame_format_config
	.thumb_func
spi_i2s_data_frame_format_config:
.Lfunc_begin15:
	.loc	4 445 0                 @ ../GD32E230_Firmware_Library/GD32E230_standard_peripheral/Source/gd32e230_spi.c:445:0
	.fnstart
	.cfi_startproc
@ %bb.0:
	.pad	#12
	sub	sp, #12
	.cfi_def_cfa_offset 12
	mov	r2, r1
	str	r0, [sp, #4]
	mov	r0, sp
	strh	r1, [r0]
.Ltmp62:
	.loc	4 446 16 prologue_end   @ ../GD32E230_Firmware_Library/GD32E230_standard_peripheral/Source/gd32e230_spi.c:446:16
	ldr	r0, [sp, #4]
	ldr	r1, __arm_cp.15_0
.Ltmp63:
	.loc	4 446 8 is_stmt 0       @ ../GD32E230_Firmware_Library/GD32E230_standard_peripheral/Source/gd32e230_spi.c:446:8
	cmp	r0, r1
	bne	.LBB15_6
	b	.LBB15_1
.LBB15_1:
	.loc	4 0 8                   @ ../GD32E230_Firmware_Library/GD32E230_standard_peripheral/Source/gd32e230_spi.c:0:8
	mov	r0, sp
.Ltmp64:
	.loc	4 449 35 is_stmt 1      @ ../GD32E230_Firmware_Library/GD32E230_standard_peripheral/Source/gd32e230_spi.c:449:35
	ldrh	r0, [r0]
	movw	r1, #1792
	.loc	4 449 49 is_stmt 0      @ ../GD32E230_Firmware_Library/GD32E230_standard_peripheral/Source/gd32e230_spi.c:449:49
	cmp	r0, r1
	beq	.LBB15_4
	b	.LBB15_2
.LBB15_2:
	.loc	4 0 49                  @ ../GD32E230_Firmware_Library/GD32E230_standard_peripheral/Source/gd32e230_spi.c:0:49
	mov	r0, sp
	.loc	4 449 76                @ ../GD32E230_Firmware_Library/GD32E230_standard_peripheral/Source/gd32e230_spi.c:449:76
	ldrh	r0, [r0]
	movw	r1, #3840
.Ltmp65:
	.loc	4 449 12                @ ../GD32E230_Firmware_Library/GD32E230_standard_peripheral/Source/gd32e230_spi.c:449:12
	cmp	r0, r1
	beq	.LBB15_4
	b	.LBB15_3
.LBB15_3:
	.loc	4 0 12                  @ ../GD32E230_Firmware_Library/GD32E230_standard_peripheral/Source/gd32e230_spi.c:0:12
	add	r0, sp, #8
	movs	r1, #0
.Ltmp66:
	.loc	4 451 13 is_stmt 1      @ ../GD32E230_Firmware_Library/GD32E230_standard_peripheral/Source/gd32e230_spi.c:451:13
	strb	r1, [r0]
	b	.LBB15_8
.Ltmp67:
.LBB15_4:
	.loc	4 454 13                @ ../GD32E230_Firmware_Library/GD32E230_standard_peripheral/Source/gd32e230_spi.c:454:13
	ldr	r0, [sp, #4]
	.loc	4 454 34 is_stmt 0      @ ../GD32E230_Firmware_Library/GD32E230_standard_peripheral/Source/gd32e230_spi.c:454:34
	ldr	r1, [r0]
	movw	r2, #2048
	bics	r1, r2
	str	r1, [r0]
	mov	r0, sp
	.loc	4 456 38 is_stmt 1      @ ../GD32E230_Firmware_Library/GD32E230_standard_peripheral/Source/gd32e230_spi.c:456:38
	ldrh	r0, [r0]
	.loc	4 456 61 is_stmt 0      @ ../GD32E230_Firmware_Library/GD32E230_standard_peripheral/Source/gd32e230_spi.c:456:61
	ands	r0, r2
	.loc	4 456 13                @ ../GD32E230_Firmware_Library/GD32E230_standard_peripheral/Source/gd32e230_spi.c:456:13
	ldr	r1, [sp, #4]
	.loc	4 456 34                @ ../GD32E230_Firmware_Library/GD32E230_standard_peripheral/Source/gd32e230_spi.c:456:34
	ldr	r2, [r1]
	orrs	r2, r0
	str	r2, [r1]
	b	.LBB15_5
.Ltmp68:
.LBB15_5:
	.loc	4 458 5 is_stmt 1       @ ../GD32E230_Firmware_Library/GD32E230_standard_peripheral/Source/gd32e230_spi.c:458:5
	b	.LBB15_7
.Ltmp69:
.LBB15_6:
	.loc	4 461 9                 @ ../GD32E230_Firmware_Library/GD32E230_standard_peripheral/Source/gd32e230_spi.c:461:9
	ldr	r0, [sp, #4]
	.loc	4 461 30 is_stmt 0      @ ../GD32E230_Firmware_Library/GD32E230_standard_peripheral/Source/gd32e230_spi.c:461:30
	ldr	r1, [r0, #4]
	movw	r2, #3840
	bics	r1, r2
	str	r1, [r0, #4]
	mov	r0, sp
	.loc	4 463 43 is_stmt 1      @ ../GD32E230_Firmware_Library/GD32E230_standard_peripheral/Source/gd32e230_spi.c:463:43
	ldrh	r0, [r0]
	.loc	4 463 9 is_stmt 0       @ ../GD32E230_Firmware_Library/GD32E230_standard_peripheral/Source/gd32e230_spi.c:463:9
	ldr	r1, [sp, #4]
	.loc	4 463 30                @ ../GD32E230_Firmware_Library/GD32E230_standard_peripheral/Source/gd32e230_spi.c:463:30
	ldr	r2, [r1, #4]
	orrs	r2, r0
	str	r2, [r1, #4]
	b	.LBB15_7
.Ltmp70:
.LBB15_7:
	.loc	4 0 30                  @ ../GD32E230_Firmware_Library/GD32E230_standard_peripheral/Source/gd32e230_spi.c:0:30
	add	r0, sp, #8
	movs	r1, #1
	.loc	4 465 5 is_stmt 1       @ ../GD32E230_Firmware_Library/GD32E230_standard_peripheral/Source/gd32e230_spi.c:465:5
	strb	r1, [r0]
	b	.LBB15_8
.LBB15_8:
	.loc	4 0 5 is_stmt 0         @ ../GD32E230_Firmware_Library/GD32E230_standard_peripheral/Source/gd32e230_spi.c:0:5
	add	r0, sp, #8
	.loc	4 466 1 is_stmt 1       @ ../GD32E230_Firmware_Library/GD32E230_standard_peripheral/Source/gd32e230_spi.c:466:1
	ldrb	r0, [r0]
	add	sp, #12
	bx	lr
.Ltmp71:
	.p2align	2
@ %bb.9:
	.loc	4 0 1 is_stmt 0         @ ../GD32E230_Firmware_Library/GD32E230_standard_peripheral/Source/gd32e230_spi.c:0:1
__arm_cp.15_0:
	.long	1073819648              @ 0x40013000
.Lcpi_end6:
	.size	__arm_cp.15_0, .Lcpi_end6-__arm_cp.15_0
.Lfunc_end15:
	.size	spi_i2s_data_frame_format_config, .Lfunc_end15-spi_i2s_data_frame_format_config
	.cfi_endproc
	.cantunwind
	.fnend
                                        @ -- End function
	.section	.text.spi_i2s_data_transmit,"ax",%progbits
	.hidden	spi_i2s_data_transmit   @ -- Begin function spi_i2s_data_transmit
	.globl	spi_i2s_data_transmit
	.p2align	2
	.type	spi_i2s_data_transmit,%function
	.code	16                      @ @spi_i2s_data_transmit
	.thumb_func
spi_i2s_data_transmit:
.Lfunc_begin16:
	.loc	4 476 0 is_stmt 1       @ ../GD32E230_Firmware_Library/GD32E230_standard_peripheral/Source/gd32e230_spi.c:476:0
	.fnstart
	.cfi_startproc
@ %bb.0:
	.pad	#16
	sub	sp, #16
	.cfi_def_cfa_offset 16
	mov	r2, r1
	str	r0, [sp, #12]
	add	r0, sp, #8
	strh	r1, [r0]
.Ltmp72:
	.loc	4 478 16 prologue_end   @ ../GD32E230_Firmware_Library/GD32E230_standard_peripheral/Source/gd32e230_spi.c:478:16
	ldr	r0, [sp, #12]
	ldr	r1, __arm_cp.16_0
.Ltmp73:
	.loc	4 478 8 is_stmt 0       @ ../GD32E230_Firmware_Library/GD32E230_standard_peripheral/Source/gd32e230_spi.c:478:8
	cmp	r0, r1
	bne	.LBB16_2
	b	.LBB16_1
.LBB16_1:
	.loc	4 0 8                   @ ../GD32E230_Firmware_Library/GD32E230_standard_peripheral/Source/gd32e230_spi.c:0:8
	add	r0, sp, #8
.Ltmp74:
	.loc	4 480 42 is_stmt 1      @ ../GD32E230_Firmware_Library/GD32E230_standard_peripheral/Source/gd32e230_spi.c:480:42
	ldrh	r0, [r0]
	.loc	4 480 9 is_stmt 0       @ ../GD32E230_Firmware_Library/GD32E230_standard_peripheral/Source/gd32e230_spi.c:480:9
	ldr	r1, [sp, #12]
	.loc	4 480 30                @ ../GD32E230_Firmware_Library/GD32E230_standard_peripheral/Source/gd32e230_spi.c:480:30
	str	r0, [r1, #12]
	.loc	4 481 5 is_stmt 1       @ ../GD32E230_Firmware_Library/GD32E230_standard_peripheral/Source/gd32e230_spi.c:481:5
	b	.LBB16_6
.Ltmp75:
.LBB16_2:
	.loc	4 485 17                @ ../GD32E230_Firmware_Library/GD32E230_standard_peripheral/Source/gd32e230_spi.c:485:17
	ldr	r0, [sp, #12]
	ldr	r0, [r0, #4]
	movw	r1, #4096
	.loc	4 485 38 is_stmt 0      @ ../GD32E230_Firmware_Library/GD32E230_standard_peripheral/Source/gd32e230_spi.c:485:38
	ands	r0, r1
	.loc	4 485 15                @ ../GD32E230_Firmware_Library/GD32E230_standard_peripheral/Source/gd32e230_spi.c:485:15
	str	r0, [sp]
.Ltmp76:
	.loc	4 486 21 is_stmt 1      @ ../GD32E230_Firmware_Library/GD32E230_standard_peripheral/Source/gd32e230_spi.c:486:21
	ldr	r0, [sp]
.Ltmp77:
	.loc	4 486 12 is_stmt 0      @ ../GD32E230_Firmware_Library/GD32E230_standard_peripheral/Source/gd32e230_spi.c:486:12
	cmp	r0, #0
	beq	.LBB16_4
	b	.LBB16_3
.LBB16_3:
.Ltmp78:
	.loc	4 488 19 is_stmt 1      @ ../GD32E230_Firmware_Library/GD32E230_standard_peripheral/Source/gd32e230_spi.c:488:19
	ldr	r0, [sp, #12]
	.loc	4 488 30 is_stmt 0      @ ../GD32E230_Firmware_Library/GD32E230_standard_peripheral/Source/gd32e230_spi.c:488:30
	adds	r0, #12
	.loc	4 488 17                @ ../GD32E230_Firmware_Library/GD32E230_standard_peripheral/Source/gd32e230_spi.c:488:17
	str	r0, [sp, #4]
	.loc	4 489 43 is_stmt 1      @ ../GD32E230_Firmware_Library/GD32E230_standard_peripheral/Source/gd32e230_spi.c:489:43
	ldr	r0, [sp, #8]
	.loc	4 489 27 is_stmt 0      @ ../GD32E230_Firmware_Library/GD32E230_standard_peripheral/Source/gd32e230_spi.c:489:27
	ldr	r1, [sp, #4]
	.loc	4 489 32                @ ../GD32E230_Firmware_Library/GD32E230_standard_peripheral/Source/gd32e230_spi.c:489:32
	strb	r0, [r1]
	.loc	4 490 9 is_stmt 1       @ ../GD32E230_Firmware_Library/GD32E230_standard_peripheral/Source/gd32e230_spi.c:490:9
	b	.LBB16_5
.Ltmp79:
.LBB16_4:
	.loc	4 0 9 is_stmt 0         @ ../GD32E230_Firmware_Library/GD32E230_standard_peripheral/Source/gd32e230_spi.c:0:9
	add	r0, sp, #8
.Ltmp80:
	.loc	4 492 46 is_stmt 1      @ ../GD32E230_Firmware_Library/GD32E230_standard_peripheral/Source/gd32e230_spi.c:492:46
	ldrh	r0, [r0]
	.loc	4 492 13 is_stmt 0      @ ../GD32E230_Firmware_Library/GD32E230_standard_peripheral/Source/gd32e230_spi.c:492:13
	ldr	r1, [sp, #12]
	.loc	4 492 34                @ ../GD32E230_Firmware_Library/GD32E230_standard_peripheral/Source/gd32e230_spi.c:492:34
	str	r0, [r1, #12]
	b	.LBB16_5
.Ltmp81:
.LBB16_5:
	.loc	4 0 34                  @ ../GD32E230_Firmware_Library/GD32E230_standard_peripheral/Source/gd32e230_spi.c:0:34
	b	.LBB16_6
.LBB16_6:
	.loc	4 495 1 is_stmt 1       @ ../GD32E230_Firmware_Library/GD32E230_standard_peripheral/Source/gd32e230_spi.c:495:1
	add	sp, #16
	bx	lr
.Ltmp82:
	.p2align	2
@ %bb.7:
	.loc	4 0 1 is_stmt 0         @ ../GD32E230_Firmware_Library/GD32E230_standard_peripheral/Source/gd32e230_spi.c:0:1
__arm_cp.16_0:
	.long	1073819648              @ 0x40013000
.Lcpi_end7:
	.size	__arm_cp.16_0, .Lcpi_end7-__arm_cp.16_0
.Lfunc_end16:
	.size	spi_i2s_data_transmit, .Lfunc_end16-spi_i2s_data_transmit
	.cfi_endproc
	.cantunwind
	.fnend
                                        @ -- End function
	.section	.text.spi_i2s_data_receive,"ax",%progbits
	.hidden	spi_i2s_data_receive    @ -- Begin function spi_i2s_data_receive
	.globl	spi_i2s_data_receive
	.p2align	2
	.type	spi_i2s_data_receive,%function
	.code	16                      @ @spi_i2s_data_receive
	.thumb_func
spi_i2s_data_receive:
.Lfunc_begin17:
	.loc	4 504 0 is_stmt 1       @ ../GD32E230_Firmware_Library/GD32E230_standard_peripheral/Source/gd32e230_spi.c:504:0
	.fnstart
	.cfi_startproc
@ %bb.0:
	.pad	#16
	sub	sp, #16
	.cfi_def_cfa_offset 16
	str	r0, [sp, #8]
.Ltmp83:
	.loc	4 506 16 prologue_end   @ ../GD32E230_Firmware_Library/GD32E230_standard_peripheral/Source/gd32e230_spi.c:506:16
	ldr	r0, [sp, #8]
	ldr	r1, __arm_cp.17_0
.Ltmp84:
	.loc	4 506 8 is_stmt 0       @ ../GD32E230_Firmware_Library/GD32E230_standard_peripheral/Source/gd32e230_spi.c:506:8
	cmp	r0, r1
	bne	.LBB17_2
	b	.LBB17_1
.LBB17_1:
.Ltmp85:
	.loc	4 508 27 is_stmt 1      @ ../GD32E230_Firmware_Library/GD32E230_standard_peripheral/Source/gd32e230_spi.c:508:27
	ldr	r0, [sp, #8]
	ldr	r0, [r0, #12]
	add	r1, sp, #12
	.loc	4 508 9 is_stmt 0       @ ../GD32E230_Firmware_Library/GD32E230_standard_peripheral/Source/gd32e230_spi.c:508:9
	strh	r0, [r1]
	b	.LBB17_5
.Ltmp86:
.LBB17_2:
	.loc	4 513 17 is_stmt 1      @ ../GD32E230_Firmware_Library/GD32E230_standard_peripheral/Source/gd32e230_spi.c:513:17
	ldr	r0, [sp, #8]
	ldr	r0, [r0, #4]
	movw	r1, #4096
	.loc	4 513 38 is_stmt 0      @ ../GD32E230_Firmware_Library/GD32E230_standard_peripheral/Source/gd32e230_spi.c:513:38
	ands	r0, r1
	.loc	4 513 15                @ ../GD32E230_Firmware_Library/GD32E230_standard_peripheral/Source/gd32e230_spi.c:513:15
	str	r0, [sp]
.Ltmp87:
	.loc	4 514 21 is_stmt 1      @ ../GD32E230_Firmware_Library/GD32E230_standard_peripheral/Source/gd32e230_spi.c:514:21
	ldr	r0, [sp]
.Ltmp88:
	.loc	4 514 12 is_stmt 0      @ ../GD32E230_Firmware_Library/GD32E230_standard_peripheral/Source/gd32e230_spi.c:514:12
	cmp	r0, #0
	beq	.LBB17_4
	b	.LBB17_3
.LBB17_3:
.Ltmp89:
	.loc	4 516 19 is_stmt 1      @ ../GD32E230_Firmware_Library/GD32E230_standard_peripheral/Source/gd32e230_spi.c:516:19
	ldr	r0, [sp, #8]
	.loc	4 516 30 is_stmt 0      @ ../GD32E230_Firmware_Library/GD32E230_standard_peripheral/Source/gd32e230_spi.c:516:30
	adds	r0, #12
	.loc	4 516 17                @ ../GD32E230_Firmware_Library/GD32E230_standard_peripheral/Source/gd32e230_spi.c:516:17
	str	r0, [sp, #4]
	.loc	4 517 44 is_stmt 1      @ ../GD32E230_Firmware_Library/GD32E230_standard_peripheral/Source/gd32e230_spi.c:517:44
	ldr	r0, [sp, #4]
	.loc	4 517 31 is_stmt 0      @ ../GD32E230_Firmware_Library/GD32E230_standard_peripheral/Source/gd32e230_spi.c:517:31
	ldrb	r0, [r0]
	add	r1, sp, #12
	.loc	4 517 13                @ ../GD32E230_Firmware_Library/GD32E230_standard_peripheral/Source/gd32e230_spi.c:517:13
	strh	r0, [r1]
	b	.LBB17_5
.Ltmp90:
.LBB17_4:
	.loc	4 520 31 is_stmt 1      @ ../GD32E230_Firmware_Library/GD32E230_standard_peripheral/Source/gd32e230_spi.c:520:31
	ldr	r0, [sp, #8]
	ldr	r0, [r0, #12]
	add	r1, sp, #12
	.loc	4 520 13 is_stmt 0      @ ../GD32E230_Firmware_Library/GD32E230_standard_peripheral/Source/gd32e230_spi.c:520:13
	strh	r0, [r1]
	b	.LBB17_5
.Ltmp91:
.LBB17_5:
	.loc	4 0 13                  @ ../GD32E230_Firmware_Library/GD32E230_standard_peripheral/Source/gd32e230_spi.c:0:13
	add	r0, sp, #12
	.loc	4 523 1 is_stmt 1       @ ../GD32E230_Firmware_Library/GD32E230_standard_peripheral/Source/gd32e230_spi.c:523:1
	ldrh	r0, [r0]
	add	sp, #16
	bx	lr
.Ltmp92:
	.p2align	2
@ %bb.6:
	.loc	4 0 1 is_stmt 0         @ ../GD32E230_Firmware_Library/GD32E230_standard_peripheral/Source/gd32e230_spi.c:0:1
__arm_cp.17_0:
	.long	1073819648              @ 0x40013000
.Lcpi_end8:
	.size	__arm_cp.17_0, .Lcpi_end8-__arm_cp.17_0
.Lfunc_end17:
	.size	spi_i2s_data_receive, .Lfunc_end17-spi_i2s_data_receive
	.cfi_endproc
	.cantunwind
	.fnend
                                        @ -- End function
	.section	.text.spi_bidirectional_transfer_config,"ax",%progbits
	.hidden	spi_bidirectional_transfer_config @ -- Begin function spi_bidirectional_transfer_config
	.globl	spi_bidirectional_transfer_config
	.p2align	1
	.type	spi_bidirectional_transfer_config,%function
	.code	16                      @ @spi_bidirectional_transfer_config
	.thumb_func
spi_bidirectional_transfer_config:
.Lfunc_begin18:
	.loc	4 536 0 is_stmt 1       @ ../GD32E230_Firmware_Library/GD32E230_standard_peripheral/Source/gd32e230_spi.c:536:0
	.fnstart
	.cfi_startproc
@ %bb.0:
	.pad	#8
	sub	sp, #8
	.cfi_def_cfa_offset 8
	str	r0, [sp, #4]
	str	r1, [sp]
.Ltmp93:
	.loc	4 537 38 prologue_end   @ ../GD32E230_Firmware_Library/GD32E230_standard_peripheral/Source/gd32e230_spi.c:537:38
	ldr	r0, [sp]
	movw	r1, #16384
.Ltmp94:
	.loc	4 537 8 is_stmt 0       @ ../GD32E230_Firmware_Library/GD32E230_standard_peripheral/Source/gd32e230_spi.c:537:8
	cmp	r0, r1
	bne	.LBB18_2
	b	.LBB18_1
.LBB18_1:
.Ltmp95:
	.loc	4 539 9 is_stmt 1       @ ../GD32E230_Firmware_Library/GD32E230_standard_peripheral/Source/gd32e230_spi.c:539:9
	ldr	r0, [sp, #4]
	.loc	4 539 30 is_stmt 0      @ ../GD32E230_Firmware_Library/GD32E230_standard_peripheral/Source/gd32e230_spi.c:539:30
	ldr	r1, [r0]
	movw	r2, #16384
	orrs	r1, r2
	str	r1, [r0]
	.loc	4 540 5 is_stmt 1       @ ../GD32E230_Firmware_Library/GD32E230_standard_peripheral/Source/gd32e230_spi.c:540:5
	b	.LBB18_3
.Ltmp96:
.LBB18_2:
	.loc	4 542 9                 @ ../GD32E230_Firmware_Library/GD32E230_standard_peripheral/Source/gd32e230_spi.c:542:9
	ldr	r0, [sp, #4]
	.loc	4 542 30 is_stmt 0      @ ../GD32E230_Firmware_Library/GD32E230_standard_peripheral/Source/gd32e230_spi.c:542:30
	ldr	r1, [r0]
	movw	r2, #16384
	bics	r1, r2
	str	r1, [r0]
	b	.LBB18_3
.Ltmp97:
.LBB18_3:
	.loc	4 544 1 is_stmt 1       @ ../GD32E230_Firmware_Library/GD32E230_standard_peripheral/Source/gd32e230_spi.c:544:1
	add	sp, #8
	bx	lr
.Ltmp98:
.Lfunc_end18:
	.size	spi_bidirectional_transfer_config, .Lfunc_end18-spi_bidirectional_transfer_config
	.cfi_endproc
	.cantunwind
	.fnend
                                        @ -- End function
	.section	.text.spi_crc_polynomial_set,"ax",%progbits
	.hidden	spi_crc_polynomial_set  @ -- Begin function spi_crc_polynomial_set
	.globl	spi_crc_polynomial_set
	.p2align	1
	.type	spi_crc_polynomial_set,%function
	.code	16                      @ @spi_crc_polynomial_set
	.thumb_func
spi_crc_polynomial_set:
.Lfunc_begin19:
	.loc	4 554 0                 @ ../GD32E230_Firmware_Library/GD32E230_standard_peripheral/Source/gd32e230_spi.c:554:0
	.fnstart
	.cfi_startproc
@ %bb.0:
	.save	{r4, lr}
	push	{r4, lr}
	.cfi_def_cfa_offset 8
	.cfi_offset lr, -4
	.cfi_offset r4, -8
	.pad	#8
	sub	sp, #8
	.cfi_def_cfa_offset 16
	mov	r2, r1
	str	r0, [sp, #4]
	mov	r0, sp
	strh	r1, [r0]
.Ltmp99:
	.loc	4 556 5 prologue_end    @ ../GD32E230_Firmware_Library/GD32E230_standard_peripheral/Source/gd32e230_spi.c:556:5
	ldr	r1, [sp, #4]
	.loc	4 556 26 is_stmt 0      @ ../GD32E230_Firmware_Library/GD32E230_standard_peripheral/Source/gd32e230_spi.c:556:26
	ldr	r3, [r1]
	movw	r4, #8192
	orrs	r3, r4
	str	r3, [r1]
	.loc	4 558 41 is_stmt 1      @ ../GD32E230_Firmware_Library/GD32E230_standard_peripheral/Source/gd32e230_spi.c:558:41
	ldrh	r0, [r0]
	.loc	4 558 5 is_stmt 0       @ ../GD32E230_Firmware_Library/GD32E230_standard_peripheral/Source/gd32e230_spi.c:558:5
	ldr	r1, [sp, #4]
	.loc	4 558 29                @ ../GD32E230_Firmware_Library/GD32E230_standard_peripheral/Source/gd32e230_spi.c:558:29
	str	r0, [r1, #16]
	.loc	4 559 1 is_stmt 1       @ ../GD32E230_Firmware_Library/GD32E230_standard_peripheral/Source/gd32e230_spi.c:559:1
	add	sp, #8
	pop	{r4, pc}
.Ltmp100:
.Lfunc_end19:
	.size	spi_crc_polynomial_set, .Lfunc_end19-spi_crc_polynomial_set
	.cfi_endproc
	.cantunwind
	.fnend
                                        @ -- End function
	.section	.text.spi_crc_polynomial_get,"ax",%progbits
	.hidden	spi_crc_polynomial_get  @ -- Begin function spi_crc_polynomial_get
	.globl	spi_crc_polynomial_get
	.p2align	1
	.type	spi_crc_polynomial_get,%function
	.code	16                      @ @spi_crc_polynomial_get
	.thumb_func
spi_crc_polynomial_get:
.Lfunc_begin20:
	.loc	4 568 0                 @ ../GD32E230_Firmware_Library/GD32E230_standard_peripheral/Source/gd32e230_spi.c:568:0
	.fnstart
	.cfi_startproc
@ %bb.0:
	.pad	#4
	sub	sp, #4
	.cfi_def_cfa_offset 4
	str	r0, [sp]
.Ltmp101:
	.loc	4 569 23 prologue_end   @ ../GD32E230_Firmware_Library/GD32E230_standard_peripheral/Source/gd32e230_spi.c:569:23
	ldr	r0, [sp]
	ldr	r0, [r0, #16]
	.loc	4 569 5 is_stmt 0       @ ../GD32E230_Firmware_Library/GD32E230_standard_peripheral/Source/gd32e230_spi.c:569:5
	uxth	r0, r0
	add	sp, #4
	bx	lr
.Ltmp102:
.Lfunc_end20:
	.size	spi_crc_polynomial_get, .Lfunc_end20-spi_crc_polynomial_get
	.cfi_endproc
	.cantunwind
	.fnend
                                        @ -- End function
	.section	.text.spi_crc_on,"ax",%progbits
	.hidden	spi_crc_on              @ -- Begin function spi_crc_on
	.globl	spi_crc_on
	.p2align	1
	.type	spi_crc_on,%function
	.code	16                      @ @spi_crc_on
	.thumb_func
spi_crc_on:
.Lfunc_begin21:
	.loc	4 579 0 is_stmt 1       @ ../GD32E230_Firmware_Library/GD32E230_standard_peripheral/Source/gd32e230_spi.c:579:0
	.fnstart
	.cfi_startproc
@ %bb.0:
	.pad	#4
	sub	sp, #4
	.cfi_def_cfa_offset 4
	str	r0, [sp]
.Ltmp103:
	.loc	4 580 5 prologue_end    @ ../GD32E230_Firmware_Library/GD32E230_standard_peripheral/Source/gd32e230_spi.c:580:5
	ldr	r0, [sp]
	.loc	4 580 26 is_stmt 0      @ ../GD32E230_Firmware_Library/GD32E230_standard_peripheral/Source/gd32e230_spi.c:580:26
	ldr	r1, [r0]
	movw	r2, #8192
	orrs	r1, r2
	str	r1, [r0]
	.loc	4 581 1 is_stmt 1       @ ../GD32E230_Firmware_Library/GD32E230_standard_peripheral/Source/gd32e230_spi.c:581:1
	add	sp, #4
	bx	lr
.Ltmp104:
.Lfunc_end21:
	.size	spi_crc_on, .Lfunc_end21-spi_crc_on
	.cfi_endproc
	.cantunwind
	.fnend
                                        @ -- End function
	.section	.text.spi_crc_off,"ax",%progbits
	.hidden	spi_crc_off             @ -- Begin function spi_crc_off
	.globl	spi_crc_off
	.p2align	1
	.type	spi_crc_off,%function
	.code	16                      @ @spi_crc_off
	.thumb_func
spi_crc_off:
.Lfunc_begin22:
	.loc	4 590 0                 @ ../GD32E230_Firmware_Library/GD32E230_standard_peripheral/Source/gd32e230_spi.c:590:0
	.fnstart
	.cfi_startproc
@ %bb.0:
	.pad	#4
	sub	sp, #4
	.cfi_def_cfa_offset 4
	str	r0, [sp]
.Ltmp105:
	.loc	4 591 5 prologue_end    @ ../GD32E230_Firmware_Library/GD32E230_standard_peripheral/Source/gd32e230_spi.c:591:5
	ldr	r0, [sp]
	.loc	4 591 26 is_stmt 0      @ ../GD32E230_Firmware_Library/GD32E230_standard_peripheral/Source/gd32e230_spi.c:591:26
	ldr	r1, [r0]
	movw	r2, #8192
	bics	r1, r2
	str	r1, [r0]
	.loc	4 592 1 is_stmt 1       @ ../GD32E230_Firmware_Library/GD32E230_standard_peripheral/Source/gd32e230_spi.c:592:1
	add	sp, #4
	bx	lr
.Ltmp106:
.Lfunc_end22:
	.size	spi_crc_off, .Lfunc_end22-spi_crc_off
	.cfi_endproc
	.cantunwind
	.fnend
                                        @ -- End function
	.section	.text.spi_crc_next,"ax",%progbits
	.hidden	spi_crc_next            @ -- Begin function spi_crc_next
	.globl	spi_crc_next
	.p2align	1
	.type	spi_crc_next,%function
	.code	16                      @ @spi_crc_next
	.thumb_func
spi_crc_next:
.Lfunc_begin23:
	.loc	4 601 0                 @ ../GD32E230_Firmware_Library/GD32E230_standard_peripheral/Source/gd32e230_spi.c:601:0
	.fnstart
	.cfi_startproc
@ %bb.0:
	.pad	#4
	sub	sp, #4
	.cfi_def_cfa_offset 4
	str	r0, [sp]
.Ltmp107:
	.loc	4 602 5 prologue_end    @ ../GD32E230_Firmware_Library/GD32E230_standard_peripheral/Source/gd32e230_spi.c:602:5
	ldr	r0, [sp]
	.loc	4 602 26 is_stmt 0      @ ../GD32E230_Firmware_Library/GD32E230_standard_peripheral/Source/gd32e230_spi.c:602:26
	ldr	r1, [r0]
	movw	r2, #4096
	orrs	r1, r2
	str	r1, [r0]
	.loc	4 603 1 is_stmt 1       @ ../GD32E230_Firmware_Library/GD32E230_standard_peripheral/Source/gd32e230_spi.c:603:1
	add	sp, #4
	bx	lr
.Ltmp108:
.Lfunc_end23:
	.size	spi_crc_next, .Lfunc_end23-spi_crc_next
	.cfi_endproc
	.cantunwind
	.fnend
                                        @ -- End function
	.section	.text.spi_crc_get,"ax",%progbits
	.hidden	spi_crc_get             @ -- Begin function spi_crc_get
	.globl	spi_crc_get
	.p2align	1
	.type	spi_crc_get,%function
	.code	16                      @ @spi_crc_get
	.thumb_func
spi_crc_get:
.Lfunc_begin24:
	.loc	4 616 0                 @ ../GD32E230_Firmware_Library/GD32E230_standard_peripheral/Source/gd32e230_spi.c:616:0
	.fnstart
	.cfi_startproc
@ %bb.0:
	.pad	#12
	sub	sp, #12
	.cfi_def_cfa_offset 12
	mov	r2, r1
	str	r0, [sp, #4]
	mov	r0, sp
	strb	r1, [r0]
.Ltmp109:
	.loc	4 617 22 prologue_end   @ ../GD32E230_Firmware_Library/GD32E230_standard_peripheral/Source/gd32e230_spi.c:617:22
	ldrb	r0, [r0]
.Ltmp110:
	.loc	4 617 8 is_stmt 0       @ ../GD32E230_Firmware_Library/GD32E230_standard_peripheral/Source/gd32e230_spi.c:617:8
	cmp	r0, #0
	bne	.LBB24_2
	b	.LBB24_1
.LBB24_1:
.Ltmp111:
	.loc	4 618 28 is_stmt 1      @ ../GD32E230_Firmware_Library/GD32E230_standard_peripheral/Source/gd32e230_spi.c:618:28
	ldr	r0, [sp, #4]
	ldr	r0, [r0, #24]
	add	r1, sp, #8
	.loc	4 618 9 is_stmt 0       @ ../GD32E230_Firmware_Library/GD32E230_standard_peripheral/Source/gd32e230_spi.c:618:9
	strh	r0, [r1]
	b	.LBB24_3
.Ltmp112:
.LBB24_2:
	.loc	4 620 28 is_stmt 1      @ ../GD32E230_Firmware_Library/GD32E230_standard_peripheral/Source/gd32e230_spi.c:620:28
	ldr	r0, [sp, #4]
	ldr	r0, [r0, #20]
	add	r1, sp, #8
	.loc	4 620 9 is_stmt 0       @ ../GD32E230_Firmware_Library/GD32E230_standard_peripheral/Source/gd32e230_spi.c:620:9
	strh	r0, [r1]
	b	.LBB24_3
.Ltmp113:
.LBB24_3:
	.loc	4 0 9                   @ ../GD32E230_Firmware_Library/GD32E230_standard_peripheral/Source/gd32e230_spi.c:0:9
	add	r0, sp, #8
	.loc	4 622 1 is_stmt 1       @ ../GD32E230_Firmware_Library/GD32E230_standard_peripheral/Source/gd32e230_spi.c:622:1
	ldrh	r0, [r0]
	add	sp, #12
	bx	lr
.Ltmp114:
.Lfunc_end24:
	.size	spi_crc_get, .Lfunc_end24-spi_crc_get
	.cfi_endproc
	.cantunwind
	.fnend
                                        @ -- End function
	.section	.text.spi_ti_mode_enable,"ax",%progbits
	.hidden	spi_ti_mode_enable      @ -- Begin function spi_ti_mode_enable
	.globl	spi_ti_mode_enable
	.p2align	1
	.type	spi_ti_mode_enable,%function
	.code	16                      @ @spi_ti_mode_enable
	.thumb_func
spi_ti_mode_enable:
.Lfunc_begin25:
	.loc	4 631 0                 @ ../GD32E230_Firmware_Library/GD32E230_standard_peripheral/Source/gd32e230_spi.c:631:0
	.fnstart
	.cfi_startproc
@ %bb.0:
	.pad	#4
	sub	sp, #4
	.cfi_def_cfa_offset 4
	str	r0, [sp]
.Ltmp115:
	.loc	4 632 5 prologue_end    @ ../GD32E230_Firmware_Library/GD32E230_standard_peripheral/Source/gd32e230_spi.c:632:5
	ldr	r0, [sp]
	.loc	4 632 26 is_stmt 0      @ ../GD32E230_Firmware_Library/GD32E230_standard_peripheral/Source/gd32e230_spi.c:632:26
	ldr	r1, [r0, #4]
	movs	r2, #16
	orrs	r1, r2
	str	r1, [r0, #4]
	.loc	4 633 1 is_stmt 1       @ ../GD32E230_Firmware_Library/GD32E230_standard_peripheral/Source/gd32e230_spi.c:633:1
	add	sp, #4
	bx	lr
.Ltmp116:
.Lfunc_end25:
	.size	spi_ti_mode_enable, .Lfunc_end25-spi_ti_mode_enable
	.cfi_endproc
	.cantunwind
	.fnend
                                        @ -- End function
	.section	.text.spi_ti_mode_disable,"ax",%progbits
	.hidden	spi_ti_mode_disable     @ -- Begin function spi_ti_mode_disable
	.globl	spi_ti_mode_disable
	.p2align	1
	.type	spi_ti_mode_disable,%function
	.code	16                      @ @spi_ti_mode_disable
	.thumb_func
spi_ti_mode_disable:
.Lfunc_begin26:
	.loc	4 642 0                 @ ../GD32E230_Firmware_Library/GD32E230_standard_peripheral/Source/gd32e230_spi.c:642:0
	.fnstart
	.cfi_startproc
@ %bb.0:
	.pad	#4
	sub	sp, #4
	.cfi_def_cfa_offset 4
	str	r0, [sp]
.Ltmp117:
	.loc	4 643 5 prologue_end    @ ../GD32E230_Firmware_Library/GD32E230_standard_peripheral/Source/gd32e230_spi.c:643:5
	ldr	r0, [sp]
	.loc	4 643 26 is_stmt 0      @ ../GD32E230_Firmware_Library/GD32E230_standard_peripheral/Source/gd32e230_spi.c:643:26
	ldr	r1, [r0, #4]
	movs	r2, #16
	bics	r1, r2
	str	r1, [r0, #4]
	.loc	4 644 1 is_stmt 1       @ ../GD32E230_Firmware_Library/GD32E230_standard_peripheral/Source/gd32e230_spi.c:644:1
	add	sp, #4
	bx	lr
.Ltmp118:
.Lfunc_end26:
	.size	spi_ti_mode_disable, .Lfunc_end26-spi_ti_mode_disable
	.cfi_endproc
	.cantunwind
	.fnend
                                        @ -- End function
	.section	.text.spi_nssp_mode_enable,"ax",%progbits
	.hidden	spi_nssp_mode_enable    @ -- Begin function spi_nssp_mode_enable
	.globl	spi_nssp_mode_enable
	.p2align	1
	.type	spi_nssp_mode_enable,%function
	.code	16                      @ @spi_nssp_mode_enable
	.thumb_func
spi_nssp_mode_enable:
.Lfunc_begin27:
	.loc	4 653 0                 @ ../GD32E230_Firmware_Library/GD32E230_standard_peripheral/Source/gd32e230_spi.c:653:0
	.fnstart
	.cfi_startproc
@ %bb.0:
	.pad	#4
	sub	sp, #4
	.cfi_def_cfa_offset 4
	str	r0, [sp]
.Ltmp119:
	.loc	4 654 5 prologue_end    @ ../GD32E230_Firmware_Library/GD32E230_standard_peripheral/Source/gd32e230_spi.c:654:5
	ldr	r0, [sp]
	.loc	4 654 26 is_stmt 0      @ ../GD32E230_Firmware_Library/GD32E230_standard_peripheral/Source/gd32e230_spi.c:654:26
	ldr	r1, [r0, #4]
	movs	r2, #8
	orrs	r1, r2
	str	r1, [r0, #4]
	.loc	4 655 1 is_stmt 1       @ ../GD32E230_Firmware_Library/GD32E230_standard_peripheral/Source/gd32e230_spi.c:655:1
	add	sp, #4
	bx	lr
.Ltmp120:
.Lfunc_end27:
	.size	spi_nssp_mode_enable, .Lfunc_end27-spi_nssp_mode_enable
	.cfi_endproc
	.cantunwind
	.fnend
                                        @ -- End function
	.section	.text.spi_nssp_mode_disable,"ax",%progbits
	.hidden	spi_nssp_mode_disable   @ -- Begin function spi_nssp_mode_disable
	.globl	spi_nssp_mode_disable
	.p2align	1
	.type	spi_nssp_mode_disable,%function
	.code	16                      @ @spi_nssp_mode_disable
	.thumb_func
spi_nssp_mode_disable:
.Lfunc_begin28:
	.loc	4 664 0                 @ ../GD32E230_Firmware_Library/GD32E230_standard_peripheral/Source/gd32e230_spi.c:664:0
	.fnstart
	.cfi_startproc
@ %bb.0:
	.pad	#4
	sub	sp, #4
	.cfi_def_cfa_offset 4
	str	r0, [sp]
.Ltmp121:
	.loc	4 665 5 prologue_end    @ ../GD32E230_Firmware_Library/GD32E230_standard_peripheral/Source/gd32e230_spi.c:665:5
	ldr	r0, [sp]
	.loc	4 665 26 is_stmt 0      @ ../GD32E230_Firmware_Library/GD32E230_standard_peripheral/Source/gd32e230_spi.c:665:26
	ldr	r1, [r0, #4]
	movs	r2, #8
	bics	r1, r2
	str	r1, [r0, #4]
	.loc	4 666 1 is_stmt 1       @ ../GD32E230_Firmware_Library/GD32E230_standard_peripheral/Source/gd32e230_spi.c:666:1
	add	sp, #4
	bx	lr
.Ltmp122:
.Lfunc_end28:
	.size	spi_nssp_mode_disable, .Lfunc_end28-spi_nssp_mode_disable
	.cfi_endproc
	.cantunwind
	.fnend
                                        @ -- End function
	.section	.text.qspi_enable,"ax",%progbits
	.hidden	qspi_enable             @ -- Begin function qspi_enable
	.globl	qspi_enable
	.p2align	1
	.type	qspi_enable,%function
	.code	16                      @ @qspi_enable
	.thumb_func
qspi_enable:
.Lfunc_begin29:
	.loc	4 675 0                 @ ../GD32E230_Firmware_Library/GD32E230_standard_peripheral/Source/gd32e230_spi.c:675:0
	.fnstart
	.cfi_startproc
@ %bb.0:
	.pad	#4
	sub	sp, #4
	.cfi_def_cfa_offset 4
	str	r0, [sp]
.Ltmp123:
	.loc	4 676 5 prologue_end    @ ../GD32E230_Firmware_Library/GD32E230_standard_peripheral/Source/gd32e230_spi.c:676:5
	ldr	r0, [sp]
	movs	r1, #128
	.loc	4 676 26 is_stmt 0      @ ../GD32E230_Firmware_Library/GD32E230_standard_peripheral/Source/gd32e230_spi.c:676:26
	ldr	r2, [r0, r1]
	movs	r3, #1
	orrs	r2, r3
	str	r2, [r0, r1]
	.loc	4 677 1 is_stmt 1       @ ../GD32E230_Firmware_Library/GD32E230_standard_peripheral/Source/gd32e230_spi.c:677:1
	add	sp, #4
	bx	lr
.Ltmp124:
.Lfunc_end29:
	.size	qspi_enable, .Lfunc_end29-qspi_enable
	.cfi_endproc
	.cantunwind
	.fnend
                                        @ -- End function
	.section	.text.qspi_disable,"ax",%progbits
	.hidden	qspi_disable            @ -- Begin function qspi_disable
	.globl	qspi_disable
	.p2align	1
	.type	qspi_disable,%function
	.code	16                      @ @qspi_disable
	.thumb_func
qspi_disable:
.Lfunc_begin30:
	.loc	4 686 0                 @ ../GD32E230_Firmware_Library/GD32E230_standard_peripheral/Source/gd32e230_spi.c:686:0
	.fnstart
	.cfi_startproc
@ %bb.0:
	.pad	#4
	sub	sp, #4
	.cfi_def_cfa_offset 4
	str	r0, [sp]
.Ltmp125:
	.loc	4 687 5 prologue_end    @ ../GD32E230_Firmware_Library/GD32E230_standard_peripheral/Source/gd32e230_spi.c:687:5
	ldr	r0, [sp]
	movs	r1, #128
	.loc	4 687 26 is_stmt 0      @ ../GD32E230_Firmware_Library/GD32E230_standard_peripheral/Source/gd32e230_spi.c:687:26
	ldr	r2, [r0, r1]
	movs	r3, #1
	bics	r2, r3
	str	r2, [r0, r1]
	.loc	4 688 1 is_stmt 1       @ ../GD32E230_Firmware_Library/GD32E230_standard_peripheral/Source/gd32e230_spi.c:688:1
	add	sp, #4
	bx	lr
.Ltmp126:
.Lfunc_end30:
	.size	qspi_disable, .Lfunc_end30-qspi_disable
	.cfi_endproc
	.cantunwind
	.fnend
                                        @ -- End function
	.section	.text.qspi_write_enable,"ax",%progbits
	.hidden	qspi_write_enable       @ -- Begin function qspi_write_enable
	.globl	qspi_write_enable
	.p2align	1
	.type	qspi_write_enable,%function
	.code	16                      @ @qspi_write_enable
	.thumb_func
qspi_write_enable:
.Lfunc_begin31:
	.loc	4 697 0                 @ ../GD32E230_Firmware_Library/GD32E230_standard_peripheral/Source/gd32e230_spi.c:697:0
	.fnstart
	.cfi_startproc
@ %bb.0:
	.pad	#4
	sub	sp, #4
	.cfi_def_cfa_offset 4
	str	r0, [sp]
.Ltmp127:
	.loc	4 698 5 prologue_end    @ ../GD32E230_Firmware_Library/GD32E230_standard_peripheral/Source/gd32e230_spi.c:698:5
	ldr	r0, [sp]
	movs	r1, #128
	.loc	4 698 26 is_stmt 0      @ ../GD32E230_Firmware_Library/GD32E230_standard_peripheral/Source/gd32e230_spi.c:698:26
	ldr	r2, [r0, r1]
	movs	r3, #2
	bics	r2, r3
	str	r2, [r0, r1]
	.loc	4 699 1 is_stmt 1       @ ../GD32E230_Firmware_Library/GD32E230_standard_peripheral/Source/gd32e230_spi.c:699:1
	add	sp, #4
	bx	lr
.Ltmp128:
.Lfunc_end31:
	.size	qspi_write_enable, .Lfunc_end31-qspi_write_enable
	.cfi_endproc
	.cantunwind
	.fnend
                                        @ -- End function
	.section	.text.qspi_read_enable,"ax",%progbits
	.hidden	qspi_read_enable        @ -- Begin function qspi_read_enable
	.globl	qspi_read_enable
	.p2align	1
	.type	qspi_read_enable,%function
	.code	16                      @ @qspi_read_enable
	.thumb_func
qspi_read_enable:
.Lfunc_begin32:
	.loc	4 708 0                 @ ../GD32E230_Firmware_Library/GD32E230_standard_peripheral/Source/gd32e230_spi.c:708:0
	.fnstart
	.cfi_startproc
@ %bb.0:
	.pad	#4
	sub	sp, #4
	.cfi_def_cfa_offset 4
	str	r0, [sp]
.Ltmp129:
	.loc	4 709 5 prologue_end    @ ../GD32E230_Firmware_Library/GD32E230_standard_peripheral/Source/gd32e230_spi.c:709:5
	ldr	r0, [sp]
	movs	r1, #128
	.loc	4 709 26 is_stmt 0      @ ../GD32E230_Firmware_Library/GD32E230_standard_peripheral/Source/gd32e230_spi.c:709:26
	ldr	r2, [r0, r1]
	movs	r3, #2
	orrs	r2, r3
	str	r2, [r0, r1]
	.loc	4 710 1 is_stmt 1       @ ../GD32E230_Firmware_Library/GD32E230_standard_peripheral/Source/gd32e230_spi.c:710:1
	add	sp, #4
	bx	lr
.Ltmp130:
.Lfunc_end32:
	.size	qspi_read_enable, .Lfunc_end32-qspi_read_enable
	.cfi_endproc
	.cantunwind
	.fnend
                                        @ -- End function
	.section	.text.qspi_io23_output_enable,"ax",%progbits
	.hidden	qspi_io23_output_enable @ -- Begin function qspi_io23_output_enable
	.globl	qspi_io23_output_enable
	.p2align	1
	.type	qspi_io23_output_enable,%function
	.code	16                      @ @qspi_io23_output_enable
	.thumb_func
qspi_io23_output_enable:
.Lfunc_begin33:
	.loc	4 719 0                 @ ../GD32E230_Firmware_Library/GD32E230_standard_peripheral/Source/gd32e230_spi.c:719:0
	.fnstart
	.cfi_startproc
@ %bb.0:
	.pad	#4
	sub	sp, #4
	.cfi_def_cfa_offset 4
	str	r0, [sp]
.Ltmp131:
	.loc	4 720 5 prologue_end    @ ../GD32E230_Firmware_Library/GD32E230_standard_peripheral/Source/gd32e230_spi.c:720:5
	ldr	r0, [sp]
	movs	r1, #128
	.loc	4 720 26 is_stmt 0      @ ../GD32E230_Firmware_Library/GD32E230_standard_peripheral/Source/gd32e230_spi.c:720:26
	ldr	r2, [r0, r1]
	movs	r3, #4
	orrs	r2, r3
	str	r2, [r0, r1]
	.loc	4 721 1 is_stmt 1       @ ../GD32E230_Firmware_Library/GD32E230_standard_peripheral/Source/gd32e230_spi.c:721:1
	add	sp, #4
	bx	lr
.Ltmp132:
.Lfunc_end33:
	.size	qspi_io23_output_enable, .Lfunc_end33-qspi_io23_output_enable
	.cfi_endproc
	.cantunwind
	.fnend
                                        @ -- End function
	.section	.text.qspi_io23_output_disable,"ax",%progbits
	.hidden	qspi_io23_output_disable @ -- Begin function qspi_io23_output_disable
	.globl	qspi_io23_output_disable
	.p2align	1
	.type	qspi_io23_output_disable,%function
	.code	16                      @ @qspi_io23_output_disable
	.thumb_func
qspi_io23_output_disable:
.Lfunc_begin34:
	.loc	4 730 0                 @ ../GD32E230_Firmware_Library/GD32E230_standard_peripheral/Source/gd32e230_spi.c:730:0
	.fnstart
	.cfi_startproc
@ %bb.0:
	.pad	#4
	sub	sp, #4
	.cfi_def_cfa_offset 4
	str	r0, [sp]
.Ltmp133:
	.loc	4 731 5 prologue_end    @ ../GD32E230_Firmware_Library/GD32E230_standard_peripheral/Source/gd32e230_spi.c:731:5
	ldr	r0, [sp]
	movs	r1, #128
	.loc	4 731 26 is_stmt 0      @ ../GD32E230_Firmware_Library/GD32E230_standard_peripheral/Source/gd32e230_spi.c:731:26
	ldr	r2, [r0, r1]
	movs	r3, #4
	bics	r2, r3
	str	r2, [r0, r1]
	.loc	4 732 1 is_stmt 1       @ ../GD32E230_Firmware_Library/GD32E230_standard_peripheral/Source/gd32e230_spi.c:732:1
	add	sp, #4
	bx	lr
.Ltmp134:
.Lfunc_end34:
	.size	qspi_io23_output_disable, .Lfunc_end34-qspi_io23_output_disable
	.cfi_endproc
	.cantunwind
	.fnend
                                        @ -- End function
	.section	.text.spi_i2s_interrupt_enable,"ax",%progbits
	.hidden	spi_i2s_interrupt_enable @ -- Begin function spi_i2s_interrupt_enable
	.globl	spi_i2s_interrupt_enable
	.p2align	1
	.type	spi_i2s_interrupt_enable,%function
	.code	16                      @ @spi_i2s_interrupt_enable
	.thumb_func
spi_i2s_interrupt_enable:
.Lfunc_begin35:
	.loc	4 747 0                 @ ../GD32E230_Firmware_Library/GD32E230_standard_peripheral/Source/gd32e230_spi.c:747:0
	.fnstart
	.cfi_startproc
@ %bb.0:
	.pad	#12
	sub	sp, #12
	.cfi_def_cfa_offset 12
	mov	r2, r1
	str	r0, [sp, #8]
	add	r0, sp, #4
	strb	r1, [r0]
.Ltmp135:
	.loc	4 748 12 prologue_end   @ ../GD32E230_Firmware_Library/GD32E230_standard_peripheral/Source/gd32e230_spi.c:748:12
	ldrb	r0, [r0]
	.loc	4 748 5 is_stmt 0       @ ../GD32E230_Firmware_Library/GD32E230_standard_peripheral/Source/gd32e230_spi.c:748:5
	cmp	r0, #0
	str	r0, [sp]                @ 4-byte Spill
	beq	.LBB35_3
	b	.LBB35_1
.LBB35_1:
	ldr	r0, [sp]                @ 4-byte Reload
	cmp	r0, #1
	beq	.LBB35_4
	b	.LBB35_2
.LBB35_2:
	ldr	r0, [sp]                @ 4-byte Reload
	cmp	r0, #2
	beq	.LBB35_5
	b	.LBB35_6
.LBB35_3:
.Ltmp136:
	.loc	4 751 9 is_stmt 1       @ ../GD32E230_Firmware_Library/GD32E230_standard_peripheral/Source/gd32e230_spi.c:751:9
	ldr	r0, [sp, #8]
	.loc	4 751 30 is_stmt 0      @ ../GD32E230_Firmware_Library/GD32E230_standard_peripheral/Source/gd32e230_spi.c:751:30
	ldr	r1, [r0, #4]
	movs	r2, #128
	orrs	r1, r2
	str	r1, [r0, #4]
	.loc	4 752 9 is_stmt 1       @ ../GD32E230_Firmware_Library/GD32E230_standard_peripheral/Source/gd32e230_spi.c:752:9
	b	.LBB35_7
.LBB35_4:
	.loc	4 755 9                 @ ../GD32E230_Firmware_Library/GD32E230_standard_peripheral/Source/gd32e230_spi.c:755:9
	ldr	r0, [sp, #8]
	.loc	4 755 30 is_stmt 0      @ ../GD32E230_Firmware_Library/GD32E230_standard_peripheral/Source/gd32e230_spi.c:755:30
	ldr	r1, [r0, #4]
	movs	r2, #64
	orrs	r1, r2
	str	r1, [r0, #4]
	.loc	4 756 9 is_stmt 1       @ ../GD32E230_Firmware_Library/GD32E230_standard_peripheral/Source/gd32e230_spi.c:756:9
	b	.LBB35_7
.LBB35_5:
	.loc	4 759 9                 @ ../GD32E230_Firmware_Library/GD32E230_standard_peripheral/Source/gd32e230_spi.c:759:9
	ldr	r0, [sp, #8]
	.loc	4 759 30 is_stmt 0      @ ../GD32E230_Firmware_Library/GD32E230_standard_peripheral/Source/gd32e230_spi.c:759:30
	ldr	r1, [r0, #4]
	movs	r2, #32
	orrs	r1, r2
	str	r1, [r0, #4]
	.loc	4 760 9 is_stmt 1       @ ../GD32E230_Firmware_Library/GD32E230_standard_peripheral/Source/gd32e230_spi.c:760:9
	b	.LBB35_7
.LBB35_6:
	.loc	4 762 9                 @ ../GD32E230_Firmware_Library/GD32E230_standard_peripheral/Source/gd32e230_spi.c:762:9
	b	.LBB35_7
.Ltmp137:
.LBB35_7:
	.loc	4 764 1                 @ ../GD32E230_Firmware_Library/GD32E230_standard_peripheral/Source/gd32e230_spi.c:764:1
	add	sp, #12
	bx	lr
.Ltmp138:
.Lfunc_end35:
	.size	spi_i2s_interrupt_enable, .Lfunc_end35-spi_i2s_interrupt_enable
	.cfi_endproc
	.cantunwind
	.fnend
                                        @ -- End function
	.section	.text.spi_i2s_interrupt_disable,"ax",%progbits
	.hidden	spi_i2s_interrupt_disable @ -- Begin function spi_i2s_interrupt_disable
	.globl	spi_i2s_interrupt_disable
	.p2align	1
	.type	spi_i2s_interrupt_disable,%function
	.code	16                      @ @spi_i2s_interrupt_disable
	.thumb_func
spi_i2s_interrupt_disable:
.Lfunc_begin36:
	.loc	4 779 0                 @ ../GD32E230_Firmware_Library/GD32E230_standard_peripheral/Source/gd32e230_spi.c:779:0
	.fnstart
	.cfi_startproc
@ %bb.0:
	.pad	#12
	sub	sp, #12
	.cfi_def_cfa_offset 12
	mov	r2, r1
	str	r0, [sp, #8]
	add	r0, sp, #4
	strb	r1, [r0]
.Ltmp139:
	.loc	4 780 12 prologue_end   @ ../GD32E230_Firmware_Library/GD32E230_standard_peripheral/Source/gd32e230_spi.c:780:12
	ldrb	r0, [r0]
	.loc	4 780 5 is_stmt 0       @ ../GD32E230_Firmware_Library/GD32E230_standard_peripheral/Source/gd32e230_spi.c:780:5
	cmp	r0, #0
	str	r0, [sp]                @ 4-byte Spill
	beq	.LBB36_3
	b	.LBB36_1
.LBB36_1:
	ldr	r0, [sp]                @ 4-byte Reload
	cmp	r0, #1
	beq	.LBB36_4
	b	.LBB36_2
.LBB36_2:
	ldr	r0, [sp]                @ 4-byte Reload
	cmp	r0, #2
	beq	.LBB36_5
	b	.LBB36_6
.LBB36_3:
.Ltmp140:
	.loc	4 783 9 is_stmt 1       @ ../GD32E230_Firmware_Library/GD32E230_standard_peripheral/Source/gd32e230_spi.c:783:9
	ldr	r0, [sp, #8]
	.loc	4 783 30 is_stmt 0      @ ../GD32E230_Firmware_Library/GD32E230_standard_peripheral/Source/gd32e230_spi.c:783:30
	ldr	r1, [r0, #4]
	movs	r2, #128
	bics	r1, r2
	str	r1, [r0, #4]
	.loc	4 784 9 is_stmt 1       @ ../GD32E230_Firmware_Library/GD32E230_standard_peripheral/Source/gd32e230_spi.c:784:9
	b	.LBB36_7
.LBB36_4:
	.loc	4 787 9                 @ ../GD32E230_Firmware_Library/GD32E230_standard_peripheral/Source/gd32e230_spi.c:787:9
	ldr	r0, [sp, #8]
	.loc	4 787 30 is_stmt 0      @ ../GD32E230_Firmware_Library/GD32E230_standard_peripheral/Source/gd32e230_spi.c:787:30
	ldr	r1, [r0, #4]
	movs	r2, #64
	bics	r1, r2
	str	r1, [r0, #4]
	.loc	4 788 9 is_stmt 1       @ ../GD32E230_Firmware_Library/GD32E230_standard_peripheral/Source/gd32e230_spi.c:788:9
	b	.LBB36_7
.LBB36_5:
	.loc	4 791 9                 @ ../GD32E230_Firmware_Library/GD32E230_standard_peripheral/Source/gd32e230_spi.c:791:9
	ldr	r0, [sp, #8]
	.loc	4 791 30 is_stmt 0      @ ../GD32E230_Firmware_Library/GD32E230_standard_peripheral/Source/gd32e230_spi.c:791:30
	ldr	r1, [r0, #4]
	movs	r2, #32
	bics	r1, r2
	str	r1, [r0, #4]
	.loc	4 792 9 is_stmt 1       @ ../GD32E230_Firmware_Library/GD32E230_standard_peripheral/Source/gd32e230_spi.c:792:9
	b	.LBB36_7
.LBB36_6:
	.loc	4 794 9                 @ ../GD32E230_Firmware_Library/GD32E230_standard_peripheral/Source/gd32e230_spi.c:794:9
	b	.LBB36_7
.Ltmp141:
.LBB36_7:
	.loc	4 796 1                 @ ../GD32E230_Firmware_Library/GD32E230_standard_peripheral/Source/gd32e230_spi.c:796:1
	add	sp, #12
	bx	lr
.Ltmp142:
.Lfunc_end36:
	.size	spi_i2s_interrupt_disable, .Lfunc_end36-spi_i2s_interrupt_disable
	.cfi_endproc
	.cantunwind
	.fnend
                                        @ -- End function
	.section	.text.spi_i2s_interrupt_flag_get,"ax",%progbits
	.hidden	spi_i2s_interrupt_flag_get @ -- Begin function spi_i2s_interrupt_flag_get
	.globl	spi_i2s_interrupt_flag_get
	.p2align	2
	.type	spi_i2s_interrupt_flag_get,%function
	.code	16                      @ @spi_i2s_interrupt_flag_get
	.thumb_func
spi_i2s_interrupt_flag_get:
.Lfunc_begin37:
	.loc	4 814 0                 @ ../GD32E230_Firmware_Library/GD32E230_standard_peripheral/Source/gd32e230_spi.c:814:0
	.fnstart
	.cfi_startproc
@ %bb.0:
	.pad	#24
	sub	sp, #24
	.cfi_def_cfa_offset 24
	mov	r2, r1
	str	r0, [sp, #16]
	add	r0, sp, #12
	strb	r1, [r0]
.Ltmp143:
	.loc	4 815 21 prologue_end   @ ../GD32E230_Firmware_Library/GD32E230_standard_peripheral/Source/gd32e230_spi.c:815:21
	ldr	r1, [sp, #16]
	ldr	r1, [r1, #8]
	.loc	4 815 14 is_stmt 0      @ ../GD32E230_Firmware_Library/GD32E230_standard_peripheral/Source/gd32e230_spi.c:815:14
	str	r1, [sp, #8]
	.loc	4 816 21 is_stmt 1      @ ../GD32E230_Firmware_Library/GD32E230_standard_peripheral/Source/gd32e230_spi.c:816:21
	ldr	r1, [sp, #16]
	ldr	r1, [r1, #4]
	.loc	4 816 14 is_stmt 0      @ ../GD32E230_Firmware_Library/GD32E230_standard_peripheral/Source/gd32e230_spi.c:816:14
	str	r1, [sp, #4]
	.loc	4 818 12 is_stmt 1      @ ../GD32E230_Firmware_Library/GD32E230_standard_peripheral/Source/gd32e230_spi.c:818:12
	ldrb	r0, [r0]
	.loc	4 818 5 is_stmt 0       @ ../GD32E230_Firmware_Library/GD32E230_standard_peripheral/Source/gd32e230_spi.c:818:5
	cmp	r0, #6
	str	r0, [sp]                @ 4-byte Spill
	bhi	.LBB37_10
@ %bb.1:
	.loc	4 0 5                   @ ../GD32E230_Firmware_Library/GD32E230_standard_peripheral/Source/gd32e230_spi.c:0:5
	ldr	r0, [sp]                @ 4-byte Reload
	lsls	r1, r0, #2
	adr	r2, .LJTI37_0
	adds	r1, r2, r1
	mov	pc, r1
@ %bb.2:
	.p2align	2
.LJTI37_0:
	b.w	.LBB37_3
	b.w	.LBB37_4
	b.w	.LBB37_5
	b.w	.LBB37_6
	b.w	.LBB37_7
	b.w	.LBB37_8
	b.w	.LBB37_9
.LBB37_3:
.Ltmp144:
	.loc	4 821 16 is_stmt 1      @ ../GD32E230_Firmware_Library/GD32E230_standard_peripheral/Source/gd32e230_spi.c:821:16
	ldr	r0, [sp, #8]
	movs	r1, #2
	.loc	4 821 21 is_stmt 0      @ ../GD32E230_Firmware_Library/GD32E230_standard_peripheral/Source/gd32e230_spi.c:821:21
	ands	r0, r1
	.loc	4 821 14                @ ../GD32E230_Firmware_Library/GD32E230_standard_peripheral/Source/gd32e230_spi.c:821:14
	str	r0, [sp, #8]
	.loc	4 822 16 is_stmt 1      @ ../GD32E230_Firmware_Library/GD32E230_standard_peripheral/Source/gd32e230_spi.c:822:16
	ldr	r0, [sp, #4]
	movs	r1, #128
	.loc	4 822 21 is_stmt 0      @ ../GD32E230_Firmware_Library/GD32E230_standard_peripheral/Source/gd32e230_spi.c:822:21
	ands	r0, r1
	.loc	4 822 14                @ ../GD32E230_Firmware_Library/GD32E230_standard_peripheral/Source/gd32e230_spi.c:822:14
	str	r0, [sp, #4]
	.loc	4 823 9 is_stmt 1       @ ../GD32E230_Firmware_Library/GD32E230_standard_peripheral/Source/gd32e230_spi.c:823:9
	b	.LBB37_11
.LBB37_4:
	.loc	4 826 16                @ ../GD32E230_Firmware_Library/GD32E230_standard_peripheral/Source/gd32e230_spi.c:826:16
	ldr	r0, [sp, #8]
	movs	r1, #1
	.loc	4 826 21 is_stmt 0      @ ../GD32E230_Firmware_Library/GD32E230_standard_peripheral/Source/gd32e230_spi.c:826:21
	ands	r0, r1
	.loc	4 826 14                @ ../GD32E230_Firmware_Library/GD32E230_standard_peripheral/Source/gd32e230_spi.c:826:14
	str	r0, [sp, #8]
	.loc	4 827 16 is_stmt 1      @ ../GD32E230_Firmware_Library/GD32E230_standard_peripheral/Source/gd32e230_spi.c:827:16
	ldr	r0, [sp, #4]
	movs	r1, #64
	.loc	4 827 21 is_stmt 0      @ ../GD32E230_Firmware_Library/GD32E230_standard_peripheral/Source/gd32e230_spi.c:827:21
	ands	r0, r1
	.loc	4 827 14                @ ../GD32E230_Firmware_Library/GD32E230_standard_peripheral/Source/gd32e230_spi.c:827:14
	str	r0, [sp, #4]
	.loc	4 828 9 is_stmt 1       @ ../GD32E230_Firmware_Library/GD32E230_standard_peripheral/Source/gd32e230_spi.c:828:9
	b	.LBB37_11
.LBB37_5:
	.loc	4 831 16                @ ../GD32E230_Firmware_Library/GD32E230_standard_peripheral/Source/gd32e230_spi.c:831:16
	ldr	r0, [sp, #8]
	movs	r1, #64
	.loc	4 831 21 is_stmt 0      @ ../GD32E230_Firmware_Library/GD32E230_standard_peripheral/Source/gd32e230_spi.c:831:21
	ands	r0, r1
	.loc	4 831 14                @ ../GD32E230_Firmware_Library/GD32E230_standard_peripheral/Source/gd32e230_spi.c:831:14
	str	r0, [sp, #8]
	.loc	4 832 16 is_stmt 1      @ ../GD32E230_Firmware_Library/GD32E230_standard_peripheral/Source/gd32e230_spi.c:832:16
	ldr	r0, [sp, #4]
	movs	r1, #32
	.loc	4 832 21 is_stmt 0      @ ../GD32E230_Firmware_Library/GD32E230_standard_peripheral/Source/gd32e230_spi.c:832:21
	ands	r0, r1
	.loc	4 832 14                @ ../GD32E230_Firmware_Library/GD32E230_standard_peripheral/Source/gd32e230_spi.c:832:14
	str	r0, [sp, #4]
	.loc	4 833 9 is_stmt 1       @ ../GD32E230_Firmware_Library/GD32E230_standard_peripheral/Source/gd32e230_spi.c:833:9
	b	.LBB37_11
.LBB37_6:
	.loc	4 836 16                @ ../GD32E230_Firmware_Library/GD32E230_standard_peripheral/Source/gd32e230_spi.c:836:16
	ldr	r0, [sp, #8]
	movs	r1, #32
	.loc	4 836 21 is_stmt 0      @ ../GD32E230_Firmware_Library/GD32E230_standard_peripheral/Source/gd32e230_spi.c:836:21
	ands	r0, r1
	.loc	4 836 14                @ ../GD32E230_Firmware_Library/GD32E230_standard_peripheral/Source/gd32e230_spi.c:836:14
	str	r0, [sp, #8]
	.loc	4 837 16 is_stmt 1      @ ../GD32E230_Firmware_Library/GD32E230_standard_peripheral/Source/gd32e230_spi.c:837:16
	ldr	r0, [sp, #4]
	.loc	4 837 21 is_stmt 0      @ ../GD32E230_Firmware_Library/GD32E230_standard_peripheral/Source/gd32e230_spi.c:837:21
	ands	r0, r1
	.loc	4 837 14                @ ../GD32E230_Firmware_Library/GD32E230_standard_peripheral/Source/gd32e230_spi.c:837:14
	str	r0, [sp, #4]
	.loc	4 838 9 is_stmt 1       @ ../GD32E230_Firmware_Library/GD32E230_standard_peripheral/Source/gd32e230_spi.c:838:9
	b	.LBB37_11
.LBB37_7:
	.loc	4 841 16                @ ../GD32E230_Firmware_Library/GD32E230_standard_peripheral/Source/gd32e230_spi.c:841:16
	ldr	r0, [sp, #8]
	movs	r1, #16
	.loc	4 841 21 is_stmt 0      @ ../GD32E230_Firmware_Library/GD32E230_standard_peripheral/Source/gd32e230_spi.c:841:21
	ands	r0, r1
	.loc	4 841 14                @ ../GD32E230_Firmware_Library/GD32E230_standard_peripheral/Source/gd32e230_spi.c:841:14
	str	r0, [sp, #8]
	.loc	4 842 16 is_stmt 1      @ ../GD32E230_Firmware_Library/GD32E230_standard_peripheral/Source/gd32e230_spi.c:842:16
	ldr	r0, [sp, #4]
	movs	r1, #32
	.loc	4 842 21 is_stmt 0      @ ../GD32E230_Firmware_Library/GD32E230_standard_peripheral/Source/gd32e230_spi.c:842:21
	ands	r0, r1
	.loc	4 842 14                @ ../GD32E230_Firmware_Library/GD32E230_standard_peripheral/Source/gd32e230_spi.c:842:14
	str	r0, [sp, #4]
	.loc	4 843 9 is_stmt 1       @ ../GD32E230_Firmware_Library/GD32E230_standard_peripheral/Source/gd32e230_spi.c:843:9
	b	.LBB37_11
.LBB37_8:
	.loc	4 846 16                @ ../GD32E230_Firmware_Library/GD32E230_standard_peripheral/Source/gd32e230_spi.c:846:16
	ldr	r0, [sp, #8]
	movs	r1, #8
	.loc	4 846 21 is_stmt 0      @ ../GD32E230_Firmware_Library/GD32E230_standard_peripheral/Source/gd32e230_spi.c:846:21
	ands	r0, r1
	.loc	4 846 14                @ ../GD32E230_Firmware_Library/GD32E230_standard_peripheral/Source/gd32e230_spi.c:846:14
	str	r0, [sp, #8]
	.loc	4 847 16 is_stmt 1      @ ../GD32E230_Firmware_Library/GD32E230_standard_peripheral/Source/gd32e230_spi.c:847:16
	ldr	r0, [sp, #4]
	movs	r1, #32
	.loc	4 847 21 is_stmt 0      @ ../GD32E230_Firmware_Library/GD32E230_standard_peripheral/Source/gd32e230_spi.c:847:21
	ands	r0, r1
	.loc	4 847 14                @ ../GD32E230_Firmware_Library/GD32E230_standard_peripheral/Source/gd32e230_spi.c:847:14
	str	r0, [sp, #4]
	.loc	4 848 9 is_stmt 1       @ ../GD32E230_Firmware_Library/GD32E230_standard_peripheral/Source/gd32e230_spi.c:848:9
	b	.LBB37_11
.LBB37_9:
	.loc	4 851 16                @ ../GD32E230_Firmware_Library/GD32E230_standard_peripheral/Source/gd32e230_spi.c:851:16
	ldr	r0, [sp, #8]
	movw	r1, #256
	.loc	4 851 21 is_stmt 0      @ ../GD32E230_Firmware_Library/GD32E230_standard_peripheral/Source/gd32e230_spi.c:851:21
	ands	r0, r1
	.loc	4 851 14                @ ../GD32E230_Firmware_Library/GD32E230_standard_peripheral/Source/gd32e230_spi.c:851:14
	str	r0, [sp, #8]
	.loc	4 852 16 is_stmt 1      @ ../GD32E230_Firmware_Library/GD32E230_standard_peripheral/Source/gd32e230_spi.c:852:16
	ldr	r0, [sp, #4]
	movs	r1, #32
	.loc	4 852 21 is_stmt 0      @ ../GD32E230_Firmware_Library/GD32E230_standard_peripheral/Source/gd32e230_spi.c:852:21
	ands	r0, r1
	.loc	4 852 14                @ ../GD32E230_Firmware_Library/GD32E230_standard_peripheral/Source/gd32e230_spi.c:852:14
	str	r0, [sp, #4]
	.loc	4 853 9 is_stmt 1       @ ../GD32E230_Firmware_Library/GD32E230_standard_peripheral/Source/gd32e230_spi.c:853:9
	b	.LBB37_11
.LBB37_10:
	.loc	4 855 9                 @ ../GD32E230_Firmware_Library/GD32E230_standard_peripheral/Source/gd32e230_spi.c:855:9
	b	.LBB37_11
.Ltmp145:
.LBB37_11:
	.loc	4 858 15                @ ../GD32E230_Firmware_Library/GD32E230_standard_peripheral/Source/gd32e230_spi.c:858:15
	ldr	r0, [sp, #8]
	.loc	4 858 21 is_stmt 0      @ ../GD32E230_Firmware_Library/GD32E230_standard_peripheral/Source/gd32e230_spi.c:858:21
	cmp	r0, #0
	beq	.LBB37_14
	b	.LBB37_12
.LBB37_12:
	.loc	4 858 31                @ ../GD32E230_Firmware_Library/GD32E230_standard_peripheral/Source/gd32e230_spi.c:858:31
	ldr	r0, [sp, #4]
.Ltmp146:
	.loc	4 858 8                 @ ../GD32E230_Firmware_Library/GD32E230_standard_peripheral/Source/gd32e230_spi.c:858:8
	cmp	r0, #0
	beq	.LBB37_14
	b	.LBB37_13
.LBB37_13:
	.loc	4 0 8                   @ ../GD32E230_Firmware_Library/GD32E230_standard_peripheral/Source/gd32e230_spi.c:0:8
	add	r0, sp, #20
	movs	r1, #1
.Ltmp147:
	.loc	4 859 9 is_stmt 1       @ ../GD32E230_Firmware_Library/GD32E230_standard_peripheral/Source/gd32e230_spi.c:859:9
	strb	r1, [r0]
	b	.LBB37_15
.Ltmp148:
.LBB37_14:
	.loc	4 0 9 is_stmt 0         @ ../GD32E230_Firmware_Library/GD32E230_standard_peripheral/Source/gd32e230_spi.c:0:9
	add	r0, sp, #20
	movs	r1, #0
.Ltmp149:
	.loc	4 861 9 is_stmt 1       @ ../GD32E230_Firmware_Library/GD32E230_standard_peripheral/Source/gd32e230_spi.c:861:9
	strb	r1, [r0]
	b	.LBB37_15
.Ltmp150:
.LBB37_15:
	.loc	4 0 9 is_stmt 0         @ ../GD32E230_Firmware_Library/GD32E230_standard_peripheral/Source/gd32e230_spi.c:0:9
	add	r0, sp, #20
	.loc	4 863 1 is_stmt 1       @ ../GD32E230_Firmware_Library/GD32E230_standard_peripheral/Source/gd32e230_spi.c:863:1
	ldrb	r0, [r0]
	add	sp, #24
	bx	lr
.Ltmp151:
.Lfunc_end37:
	.size	spi_i2s_interrupt_flag_get, .Lfunc_end37-spi_i2s_interrupt_flag_get
	.cfi_endproc
	.cantunwind
	.fnend
                                        @ -- End function
	.section	.text.spi_i2s_flag_get,"ax",%progbits
	.hidden	spi_i2s_flag_get        @ -- Begin function spi_i2s_flag_get
	.globl	spi_i2s_flag_get
	.p2align	2
	.type	spi_i2s_flag_get,%function
	.code	16                      @ @spi_i2s_flag_get
	.thumb_func
spi_i2s_flag_get:
.Lfunc_begin38:
	.loc	4 896 0                 @ ../GD32E230_Firmware_Library/GD32E230_standard_peripheral/Source/gd32e230_spi.c:896:0
	.fnstart
	.cfi_startproc
@ %bb.0:
	.pad	#12
	sub	sp, #12
	.cfi_def_cfa_offset 12
	str	r0, [sp, #4]
	str	r1, [sp]
.Ltmp152:
	.loc	4 897 18 prologue_end   @ ../GD32E230_Firmware_Library/GD32E230_standard_peripheral/Source/gd32e230_spi.c:897:18
	ldr	r0, [sp, #4]
	ldr	r0, [r0, #8]
	.loc	4 897 41 is_stmt 0      @ ../GD32E230_Firmware_Library/GD32E230_standard_peripheral/Source/gd32e230_spi.c:897:41
	ldr	r1, [sp]
.Ltmp153:
	.loc	4 897 8                 @ ../GD32E230_Firmware_Library/GD32E230_standard_peripheral/Source/gd32e230_spi.c:897:8
	tst	r0, r1
	beq	.LBB38_2
	b	.LBB38_1
.LBB38_1:
	.loc	4 0 8                   @ ../GD32E230_Firmware_Library/GD32E230_standard_peripheral/Source/gd32e230_spi.c:0:8
	add	r0, sp, #8
	movs	r1, #1
.Ltmp154:
	.loc	4 898 9 is_stmt 1       @ ../GD32E230_Firmware_Library/GD32E230_standard_peripheral/Source/gd32e230_spi.c:898:9
	strb	r1, [r0]
	b	.LBB38_13
.Ltmp155:
.LBB38_2:
	.loc	4 900 20                @ ../GD32E230_Firmware_Library/GD32E230_standard_peripheral/Source/gd32e230_spi.c:900:20
	ldr	r0, [sp, #4]
	ldr	r1, __arm_cp.38_0
.Ltmp156:
	.loc	4 900 12 is_stmt 0      @ ../GD32E230_Firmware_Library/GD32E230_standard_peripheral/Source/gd32e230_spi.c:900:12
	cmp	r0, r1
	bne	.LBB38_12
	b	.LBB38_3
.LBB38_3:
.Ltmp157:
	.loc	4 902 35 is_stmt 1      @ ../GD32E230_Firmware_Library/GD32E230_standard_peripheral/Source/gd32e230_spi.c:902:35
	ldr	r0, [sp]
.Ltmp158:
	.loc	4 902 16 is_stmt 0      @ ../GD32E230_Firmware_Library/GD32E230_standard_peripheral/Source/gd32e230_spi.c:902:16
	cmp	r0, #0
	bne	.LBB38_7
	b	.LBB38_4
.LBB38_4:
.Ltmp159:
	.loc	4 903 30 is_stmt 1      @ ../GD32E230_Firmware_Library/GD32E230_standard_peripheral/Source/gd32e230_spi.c:903:30
	ldr	r0, [sp, #4]
	ldr	r0, [r0, #8]
.Ltmp160:
	.loc	4 903 20 is_stmt 0      @ ../GD32E230_Firmware_Library/GD32E230_standard_peripheral/Source/gd32e230_spi.c:903:20
	lsls	r0, r0, #19
	lsrs	r0, r0, #30
	cmp	r0, #0
	beq	.LBB38_6
	b	.LBB38_5
.LBB38_5:
	.loc	4 0 20                  @ ../GD32E230_Firmware_Library/GD32E230_standard_peripheral/Source/gd32e230_spi.c:0:20
	add	r0, sp, #8
	movs	r1, #0
.Ltmp161:
	.loc	4 904 21 is_stmt 1      @ ../GD32E230_Firmware_Library/GD32E230_standard_peripheral/Source/gd32e230_spi.c:904:21
	strb	r1, [r0]
	b	.LBB38_13
.Ltmp162:
.LBB38_6:
	.loc	4 0 21 is_stmt 0        @ ../GD32E230_Firmware_Library/GD32E230_standard_peripheral/Source/gd32e230_spi.c:0:21
	add	r0, sp, #8
	movs	r1, #1
.Ltmp163:
	.loc	4 906 21 is_stmt 1      @ ../GD32E230_Firmware_Library/GD32E230_standard_peripheral/Source/gd32e230_spi.c:906:21
	strb	r1, [r0]
	b	.LBB38_13
.Ltmp164:
.LBB38_7:
	.loc	4 910 35                @ ../GD32E230_Firmware_Library/GD32E230_standard_peripheral/Source/gd32e230_spi.c:910:35
	ldr	r0, [sp]
.Ltmp165:
	.loc	4 910 16 is_stmt 0      @ ../GD32E230_Firmware_Library/GD32E230_standard_peripheral/Source/gd32e230_spi.c:910:16
	cmp	r0, #0
	bne	.LBB38_11
	b	.LBB38_8
.LBB38_8:
.Ltmp166:
	.loc	4 911 30 is_stmt 1      @ ../GD32E230_Firmware_Library/GD32E230_standard_peripheral/Source/gd32e230_spi.c:911:30
	ldr	r0, [sp, #4]
	ldr	r0, [r0, #8]
.Ltmp167:
	.loc	4 911 20 is_stmt 0      @ ../GD32E230_Firmware_Library/GD32E230_standard_peripheral/Source/gd32e230_spi.c:911:20
	lsls	r0, r0, #21
	lsrs	r0, r0, #30
	cmp	r0, #0
	beq	.LBB38_10
	b	.LBB38_9
.LBB38_9:
	.loc	4 0 20                  @ ../GD32E230_Firmware_Library/GD32E230_standard_peripheral/Source/gd32e230_spi.c:0:20
	add	r0, sp, #8
	movs	r1, #0
.Ltmp168:
	.loc	4 912 21 is_stmt 1      @ ../GD32E230_Firmware_Library/GD32E230_standard_peripheral/Source/gd32e230_spi.c:912:21
	strb	r1, [r0]
	b	.LBB38_13
.Ltmp169:
.LBB38_10:
	.loc	4 0 21 is_stmt 0        @ ../GD32E230_Firmware_Library/GD32E230_standard_peripheral/Source/gd32e230_spi.c:0:21
	add	r0, sp, #8
	movs	r1, #1
.Ltmp170:
	.loc	4 914 21 is_stmt 1      @ ../GD32E230_Firmware_Library/GD32E230_standard_peripheral/Source/gd32e230_spi.c:914:21
	strb	r1, [r0]
	b	.LBB38_13
.Ltmp171:
.LBB38_11:
	.loc	4 917 9                 @ ../GD32E230_Firmware_Library/GD32E230_standard_peripheral/Source/gd32e230_spi.c:917:9
	b	.LBB38_12
.Ltmp172:
.LBB38_12:
	.loc	4 0 9 is_stmt 0         @ ../GD32E230_Firmware_Library/GD32E230_standard_peripheral/Source/gd32e230_spi.c:0:9
	add	r0, sp, #8
	movs	r1, #0
	.loc	4 918 9 is_stmt 1       @ ../GD32E230_Firmware_Library/GD32E230_standard_peripheral/Source/gd32e230_spi.c:918:9
	strb	r1, [r0]
	b	.LBB38_13
.Ltmp173:
.LBB38_13:
	.loc	4 0 9 is_stmt 0         @ ../GD32E230_Firmware_Library/GD32E230_standard_peripheral/Source/gd32e230_spi.c:0:9
	add	r0, sp, #8
	.loc	4 920 1 is_stmt 1       @ ../GD32E230_Firmware_Library/GD32E230_standard_peripheral/Source/gd32e230_spi.c:920:1
	ldrb	r0, [r0]
	add	sp, #12
	bx	lr
.Ltmp174:
	.p2align	2
@ %bb.14:
	.loc	4 0 1 is_stmt 0         @ ../GD32E230_Firmware_Library/GD32E230_standard_peripheral/Source/gd32e230_spi.c:0:1
__arm_cp.38_0:
	.long	1073756160              @ 0x40003800
.Lcpi_end9:
	.size	__arm_cp.38_0, .Lcpi_end9-__arm_cp.38_0
.Lfunc_end38:
	.size	spi_i2s_flag_get, .Lfunc_end38-spi_i2s_flag_get
	.cfi_endproc
	.cantunwind
	.fnend
                                        @ -- End function
	.section	.text.spi_crc_error_clear,"ax",%progbits
	.hidden	spi_crc_error_clear     @ -- Begin function spi_crc_error_clear
	.globl	spi_crc_error_clear
	.p2align	1
	.type	spi_crc_error_clear,%function
	.code	16                      @ @spi_crc_error_clear
	.thumb_func
spi_crc_error_clear:
.Lfunc_begin39:
	.loc	4 929 0 is_stmt 1       @ ../GD32E230_Firmware_Library/GD32E230_standard_peripheral/Source/gd32e230_spi.c:929:0
	.fnstart
	.cfi_startproc
@ %bb.0:
	.pad	#4
	sub	sp, #4
	.cfi_def_cfa_offset 4
	str	r0, [sp]
.Ltmp175:
	.loc	4 930 5 prologue_end    @ ../GD32E230_Firmware_Library/GD32E230_standard_peripheral/Source/gd32e230_spi.c:930:5
	ldr	r0, [sp]
	.loc	4 930 26 is_stmt 0      @ ../GD32E230_Firmware_Library/GD32E230_standard_peripheral/Source/gd32e230_spi.c:930:26
	ldr	r1, [r0, #8]
	movs	r2, #16
	bics	r1, r2
	str	r1, [r0, #8]
	.loc	4 931 1 is_stmt 1       @ ../GD32E230_Firmware_Library/GD32E230_standard_peripheral/Source/gd32e230_spi.c:931:1
	add	sp, #4
	bx	lr
.Ltmp176:
.Lfunc_end39:
	.size	spi_crc_error_clear, .Lfunc_end39-spi_crc_error_clear
	.cfi_endproc
	.cantunwind
	.fnend
                                        @ -- End function
	.section	.text.spi_fifo_access_size_config,"ax",%progbits
	.hidden	spi_fifo_access_size_config @ -- Begin function spi_fifo_access_size_config
	.globl	spi_fifo_access_size_config
	.p2align	1
	.type	spi_fifo_access_size_config,%function
	.code	16                      @ @spi_fifo_access_size_config
	.thumb_func
spi_fifo_access_size_config:
.Lfunc_begin40:
	.loc	4 944 0                 @ ../GD32E230_Firmware_Library/GD32E230_standard_peripheral/Source/gd32e230_spi.c:944:0
	.fnstart
	.cfi_startproc
@ %bb.0:
	.save	{r4, lr}
	push	{r4, lr}
	.cfi_def_cfa_offset 8
	.cfi_offset lr, -4
	.cfi_offset r4, -8
	.pad	#8
	sub	sp, #8
	.cfi_def_cfa_offset 16
	mov	r2, r1
	str	r0, [sp, #4]
	mov	r0, sp
	strh	r1, [r0]
.Ltmp177:
	.loc	4 946 5 prologue_end    @ ../GD32E230_Firmware_Library/GD32E230_standard_peripheral/Source/gd32e230_spi.c:946:5
	ldr	r1, [sp, #4]
	.loc	4 946 26 is_stmt 0      @ ../GD32E230_Firmware_Library/GD32E230_standard_peripheral/Source/gd32e230_spi.c:946:26
	ldr	r3, [r1, #4]
	movw	r4, #4096
	bics	r3, r4
	str	r3, [r1, #4]
	.loc	4 948 39 is_stmt 1      @ ../GD32E230_Firmware_Library/GD32E230_standard_peripheral/Source/gd32e230_spi.c:948:39
	ldrh	r0, [r0]
	.loc	4 948 5 is_stmt 0       @ ../GD32E230_Firmware_Library/GD32E230_standard_peripheral/Source/gd32e230_spi.c:948:5
	ldr	r1, [sp, #4]
	.loc	4 948 26                @ ../GD32E230_Firmware_Library/GD32E230_standard_peripheral/Source/gd32e230_spi.c:948:26
	ldr	r3, [r1, #4]
	orrs	r3, r0
	str	r3, [r1, #4]
	.loc	4 949 1 is_stmt 1       @ ../GD32E230_Firmware_Library/GD32E230_standard_peripheral/Source/gd32e230_spi.c:949:1
	add	sp, #8
	pop	{r4, pc}
.Ltmp178:
.Lfunc_end40:
	.size	spi_fifo_access_size_config, .Lfunc_end40-spi_fifo_access_size_config
	.cfi_endproc
	.cantunwind
	.fnend
                                        @ -- End function
	.section	.text.spi_transmit_odd_config,"ax",%progbits
	.hidden	spi_transmit_odd_config @ -- Begin function spi_transmit_odd_config
	.globl	spi_transmit_odd_config
	.p2align	1
	.type	spi_transmit_odd_config,%function
	.code	16                      @ @spi_transmit_odd_config
	.thumb_func
spi_transmit_odd_config:
.Lfunc_begin41:
	.loc	4 962 0                 @ ../GD32E230_Firmware_Library/GD32E230_standard_peripheral/Source/gd32e230_spi.c:962:0
	.fnstart
	.cfi_startproc
@ %bb.0:
	.save	{r4, lr}
	push	{r4, lr}
	.cfi_def_cfa_offset 8
	.cfi_offset lr, -4
	.cfi_offset r4, -8
	.pad	#8
	sub	sp, #8
	.cfi_def_cfa_offset 16
	mov	r2, r1
	str	r0, [sp, #4]
	mov	r0, sp
	strh	r1, [r0]
.Ltmp179:
	.loc	4 964 5 prologue_end    @ ../GD32E230_Firmware_Library/GD32E230_standard_peripheral/Source/gd32e230_spi.c:964:5
	ldr	r1, [sp, #4]
	.loc	4 964 26 is_stmt 0      @ ../GD32E230_Firmware_Library/GD32E230_standard_peripheral/Source/gd32e230_spi.c:964:26
	ldr	r3, [r1, #4]
	movw	r4, #16384
	bics	r3, r4
	str	r3, [r1, #4]
	.loc	4 966 39 is_stmt 1      @ ../GD32E230_Firmware_Library/GD32E230_standard_peripheral/Source/gd32e230_spi.c:966:39
	ldrh	r0, [r0]
	.loc	4 966 5 is_stmt 0       @ ../GD32E230_Firmware_Library/GD32E230_standard_peripheral/Source/gd32e230_spi.c:966:5
	ldr	r1, [sp, #4]
	.loc	4 966 26                @ ../GD32E230_Firmware_Library/GD32E230_standard_peripheral/Source/gd32e230_spi.c:966:26
	ldr	r3, [r1, #4]
	orrs	r3, r0
	str	r3, [r1, #4]
	.loc	4 967 1 is_stmt 1       @ ../GD32E230_Firmware_Library/GD32E230_standard_peripheral/Source/gd32e230_spi.c:967:1
	add	sp, #8
	pop	{r4, pc}
.Ltmp180:
.Lfunc_end41:
	.size	spi_transmit_odd_config, .Lfunc_end41-spi_transmit_odd_config
	.cfi_endproc
	.cantunwind
	.fnend
                                        @ -- End function
	.section	.text.spi_receive_odd_config,"ax",%progbits
	.hidden	spi_receive_odd_config  @ -- Begin function spi_receive_odd_config
	.globl	spi_receive_odd_config
	.p2align	1
	.type	spi_receive_odd_config,%function
	.code	16                      @ @spi_receive_odd_config
	.thumb_func
spi_receive_odd_config:
.Lfunc_begin42:
	.loc	4 980 0                 @ ../GD32E230_Firmware_Library/GD32E230_standard_peripheral/Source/gd32e230_spi.c:980:0
	.fnstart
	.cfi_startproc
@ %bb.0:
	.save	{r4, lr}
	push	{r4, lr}
	.cfi_def_cfa_offset 8
	.cfi_offset lr, -4
	.cfi_offset r4, -8
	.pad	#8
	sub	sp, #8
	.cfi_def_cfa_offset 16
	mov	r2, r1
	str	r0, [sp, #4]
	mov	r0, sp
	strh	r1, [r0]
.Ltmp181:
	.loc	4 982 5 prologue_end    @ ../GD32E230_Firmware_Library/GD32E230_standard_peripheral/Source/gd32e230_spi.c:982:5
	ldr	r1, [sp, #4]
	.loc	4 982 26 is_stmt 0      @ ../GD32E230_Firmware_Library/GD32E230_standard_peripheral/Source/gd32e230_spi.c:982:26
	ldr	r3, [r1, #4]
	movw	r4, #8192
	bics	r3, r4
	str	r3, [r1, #4]
	.loc	4 984 39 is_stmt 1      @ ../GD32E230_Firmware_Library/GD32E230_standard_peripheral/Source/gd32e230_spi.c:984:39
	ldrh	r0, [r0]
	.loc	4 984 5 is_stmt 0       @ ../GD32E230_Firmware_Library/GD32E230_standard_peripheral/Source/gd32e230_spi.c:984:5
	ldr	r1, [sp, #4]
	.loc	4 984 26                @ ../GD32E230_Firmware_Library/GD32E230_standard_peripheral/Source/gd32e230_spi.c:984:26
	ldr	r3, [r1, #4]
	orrs	r3, r0
	str	r3, [r1, #4]
	.loc	4 985 1 is_stmt 1       @ ../GD32E230_Firmware_Library/GD32E230_standard_peripheral/Source/gd32e230_spi.c:985:1
	add	sp, #8
	pop	{r4, pc}
.Ltmp182:
.Lfunc_end42:
	.size	spi_receive_odd_config, .Lfunc_end42-spi_receive_odd_config
	.cfi_endproc
	.cantunwind
	.fnend
                                        @ -- End function
	.section	.text.spi_crc_length_set,"ax",%progbits
	.hidden	spi_crc_length_set      @ -- Begin function spi_crc_length_set
	.globl	spi_crc_length_set
	.p2align	1
	.type	spi_crc_length_set,%function
	.code	16                      @ @spi_crc_length_set
	.thumb_func
spi_crc_length_set:
.Lfunc_begin43:
	.loc	4 998 0                 @ ../GD32E230_Firmware_Library/GD32E230_standard_peripheral/Source/gd32e230_spi.c:998:0
	.fnstart
	.cfi_startproc
@ %bb.0:
	.save	{r4, lr}
	push	{r4, lr}
	.cfi_def_cfa_offset 8
	.cfi_offset lr, -4
	.cfi_offset r4, -8
	.pad	#8
	sub	sp, #8
	.cfi_def_cfa_offset 16
	mov	r2, r1
	str	r0, [sp, #4]
	mov	r0, sp
	strh	r1, [r0]
.Ltmp183:
	.loc	4 1000 5 prologue_end   @ ../GD32E230_Firmware_Library/GD32E230_standard_peripheral/Source/gd32e230_spi.c:1000:5
	ldr	r1, [sp, #4]
	.loc	4 1000 26 is_stmt 0     @ ../GD32E230_Firmware_Library/GD32E230_standard_peripheral/Source/gd32e230_spi.c:1000:26
	ldr	r3, [r1]
	movw	r4, #2048
	bics	r3, r4
	str	r3, [r1]
	.loc	4 1002 39 is_stmt 1     @ ../GD32E230_Firmware_Library/GD32E230_standard_peripheral/Source/gd32e230_spi.c:1002:39
	ldrh	r0, [r0]
	.loc	4 1002 5 is_stmt 0      @ ../GD32E230_Firmware_Library/GD32E230_standard_peripheral/Source/gd32e230_spi.c:1002:5
	ldr	r1, [sp, #4]
	.loc	4 1002 26               @ ../GD32E230_Firmware_Library/GD32E230_standard_peripheral/Source/gd32e230_spi.c:1002:26
	ldr	r3, [r1]
	orrs	r3, r0
	str	r3, [r1]
	.loc	4 1003 1 is_stmt 1      @ ../GD32E230_Firmware_Library/GD32E230_standard_peripheral/Source/gd32e230_spi.c:1003:1
	add	sp, #8
	pop	{r4, pc}
.Ltmp184:
.Lfunc_end43:
	.size	spi_crc_length_set, .Lfunc_end43-spi_crc_length_set
	.cfi_endproc
	.cantunwind
	.fnend
                                        @ -- End function
	.file	5 "E:\\Soway\\Soway_product-soft\\105 - T119-GD\\E230 -  ds18b20-F8\\MDK-ARM" "../GD32E230_Firmware_Library/GD32E230_standard_peripheral/Include\\gd32e230_spi.h"
	.section	".note.GNU-stack","",%progbits
	.eabi_attribute	30, 6	@ Tag_ABI_optimization_goals
	.ARM_attribute	16, 1	@ Tag_AV_eba