	.text
	.syntax unified
	.eabi_attribute	67, "2.09"	@ Tag_conformance
	.cpu	cortex-m23
	.eabi_attribute	6, 16	@ Tag_CPU_arch
	.eabi_attribute	7, 77	@ Tag_CPU_arch_profile
	.eabi_attribute	8, 0	@ Tag_ARM_ISA_use
	.eabi_attribute	9, 3	@ Tag_THUMB_ISA_use
	.eabi_attribute	34, 0	@ Tag_CPU_unaligned_access
	.eabi_attribute	17, 1	@ Tag_ABI_PCS_GOT_use
	.eabi_attribute	20, 2	@ Tag_ABI_FP_denormal
	.eabi_attribute	21, 0	@ Tag_ABI_FP_exceptions
	.eabi_attribute	23, 1	@ Tag_ABI_FP_number_model
	.eabi_attribute	24, 1	@ Tag_ABI_align_needed
	.eabi_attribute	25, 1	@ Tag_ABI_align_preserved
	.eabi_attribute	38, 1	@ Tag_ABI_FP_16bit_format
	.eabi_attribute	18, 2	@ Tag_ABI_PCS_wchar_t
	.eabi_attribute	26, 1	@ Tag_ABI_enum_size
	.eabi_attribute	14, 0	@ Tag_ABI_PCS_R9_use
	.file	"gd32e230_rtc.c"
	.file	1 "E:\\Soway\\Soway_product-soft\\105 - T119-GD\\E230 -  ds18b20-F8\\MDK-ARM" "../GD32E230_Firmware_Library/CMSIS/GD/GD32E230/Include\\gd32e230.h"
	.file	2 "D:\\Keil_v5\\ARM\\ARMCLANG\\Bin\\..\\include" "stdint.h"
	.section	.text.rtc_deinit,"ax",%progbits
	.hidden	rtc_deinit              @ -- Begin function rtc_deinit
	.globl	rtc_deinit
	.p2align	2
	.type	rtc_deinit,%function
	.code	16                      @ @rtc_deinit
	.thumb_func
rtc_deinit:
.Lfunc_begin0:
	.file	3 "E:\\Soway\\Soway_product-soft\\105 - T119-GD\\E230 -  ds18b20-F8\\MDK-ARM" "../GD32E230_Firmware_Library/GD32E230_standard_peripheral/Source/gd32e230_rtc.c"
	.loc	3 46 0                  @ ../GD32E230_Firmware_Library/GD32E230_standard_peripheral/Source/gd32e230_rtc.c:46:0
	.fnstart
	.cfi_sections .debug_frame
	.cfi_startproc
@ %bb.0:
	.save	{r7, lr}
	push	{r7, lr}
	.cfi_def_cfa_offset 8
	.cfi_offset lr, -4
	.cfi_offset r7, -8
	.pad	#16
	sub	sp, #16
	.cfi_def_cfa_offset 24
	add	r0, sp, #12
	movs	r1, #0
.Ltmp0:
	.loc	3 47 15 prologue_end    @ ../GD32E230_Firmware_Library/GD32E230_standard_peripheral/Source/gd32e230_rtc.c:47:15
	strb	r1, [r0]
	ldr	r2, __arm_cp.0_0
	.loc	3 50 14                 @ ../GD32E230_Firmware_Library/GD32E230_standard_peripheral/Source/gd32e230_rtc.c:50:14
	str	r1, [r2]
	ldr	r2, __arm_cp.0_1
	movs	r3, #202
	.loc	3 53 13                 @ ../GD32E230_Firmware_Library/GD32E230_standard_peripheral/Source/gd32e230_rtc.c:53:13
	str	r3, [r2]
	movs	r3, #83
	.loc	3 54 13                 @ ../GD32E230_Firmware_Library/GD32E230_standard_peripheral/Source/gd32e230_rtc.c:54:13
	str	r3, [r2]
	ldr	r2, __arm_cp.0_2
	.loc	3 57 13                 @ ../GD32E230_Firmware_Library/GD32E230_standard_peripheral/Source/gd32e230_rtc.c:57:13
	ldr	r3, [r2]
	str	r1, [r2]
	.loc	3 60 20                 @ ../GD32E230_Firmware_Library/GD32E230_standard_peripheral/Source/gd32e230_rtc.c:60:20
	str	r0, [sp, #8]            @ 4-byte Spill
	str	r3, [sp, #4]            @ 4-byte Spill
	bl	rtc_init_mode_enter
	.loc	3 60 18 is_stmt 0       @ ../GD32E230_Firmware_Library/GD32E230_standard_peripheral/Source/gd32e230_rtc.c:60:18
	ldr	r1, [sp, #8]            @ 4-byte Reload
	strb	r0, [r1]
.Ltmp1:
	.loc	3 62 17 is_stmt 1       @ ../GD32E230_Firmware_Library/GD32E230_standard_peripheral/Source/gd32e230_rtc.c:62:17
	ldrb	r0, [r1]
.Ltmp2:
	.loc	3 62 8 is_stmt 0        @ ../GD32E230_Firmware_Library/GD32E230_standard_peripheral/Source/gd32e230_rtc.c:62:8
	cmp	r0, #0
	beq	.LBB0_2
	b	.LBB0_1
.LBB0_1:
	.loc	3 0 8                   @ ../GD32E230_Firmware_Library/GD32E230_standard_peripheral/Source/gd32e230_rtc.c:0:8
	ldr	r0, __arm_cp.0_3
	movs	r1, #0
.Ltmp3:
	.loc	3 65 18 is_stmt 1       @ ../GD32E230_Firmware_Library/GD32E230_standard_peripheral/Source/gd32e230_rtc.c:65:18
	str	r1, [r0]
	ldr	r0, __arm_cp.0_4
	ldr	r2, __arm_cp.0_5
	.loc	3 66 18                 @ ../GD32E230_Firmware_Library/GD32E230_standard_peripheral/Source/gd32e230_rtc.c:66:18
	str	r2, [r0]
	ldr	r0, __arm_cp.0_6
	ldr	r2, __arm_cp.0_7
	.loc	3 68 17                 @ ../GD32E230_Firmware_Library/GD32E230_standard_peripheral/Source/gd32e230_rtc.c:68:17
	str	r2, [r0]
	ldr	r0, __arm_cp.0_8
	movs	r2, #7
	.loc	3 72 18                 @ ../GD32E230_Firmware_Library/GD32E230_standard_peripheral/Source/gd32e230_rtc.c:72:18
	str	r2, [r0]
	ldr	r0, __arm_cp.0_9
	.loc	3 75 21                 @ ../GD32E230_Firmware_Library/GD32E230_standard_peripheral/Source/gd32e230_rtc.c:75:21
	str	r1, [r0]
	ldr	r0, __arm_cp.0_10
	.loc	3 76 21                 @ ../GD32E230_Firmware_Library/GD32E230_standard_peripheral/Source/gd32e230_rtc.c:76:21
	str	r1, [r0]
	ldr	r0, __arm_cp.0_11
	.loc	3 79 22                 @ ../GD32E230_Firmware_Library/GD32E230_standard_peripheral/Source/gd32e230_rtc.c:79:22
	str	r1, [r0]
	ldr	r0, __arm_cp.0_12
	.loc	3 80 18                 @ ../GD32E230_Firmware_Library/GD32E230_standard_peripheral/Source/gd32e230_rtc.c:80:18
	str	r1, [r0]
	.loc	3 82 24                 @ ../GD32E230_Firmware_Library/GD32E230_standard_peripheral/Source/gd32e230_rtc.c:82:24
	bl	rtc_register_sync_wait
	add	r1, sp, #12
	.loc	3 82 22 is_stmt 0       @ ../GD32E230_Firmware_Library/GD32E230_standard_peripheral/Source/gd32e230_rtc.c:82:22
	strb	r0, [r1]
	.loc	3 83 5 is_stmt 1        @ ../GD32E230_Firmware_Library/GD32E230_standard_peripheral/Source/gd32e230_rtc.c:83:5
	b	.LBB0_2
.Ltmp4:
.LBB0_2:
	.loc	3 0 5 is_stmt 0         @ ../GD32E230_Firmware_Library/GD32E230_standard_peripheral/Source/gd32e230_rtc.c:0:5
	ldr	r0, __arm_cp.0_1
	movs	r1, #255
	.loc	3 86 13 is_stmt 1       @ ../GD32E230_Firmware_Library/GD32E230_standard_peripheral/Source/gd32e230_rtc.c:86:13
	str	r1, [r0]
	add	r0, sp, #12
	.loc	3 88 12                 @ ../GD32E230_Firmware_Library/GD32E230_standard_peripheral/Source/gd32e230_rtc.c:88:12
	ldrb	r0, [r0]
	.loc	3 88 5 is_stmt 0        @ ../GD32E230_Firmware_Library/GD32E230_standard_peripheral/Source/gd32e230_rtc.c:88:5
	add	sp, #16
	pop	{r7, pc}
.Ltmp5:
	.p2align	2
@ %bb.3:
	.loc	3 0 5                   @ ../GD32E230_Firmware_Library/GD32E230_standard_peripheral/Source/gd32e230_rtc.c:0:5
__arm_cp.0_0:
	.long	1073752128              @ 0x40002840
.Lcpi_end0:
	.size	__arm_cp.0_0, .Lcpi_end0-__arm_cp.0_0
__arm_cp.0_1:
	.long	1073752100              @ 0x40002824
.Lcpi_end1:
	.size	__arm_cp.0_1, .Lcpi_end1-__arm_cp.0_1
__arm_cp.0_2:
	.long	1073752072              @ 0x40002808
.Lcpi_end2:
	.size	__arm_cp.0_2, .Lcpi_end2-__arm_cp.0_2
__arm_cp.0_3:
	.long	1073752064              @ 0x40002800
.Lcpi_end3:
	.size	__arm_cp.0_3, .Lcpi_end3-__arm_cp.0_3
__arm_cp.0_4:
	.long	1073752068              @ 0x40002804
.Lcpi_end4:
	.size	__arm_cp.0_4, .Lcpi_end4-__arm_cp.0_4
__arm_cp.0_5:
	.long	8449                    @ 0x2101
.Lcpi_end5:
	.size	__arm_cp.0_5, .Lcpi_end5-__arm_cp.0_5
__arm_cp.0_6:
	.long	1073752080              @ 0x40002810
.Lcpi_end6:
	.size	__arm_cp.0_6, .Lcpi_end6-__arm_cp.0_6
__arm_cp.0_7:
	.long	8323327                 @ 0x7f00ff
.Lcpi_end7:
	.size	__arm_cp.0_7, .Lcpi_end7-__arm_cp.0_7
__arm_cp.0_8:
	.long	1073752076              @ 0x4000280c
.Lcpi_end8:
	.size	__arm_cp.0_8, .Lcpi_end8-__arm_cp.0_8
__arm_cp.0_9:
	.long	1073752092              @ 0x4000281c
.Lcpi_end9:
	.size	__arm_cp.0_9, .Lcpi_end9-__arm_cp.0_9
__arm_cp.0_10:
	.long	1073752132              @ 0x40002844
.Lcpi_end10:
	.size	__arm_cp.0_10, .Lcpi_end10-__arm_cp.0_10
__arm_cp.0_11:
	.long	1073752108              @ 0x4000282c
.Lcpi_end11:
	.size	__arm_cp.0_11, .Lcpi_end11-__arm_cp.0_11
__arm_cp.0_12:
	.long	1073752124              @ 0x4000283c
.Lcpi_end12:
	.size	__arm_cp.0_12, .Lcpi_end12-__arm_cp.0_12
.Lfunc_end0:
	.size	rtc_deinit, .Lfunc_end0-rtc_deinit
	.cfi_endproc
	.cantunwind
	.fnend
                                        @ -- End function
	.section	.text.rtc_init_mode_enter,"ax",%progbits
	.hidden	rtc_init_mode_enter     @ -- Begin function rtc_init_mode_enter
	.globl	rtc_init_mode_enter
	.p2align	2
	.type	rtc_init_mode_enter,%function
	.code	16                      @ @rtc_init_mode_enter
	.thumb_func
rtc_init_mode_enter:
.Lfunc_begin1:
	.loc	3 164 0 is_stmt 1       @ ../GD32E230_Firmware_Library/GD32E230_standard_peripheral/Source/gd32e230_rtc.c:164:0
	.fnstart
	.cfi_startproc
@ %bb.0:
	.pad	#16
	sub	sp, #16
	.cfi_def_cfa_offset 16
	movw	r0, #16384
.Ltmp6:
	.loc	3 165 14 prologue_end   @ ../GD32E230_Firmware_Library/GD32E230_standard_peripheral/Source/gd32e230_rtc.c:165:14
	str	r0, [sp, #12]
	movs	r0, #0
	.loc	3 166 14                @ ../GD32E230_Firmware_Library/GD32E230_standard_peripheral/Source/gd32e230_rtc.c:166:14
	str	r0, [sp, #8]
	add	r1, sp, #4
	.loc	3 167 15                @ ../GD32E230_Firmware_Library/GD32E230_standard_peripheral/Source/gd32e230_rtc.c:167:15
	strb	r0, [r1]
	ldr	r0, __arm_cp.1_0
.Ltmp7:
	.loc	3 170 28                @ ../GD32E230_Firmware_Library/GD32E230_standard_peripheral/Source/gd32e230_rtc.c:170:28
	ldr	r0, [r0]
.Ltmp8:
	.loc	3 170 8 is_stmt 0       @ ../GD32E230_Firmware_Library/GD32E230_standard_peripheral/Source/gd32e230_rtc.c:170:8
	lsls	r0, r0, #25
	cmp	r0, #0
	bmi	.LBB1_9
	b	.LBB1_1
.LBB1_1:
	.loc	3 0 8                   @ ../GD32E230_Firmware_Library/GD32E230_standard_peripheral/Source/gd32e230_rtc.c:0:8
	ldr	r0, __arm_cp.1_0
.Ltmp9:
	.loc	3 171 18 is_stmt 1      @ ../GD32E230_Firmware_Library/GD32E230_standard_peripheral/Source/gd32e230_rtc.c:171:18
	ldr	r1, [r0]
	movs	r2, #128
	orrs	r1, r2
	str	r1, [r0]
	.loc	3 174 9                 @ ../GD32E230_Firmware_Library/GD32E230_standard_peripheral/Source/gd32e230_rtc.c:174:9
	b	.LBB1_2
.LBB1_2:                                @ =>This Inner Loop Header: Depth=1
	.loc	3 0 9 is_stmt 0         @ ../GD32E230_Firmware_Library/GD32E230_standard_peripheral/Source/gd32e230_rtc.c:0:9
	ldr	r0, __arm_cp.1_0
.Ltmp10:
	.loc	3 175 26 is_stmt 1      @ ../GD32E230_Firmware_Library/GD32E230_standard_peripheral/Source/gd32e230_rtc.c:175:26
	ldr	r0, [r0]
	movs	r1, #64
	.loc	3 175 35 is_stmt 0      @ ../GD32E230_Firmware_Library/GD32E230_standard_peripheral/Source/gd32e230_rtc.c:175:35
	ands	r0, r1
	.loc	3 175 24                @ ../GD32E230_Firmware_Library/GD32E230_standard_peripheral/Source/gd32e230_rtc.c:175:24
	str	r0, [sp, #8]
	.loc	3 176 9 is_stmt 1       @ ../GD32E230_Firmware_Library/GD32E230_standard_peripheral/Source/gd32e230_rtc.c:176:9
	b	.LBB1_3
.Ltmp11:
.LBB1_3:                                @   in Loop: Header=BB1_2 Depth=1
	.loc	3 176 17 is_stmt 0      @ ../GD32E230_Firmware_Library/GD32E230_standard_peripheral/Source/gd32e230_rtc.c:176:17
	ldr	r0, [sp, #12]
	subs	r0, r0, #1
	str	r0, [sp, #12]
	movs	r1, #0
	.loc	3 176 39                @ ../GD32E230_Firmware_Library/GD32E230_standard_peripheral/Source/gd32e230_rtc.c:176:39
	cmp	r0, #0
	str	r1, [sp]                @ 4-byte Spill
	beq	.LBB1_5
	b	.LBB1_4
.LBB1_4:                                @   in Loop: Header=BB1_2 Depth=1
	.loc	3 176 62                @ ../GD32E230_Firmware_Library/GD32E230_standard_peripheral/Source/gd32e230_rtc.c:176:62
	ldr	r0, [sp, #8]
	.loc	3 176 59                @ ../GD32E230_Firmware_Library/GD32E230_standard_peripheral/Source/gd32e230_rtc.c:176:59
	rsbs	r1, r0, #0
	adcs	r0, r1
	str	r0, [sp]                @ 4-byte Spill
	b	.LBB1_5
.LBB1_5:                                @   in Loop: Header=BB1_2 Depth=1
	.loc	3 0 0                   @ ../GD32E230_Firmware_Library/GD32E230_standard_peripheral/Source/gd32e230_rtc.c:0:0
	ldr	r0, [sp]                @ 4-byte Reload
.Ltmp12:
	.loc	3 176 9                 @ ../GD32E230_Firmware_Library/GD32E230_standard_peripheral/Source/gd32e230_rtc.c:176:9
	lsls	r0, r0, #31
	cmp	r0, #0
	bne	.LBB1_2
	b	.LBB1_6
.Ltmp13:
.LBB1_6:
	.loc	3 178 31 is_stmt 1      @ ../GD32E230_Firmware_Library/GD32E230_standard_peripheral/Source/gd32e230_rtc.c:178:31
	ldr	r0, [sp, #8]
.Ltmp14:
	.loc	3 178 12 is_stmt 0      @ ../GD32E230_Firmware_Library/GD32E230_standard_peripheral/Source/gd32e230_rtc.c:178:12
	cmp	r0, #0
	beq	.LBB1_8
	b	.LBB1_7
.LBB1_7:
	.loc	3 0 12                  @ ../GD32E230_Firmware_Library/GD32E230_standard_peripheral/Source/gd32e230_rtc.c:0:12
	add	r0, sp, #4
	movs	r1, #1
.Ltmp15:
	.loc	3 179 26 is_stmt 1      @ ../GD32E230_Firmware_Library/GD32E230_standard_peripheral/Source/gd32e230_rtc.c:179:26
	strb	r1, [r0]
	.loc	3 180 9                 @ ../GD32E230_Firmware_Library/GD32E230_standard_peripheral/Source/gd32e230_rtc.c:180:9
	b	.LBB1_8
.Ltmp16:
.LBB1_8:
	.loc	3 181 5                 @ ../GD32E230_Firmware_Library/GD32E230_standard_peripheral/Source/gd32e230_rtc.c:181:5
	b	.LBB1_10
.Ltmp17:
.LBB1_9:
	.loc	3 0 5 is_stmt 0         @ ../GD32E230_Firmware_Library/GD32E230_standard_peripheral/Source/gd32e230_rtc.c:0:5
	add	r0, sp, #4
	movs	r1, #1
.Ltmp18:
	.loc	3 182 22 is_stmt 1      @ ../GD32E230_Firmware_Library/GD32E230_standard_peripheral/Source/gd32e230_rtc.c:182:22
	strb	r1, [r0]
	b	.LBB1_10
.Ltmp19:
.LBB1_10:
	.loc	3 0 22 is_stmt 0        @ ../GD32E230_Firmware_Library/GD32E230_standard_peripheral/Source/gd32e230_rtc.c:0:22
	add	r0, sp, #4
	.loc	3 184 12 is_stmt 1      @ ../GD32E230_Firmware_Library/GD32E230_standard_peripheral/Source/gd32e230_rtc.c:184:12
	ldrb	r0, [r0]
	.loc	3 184 5 is_stmt 0       @ ../GD32E230_Firmware_Library/GD32E230_standard_peripheral/Source/gd32e230_rtc.c:184:5
	add	sp, #16
	bx	lr
.Ltmp20:
	.p2align	2
@ %bb.11:
	.loc	3 0 5                   @ ../GD32E230_Firmware_Library/GD32E230_standard_peripheral/Source/gd32e230_rtc.c:0:5
__arm_cp.1_0:
	.long	1073752076              @ 0x4000280c
.Lcpi_end13:
	.size	__arm_cp.1_0, .Lcpi_end13-__arm_cp.1_0
.Lfunc_end1:
	.size	rtc_init_mode_enter, .Lfunc_end1-rtc_init_mode_enter
	.cfi_endproc
	.cantunwind
	.fnend
                                        @ -- End function
	.section	.text.rtc_register_sync_wait,"ax",%progbits
	.hidden	rtc_register_sync_wait  @ -- Begin function rtc_register_sync_wait
	.globl	rtc_register_sync_wait
	.p2align	2
	.type	rtc_register_sync_wait,%function
	.code	16                      @ @rtc_register_sync_wait
	.thumb_func
rtc_register_sync_wait:
.Lfunc_begin2:
	.loc	3 206 0 is_stmt 1       @ ../GD32E230_Firmware_Library/GD32E230_standard_peripheral/Source/gd32e230_rtc.c:206:0
	.fnstart
	.cfi_startproc
@ %bb.0:
	.pad	#16
	sub	sp, #16
	.cfi_def_cfa_offset 16
	movw	r0, #32768
.Ltmp21:
	.loc	3 207 23 prologue_end   @ ../GD32E230_Firmware_Library/GD32E230_standard_peripheral/Source/gd32e230_rtc.c:207:23
	str	r0, [sp, #12]
	movs	r0, #0
	.loc	3 208 14                @ ../GD32E230_Firmware_Library/GD32E230_standard_peripheral/Source/gd32e230_rtc.c:208:14
	str	r0, [sp, #8]
	add	r1, sp, #4
	.loc	3 209 15                @ ../GD32E230_Firmware_Library/GD32E230_standard_peripheral/Source/gd32e230_rtc.c:209:15
	strb	r0, [r1]
	ldr	r0, __arm_cp.2_0
.Ltmp22:
	.loc	3 211 28                @ ../GD32E230_Firmware_Library/GD32E230_standard_peripheral/Source/gd32e230_rtc.c:211:28
	ldr	r0, [r0]
.Ltmp23:
	.loc	3 211 8 is_stmt 0       @ ../GD32E230_Firmware_Library/GD32E230_standard_peripheral/Source/gd32e230_rtc.c:211:8
	lsls	r0, r0, #26
	cmp	r0, #0
	bmi	.LBB2_9
	b	.LBB2_1
.LBB2_1:
	.loc	3 0 8                   @ ../GD32E230_Firmware_Library/GD32E230_standard_peripheral/Source/gd32e230_rtc.c:0:8
	ldr	r0, __arm_cp.2_1
	movs	r1, #202
.Ltmp24:
	.loc	3 213 17 is_stmt 1      @ ../GD32E230_Firmware_Library/GD32E230_standard_peripheral/Source/gd32e230_rtc.c:213:17
	str	r1, [r0]
	movs	r1, #83
	.loc	3 214 17                @ ../GD32E230_Firmware_Library/GD32E230_standard_peripheral/Source/gd32e230_rtc.c:214:17
	str	r1, [r0]
	ldr	r0, __arm_cp.2_2
	.loc	3 217 18                @ ../GD32E230_Firmware_Library/GD32E230_standard_peripheral/Source/gd32e230_rtc.c:217:18
	ldr	r1, [r0]
	movs	r2, #32
	bics	r1, r2
	str	r1, [r0]
	.loc	3 220 9                 @ ../GD32E230_Firmware_Library/GD32E230_standard_peripheral/Source/gd32e230_rtc.c:220:9
	b	.LBB2_2
.LBB2_2:                                @ =>This Inner Loop Header: Depth=1
	.loc	3 0 9 is_stmt 0         @ ../GD32E230_Firmware_Library/GD32E230_standard_peripheral/Source/gd32e230_rtc.c:0:9
	ldr	r0, __arm_cp.2_2
.Ltmp25:
	.loc	3 221 27 is_stmt 1      @ ../GD32E230_Firmware_Library/GD32E230_standard_peripheral/Source/gd32e230_rtc.c:221:27
	ldr	r0, [r0]
	movs	r1, #32
	.loc	3 221 36 is_stmt 0      @ ../GD32E230_Firmware_Library/GD32E230_standard_peripheral/Source/gd32e230_rtc.c:221:36
	ands	r0, r1
	.loc	3 221 25                @ ../GD32E230_Firmware_Library/GD32E230_standard_peripheral/Source/gd32e230_rtc.c:221:25
	str	r0, [sp, #8]
	.loc	3 222 9 is_stmt 1       @ ../GD32E230_Firmware_Library/GD32E230_standard_peripheral/Source/gd32e230_rtc.c:222:9
	b	.LBB2_3
.Ltmp26:
.LBB2_3:                                @   in Loop: Header=BB2_2 Depth=1
	.loc	3 222 17 is_stmt 0      @ ../GD32E230_Firmware_Library/GD32E230_standard_peripheral/Source/gd32e230_rtc.c:222:17
	ldr	r0, [sp, #12]
	subs	r0, r0, #1
	str	r0, [sp, #12]
	movs	r1, #0
	.loc	3 222 39                @ ../GD32E230_Firmware_Library/GD32E230_standard_peripheral/Source/gd32e230_rtc.c:222:39
	cmp	r0, #0
	str	r1, [sp]                @ 4-byte Spill
	beq	.LBB2_5
	b	.LBB2_4
.LBB2_4:                                @   in Loop: Header=BB2_2 Depth=1
	.loc	3 222 62                @ ../GD32E230_Firmware_Library/GD32E230_standard_peripheral/Source/gd32e230_rtc.c:222:62
	ldr	r0, [sp, #8]
	.loc	3 222 59                @ ../GD32E230_Firmware_Library/GD32E230_standard_peripheral/Source/gd32e230_rtc.c:222:59
	rsbs	r1, r0, #0
	adcs	r0, r1
	str	r0, [sp]                @ 4-byte Spill
	b	.LBB2_5
.LBB2_5:                                @   in Loop: Header=BB2_2 Depth=1
	.loc	3 0 0                   @ ../GD32E230_Firmware_Library/GD32E230_standard_peripheral/Source/gd32e230_rtc.c:0:0
	ldr	r0, [sp]                @ 4-byte Reload
.Ltmp27:
	.loc	3 222 9                 @ ../GD32E230_Firmware_Library/GD32E230_standard_peripheral/Source/gd32e230_rtc.c:222:9
	lsls	r0, r0, #31
	cmp	r0, #0
	bne	.LBB2_2
	b	.LBB2_6
.Ltmp28:
.LBB2_6:
	.loc	3 224 31 is_stmt 1      @ ../GD32E230_Firmware_Library/GD32E230_standard_peripheral/Source/gd32e230_rtc.c:224:31
	ldr	r0, [sp, #8]
.Ltmp29:
	.loc	3 224 12 is_stmt 0      @ ../GD32E230_Firmware_Library/GD32E230_standard_peripheral/Source/gd32e230_rtc.c:224:12
	cmp	r0, #0
	beq	.LBB2_8
	b	.LBB2_7
.LBB2_7:
	.loc	3 0 12                  @ ../GD32E230_Firmware_Library/GD32E230_standard_peripheral/Source/gd32e230_rtc.c:0:12
	add	r0, sp, #4
	movs	r1, #1
.Ltmp30:
	.loc	3 225 26 is_stmt 1      @ ../GD32E230_Firmware_Library/GD32E230_standard_peripheral/Source/gd32e230_rtc.c:225:26
	strb	r1, [r0]
	.loc	3 226 9                 @ ../GD32E230_Firmware_Library/GD32E230_standard_peripheral/Source/gd32e230_rtc.c:226:9
	b	.LBB2_8
.Ltmp31:
.LBB2_8:
	.loc	3 0 9 is_stmt 0         @ ../GD32E230_Firmware_Library/GD32E230_standard_peripheral/Source/gd32e230_rtc.c:0:9
	ldr	r0, __arm_cp.2_1
	movs	r1, #255
	.loc	3 229 17 is_stmt 1      @ ../GD32E230_Firmware_Library/GD32E230_standard_peripheral/Source/gd32e230_rtc.c:229:17
	str	r1, [r0]
	.loc	3 230 5                 @ ../GD32E230_Firmware_Library/GD32E230_standard_peripheral/Source/gd32e230_rtc.c:230:5
	b	.LBB2_10
.Ltmp32:
.LBB2_9:
	.loc	3 0 5 is_stmt 0         @ ../GD32E230_Firmware_Library/GD32E230_standard_peripheral/Source/gd32e230_rtc.c:0:5
	add	r0, sp, #4
	movs	r1, #1
.Ltmp33:
	.loc	3 231 22 is_stmt 1      @ ../GD32E230_Firmware_Library/GD32E230_standard_peripheral/Source/gd32e230_rtc.c:231:22
	strb	r1, [r0]
	b	.LBB2_10
.Ltmp34:
.LBB2_10:
	.loc	3 0 22 is_stmt 0        @ ../GD32E230_Firmware_Library/GD32E230_standard_peripheral/Source/gd32e230_rtc.c:0:22
	add	r0, sp, #4
	.loc	3 234 12 is_stmt 1      @ ../GD32E230_Firmware_Library/GD32E230_standard_peripheral/Source/gd32e230_rtc.c:234:12
	ldrb	r0, [r0]
	.loc	3 234 5 is_stmt 0       @ ../GD32E230_Firmware_Library/GD32E230_standard_peripheral/Source/gd32e230_rtc.c:234:5
	add	sp, #16
	bx	lr
.Ltmp35:
	.p2align	2
@ %bb.11:
	.loc	3 0 5                   @ ../GD32E230_Firmware_Library/GD32E230_standard_peripheral/Source/gd32e230_rtc.c:0:5
__arm_cp.2_0:
	.long	1073752072              @ 0x40002808
.Lcpi_end14:
	.size	__arm_cp.2_0, .Lcpi_end14-__arm_cp.2_0
__arm_cp.2_1:
	.long	1073752100              @ 0x40002824
.Lcpi_end15:
	.size	__arm_cp.2_1, .Lcpi_end15-__arm_cp.2_1
__arm_cp.2_2:
	.long	1073752076              @ 0x4000280c
.Lcpi_end16:
	.size	__arm_cp.2_2, .Lcpi_end16-__arm_cp.2_2
.Lfunc_end2:
	.size	rtc_register_sync_wait, .Lfunc_end2-rtc_register_sync_wait
	.cfi_endproc
	.cantunwind
	.fnend
                                        @ -- End function
	.section	.text.rtc_init,"ax",%progbits
	.hidden	rtc_init                @ -- Begin function rtc_init
	.globl	rtc_init
	.p2align	2
	.type	rtc_init,%function
	.code	16                      @ @rtc_init
	.thumb_func
rtc_init:
.Lfunc_begin3:
	.loc	3 113 0 is_stmt 1       @ ../GD32E230_Firmware_Library/GD32E230_standard_peripheral/Source/gd32e230_rtc.c:113:0
	.fnstart
	.cfi_startproc
@ %bb.0:
	.save	{r7, lr}
	push	{r7, lr}
	.cfi_def_cfa_offset 8
	.cfi_offset lr, -4
	.cfi_offset r7, -8
	.pad	#24
	sub	sp, #24
	.cfi_def_cfa_offset 32
	str	r0, [sp, #20]
	add	r0, sp, #16
	movs	r1, #0
.Ltmp36:
	.loc	3 114 15 prologue_end   @ ../GD32E230_Firmware_Library/GD32E230_standard_peripheral/Source/gd32e230_rtc.c:114:15
	strb	r1, [r0]
	.loc	3 115 14                @ ../GD32E230_Firmware_Library/GD32E230_standard_peripheral/Source/gd32e230_rtc.c:115:14
	str	r1, [sp, #12]
	.loc	3 115 32 is_stmt 0      @ ../GD32E230_Firmware_Library/GD32E230_standard_peripheral/Source/gd32e230_rtc.c:115:32
	str	r1, [sp, #8]
	.loc	3 117 17 is_stmt 1      @ ../GD32E230_Firmware_Library/GD32E230_standard_peripheral/Source/gd32e230_rtc.c:117:17
	ldr	r1, [sp, #20]
	ldrb	r2, [r1]
	lsls	r2, r2, #16
	.loc	3 118 17                @ ../GD32E230_Firmware_Library/GD32E230_standard_peripheral/Source/gd32e230_rtc.c:118:17
	ldrb	r3, [r1, #3]
	lsls	r3, r3, #29
	lsrs	r3, r3, #16
	.loc	3 117 56                @ ../GD32E230_Firmware_Library/GD32E230_standard_peripheral/Source/gd32e230_rtc.c:117:56
	adds	r2, r2, r3
	.loc	3 119 17                @ ../GD32E230_Firmware_Library/GD32E230_standard_peripheral/Source/gd32e230_rtc.c:119:17
	ldrb	r3, [r1, #1]
	lsls	r3, r3, #27
	lsrs	r3, r3, #19
	.loc	3 118 64                @ ../GD32E230_Firmware_Library/GD32E230_standard_peripheral/Source/gd32e230_rtc.c:118:64
	adds	r2, r2, r3
	.loc	3 120 17                @ ../GD32E230_Firmware_Library/GD32E230_standard_peripheral/Source/gd32e230_rtc.c:120:17
	ldrb	r1, [r1, #2]
	movs	r3, #63
	ands	r1, r3
	.loc	3 119 58                @ ../GD32E230_Firmware_Library/GD32E230_standard_peripheral/Source/gd32e230_rtc.c:119:58
	adds	r1, r2, r1
	.loc	3 117 14                @ ../GD32E230_Firmware_Library/GD32E230_standard_peripheral/Source/gd32e230_rtc.c:117:14
	str	r1, [sp, #8]
	.loc	3 122 17                @ ../GD32E230_Firmware_Library/GD32E230_standard_peripheral/Source/gd32e230_rtc.c:122:17
	ldr	r1, [sp, #20]
	.loc	3 122 38 is_stmt 0      @ ../GD32E230_Firmware_Library/GD32E230_standard_peripheral/Source/gd32e230_rtc.c:122:38
	ldr	r2, [r1, #12]
	.loc	3 123 17 is_stmt 1      @ ../GD32E230_Firmware_Library/GD32E230_standard_peripheral/Source/gd32e230_rtc.c:123:17
	ldrb	r3, [r1, #4]
	lsls	r3, r3, #26
	lsrs	r3, r3, #10
	.loc	3 122 47                @ ../GD32E230_Firmware_Library/GD32E230_standard_peripheral/Source/gd32e230_rtc.c:122:47
	orrs	r2, r3
	.loc	3 124 17                @ ../GD32E230_Firmware_Library/GD32E230_standard_peripheral/Source/gd32e230_rtc.c:124:17
	ldrb	r3, [r1, #5]
	lsls	r3, r3, #25
	lsrs	r3, r3, #17
	.loc	3 123 56                @ ../GD32E230_Firmware_Library/GD32E230_standard_peripheral/Source/gd32e230_rtc.c:123:56
	orrs	r2, r3
	.loc	3 125 17                @ ../GD32E230_Firmware_Library/GD32E230_standard_peripheral/Source/gd32e230_rtc.c:125:17
	ldrb	r1, [r1, #6]
	movs	r3, #127
	ands	r1, r3
	.loc	3 124 58                @ ../GD32E230_Firmware_Library/GD32E230_standard_peripheral/Source/gd32e230_rtc.c:124:58
	orrs	r2, r1
	.loc	3 122 14                @ ../GD32E230_Firmware_Library/GD32E230_standard_peripheral/Source/gd32e230_rtc.c:122:14
	str	r2, [sp, #12]
	ldr	r1, __arm_cp.3_0
	movs	r2, #202
	.loc	3 128 13                @ ../GD32E230_Firmware_Library/GD32E230_standard_peripheral/Source/gd32e230_rtc.c:128:13
	str	r2, [r1]
	movs	r2, #83
	.loc	3 129 13                @ ../GD32E230_Firmware_Library/GD32E230_standard_peripheral/Source/gd32e230_rtc.c:129:13
	str	r2, [r1]
	.loc	3 132 20                @ ../GD32E230_Firmware_Library/GD32E230_standard_peripheral/Source/gd32e230_rtc.c:132:20
	str	r0, [sp, #4]            @ 4-byte Spill
	bl	rtc_init_mode_enter
	.loc	3 132 18 is_stmt 0      @ ../GD32E230_Firmware_Library/GD32E230_standard_peripheral/Source/gd32e230_rtc.c:132:18
	ldr	r1, [sp, #4]            @ 4-byte Reload
	strb	r0, [r1]
.Ltmp37:
	.loc	3 134 17 is_stmt 1      @ ../GD32E230_Firmware_Library/GD32E230_standard_peripheral/Source/gd32e230_rtc.c:134:17
	ldrb	r0, [r1]
.Ltmp38:
	.loc	3 134 8 is_stmt 0       @ ../GD32E230_Firmware_Library/GD32E230_standard_peripheral/Source/gd32e230_rtc.c:134:8
	cmp	r0, #0
	beq	.LBB3_2
	b	.LBB3_1
.LBB3_1:
.Ltmp39:
	.loc	3 135 30 is_stmt 1      @ ../GD32E230_Firmware_Library/GD32E230_standard_peripheral/Source/gd32e230_rtc.c:135:30
	ldr	r0, [sp, #20]
	ldrh	r1, [r0, #8]
	lsls	r1, r1, #16
	.loc	3 136 35                @ ../GD32E230_Firmware_Library/GD32E230_standard_peripheral/Source/gd32e230_rtc.c:136:35
	ldrh	r0, [r0, #10]
	.loc	3 135 30                @ ../GD32E230_Firmware_Library/GD32E230_standard_peripheral/Source/gd32e230_rtc.c:135:30
	adds	r0, r1, r0
	ldr	r1, __arm_cp.3_1
	.loc	3 135 80 is_stmt 0      @ ../GD32E230_Firmware_Library/GD32E230_standard_peripheral/Source/gd32e230_rtc.c:135:80
	ands	r0, r1
	ldr	r1, __arm_cp.3_2
	.loc	3 135 17                @ ../GD32E230_Firmware_Library/GD32E230_standard_peripheral/Source/gd32e230_rtc.c:135:17
	str	r0, [r1]
	.loc	3 138 30 is_stmt 1      @ ../GD32E230_Firmware_Library/GD32E230_standard_peripheral/Source/gd32e230_rtc.c:138:30
	ldr	r0, [sp, #12]
	ldr	r1, __arm_cp.3_3
	.loc	3 138 18 is_stmt 0      @ ../GD32E230_Firmware_Library/GD32E230_standard_peripheral/Source/gd32e230_rtc.c:138:18
	str	r0, [r1]
	.loc	3 139 30 is_stmt 1      @ ../GD32E230_Firmware_Library/GD32E230_standard_peripheral/Source/gd32e230_rtc.c:139:30
	ldr	r0, [sp, #8]
	ldr	r1, __arm_cp.3_4
	.loc	3 139 18 is_stmt 0      @ ../GD32E230_Firmware_Library/GD32E230_standard_peripheral/Source/gd32e230_rtc.c:139:18
	str	r0, [r1]
	ldr	r0, __arm_cp.3_5
	.loc	3 141 17 is_stmt 1      @ ../GD32E230_Firmware_Library/GD32E230_standard_peripheral/Source/gd32e230_rtc.c:141:17
	ldr	r1, [r0]
	movs	r2, #64
	bics	r1, r2
	str	r1, [r0]
	.loc	3 142 21                @ ../GD32E230_Firmware_Library/GD32E230_standard_peripheral/Source/gd32e230_rtc.c:142:21
	ldr	r1, [sp, #20]
	.loc	3 142 42 is_stmt 0      @ ../GD32E230_Firmware_Library/GD32E230_standard_peripheral/Source/gd32e230_rtc.c:142:42
	ldr	r1, [r1, #16]
	.loc	3 142 17                @ ../GD32E230_Firmware_Library/GD32E230_standard_peripheral/Source/gd32e230_rtc.c:142:17
	ldr	r2, [r0]
	orrs	r2, r1
	str	r2, [r0]
	.loc	3 145 9 is_stmt 1       @ ../GD32E230_Firmware_Library/GD32E230_standard_peripheral/Source/gd32e230_rtc.c:145:9
	bl	rtc_init_mode_exit
	.loc	3 148 24                @ ../GD32E230_Firmware_Library/GD32E230_standard_peripheral/Source/gd32e230_rtc.c:148:24
	bl	rtc_register_sync_wait
	add	r1, sp, #16
	.loc	3 148 22 is_stmt 0      @ ../GD32E230_Firmware_Library/GD32E230_standard_peripheral/Source/gd32e230_rtc.c:148:22
	strb	r0, [r1]
	.loc	3 149 5 is_stmt 1       @ ../GD32E230_Firmware_Library/GD32E230_standard_peripheral/Source/gd32e230_rtc.c:149:5
	b	.LBB3_2
.Ltmp40:
.LBB3_2:
	.loc	3 0 5 is_stmt 0         @ ../GD32E230_Firmware_Library/GD32E230_standard_peripheral/Source/gd32e230_rtc.c:0:5
	ldr	r0, __arm_cp.3_0
	movs	r1, #255
	.loc	3 152 13 is_stmt 1      @ ../GD32E230_Firmware_Library/GD32E230_standard_peripheral/Source/gd32e230_rtc.c:152:13
	str	r1, [r0]
	add	r0, sp, #16
	.loc	3 154 12                @ ../GD32E230_Firmware_Library/GD32E230_standard_peripheral/Source/gd32e230_rtc.c:154:12
	ldrb	r0, [r0]
	.loc	3 154 5 is_stmt 0       @ ../GD32E230_Firmware_Library/GD32E230_standard_peripheral/Source/gd32e230_rtc.c:154:5
	add	sp, #24
	pop	{r7, pc}
.Ltmp41:
	.p2align	2
@ %bb.3:
	.loc	3 0 5                   @ ../GD32E230_Firmware_Library/GD32E230_standard_peripheral/Source/gd32e230_rtc.c:0:5
__arm_cp.3_0:
	.long	1073752100              @ 0x40002824
.Lcpi_end17:
	.size	__arm_cp.3_0, .Lcpi_end17-__arm_cp.3_0
__arm_cp.3_1:
	.long	8355839                 @ 0x7f7fff
.Lcpi_end18:
	.size	__arm_cp.3_1, .Lcpi_end18-__arm_cp.3_1
__arm_cp.3_2:
	.long	1073752080              @ 0x40002810
.Lcpi_end19:
	.size	__arm_cp.3_2, .Lcpi_end19-__arm_cp.3_2
__arm_cp.3_3:
	.long	1073752064              @ 0x40002800
.Lcpi_end20:
	.size	__arm_cp.3_3, .Lcpi_end20-__arm_cp.3_3
__arm_cp.3_4:
	.long	1073752068              @ 0x40002804
.Lcpi_end21:
	.size	__arm_cp.3_4, .Lcpi_end21-__arm_cp.3_4
__arm_cp.3_5:
	.long	1073752072              @ 0x40002808
.Lcpi_end22:
	.size	__arm_cp.3_5, .Lcpi_end22-__arm_cp.3_5
.Lfunc_end3:
	.size	rtc_init, .Lfunc_end3-rtc_init
	.cfi_endproc
	.cantunwind
	.fnend
                                        @ -- End function
	.section	.text.rtc_init_mode_exit,"ax",%progbits
	.hidden	rtc_init_mode_exit      @ -- Begin function rtc_init_mode_exit
	.globl	rtc_init_mode_exit
	.p2align	2
	.type	rtc_init_mode_exit,%function
	.code	16                      @ @rtc_init_mode_exit
	.thumb_func
rtc_init_mode_exit:
.Lfunc_begin4:
	.loc	3 194 0 is_stmt 1       @ ../GD32E230_Firmware_Library/GD32E230_standard_peripheral/Source/gd32e230_rtc.c:194:0
	.fnstart
	.cfi_startproc
@ %bb.0:
	ldr	r0, __arm_cp.4_0
.Ltmp42:
	.loc	3 195 14 prologue_end   @ ../GD32E230_Firmware_Library/GD32E230_standard_peripheral/Source/gd32e230_rtc.c:195:14
	ldr	r1, [r0]
	movs	r2, #128
	bics	r1, r2
	str	r1, [r0]
	.loc	3 196 1                 @ ../GD32E230_Firmware_Library/GD32E230_standard_peripheral/Source/gd32e230_rtc.c:196:1
	bx	lr
.Ltmp43:
	.p2align	2
@ %bb.1:
	.loc	3 0 1 is_stmt 0         @ ../GD32E230_Firmware_Library/GD32E230_standard_peripheral/Source/gd32e230_rtc.c:0:1
__arm_cp.4_0:
	.long	1073752076              @ 0x4000280c
.Lcpi_end23:
	.size	__arm_cp.4_0, .Lcpi_end23-__arm_cp.4_0
.Lfunc_end4:
	.size	rtc_init_mode_exit, .Lfunc_end4-rtc_init_mode_exit
	.cfi_endproc
	.cantunwind
	.fnend
                                        @ -- End function
	.section	.text.rtc_current_time_get,"ax",%progbits
	.hidden	rtc_current_time_get    @ -- Begin function rtc_current_time_get
	.globl	rtc_current_time_get
	.p2align	2
	.type	rtc_current_time_get,%function
	.code	16                      @ @rtc_current_time_get
	.thumb_func
rtc_current_time_get:
.Lfunc_begin5:
	.loc	3 259 0 is_stmt 1       @ ../GD32E230_Firmware_Library/GD32E230_standard_peripheral/Source/gd32e230_rtc.c:259:0
	.fnstart
	.cfi_startproc
@ %bb.0:
	.pad	#20
	sub	sp, #20
	.cfi_def_cfa_offset 20
	str	r0, [sp, #16]
	movs	r0, #0
.Ltmp44:
	.loc	3 260 14 prologue_end   @ ../GD32E230_Firmware_Library/GD32E230_standard_peripheral/Source/gd32e230_rtc.c:260:14
	str	r0, [sp, #12]
	.loc	3 260 31 is_stmt 0      @ ../GD32E230_Firmware_Library/GD32E230_standard_peripheral/Source/gd32e230_rtc.c:260:31
	str	r0, [sp, #8]
	.loc	3 260 48                @ ../GD32E230_Firmware_Library/GD32E230_standard_peripheral/Source/gd32e230_rtc.c:260:48
	str	r0, [sp, #4]
	.loc	3 260 67                @ ../GD32E230_Firmware_Library/GD32E230_standard_peripheral/Source/gd32e230_rtc.c:260:67
	str	r0, [sp]
	ldr	r0, __arm_cp.5_0
	.loc	3 262 25 is_stmt 1      @ ../GD32E230_Firmware_Library/GD32E230_standard_peripheral/Source/gd32e230_rtc.c:262:25
	ldr	r0, [r0]
	.loc	3 262 13 is_stmt 0      @ ../GD32E230_Firmware_Library/GD32E230_standard_peripheral/Source/gd32e230_rtc.c:262:13
	str	r0, [sp, #12]
	ldr	r0, __arm_cp.5_1
	.loc	3 263 25 is_stmt 1      @ ../GD32E230_Firmware_Library/GD32E230_standard_peripheral/Source/gd32e230_rtc.c:263:25
	ldr	r0, [r0]
	.loc	3 263 13 is_stmt 0      @ ../GD32E230_Firmware_Library/GD32E230_standard_peripheral/Source/gd32e230_rtc.c:263:13
	str	r0, [sp, #8]
	ldr	r0, __arm_cp.5_2
	.loc	3 264 27 is_stmt 1      @ ../GD32E230_Firmware_Library/GD32E230_standard_peripheral/Source/gd32e230_rtc.c:264:27
	ldr	r0, [r0]
	.loc	3 264 15 is_stmt 0      @ ../GD32E230_Firmware_Library/GD32E230_standard_peripheral/Source/gd32e230_rtc.c:264:15
	str	r0, [sp, #4]
	ldr	r0, __arm_cp.5_3
	.loc	3 265 27 is_stmt 1      @ ../GD32E230_Firmware_Library/GD32E230_standard_peripheral/Source/gd32e230_rtc.c:265:27
	ldr	r0, [r0]
	.loc	3 265 15 is_stmt 0      @ ../GD32E230_Firmware_Library/GD32E230_standard_peripheral/Source/gd32e230_rtc.c:265:15
	str	r0, [sp]
	add	r0, sp, #8
	.loc	3 268 46 is_stmt 1      @ ../GD32E230_Firmware_Library/GD32E230_standard_peripheral/Source/gd32e230_rtc.c:268:46
	ldrh	r1, [r0, #2]
	.loc	3 268 5 is_stmt 0       @ ../GD32E230_Firmware_Library/GD32E230_standard_peripheral/Source/gd32e230_rtc.c:268:5
	ldr	r2, [sp, #16]
	.loc	3 268 35                @ ../GD32E230_Firmware_Library/GD32E230_standard_peripheral/Source/gd32e230_rtc.c:268:35
	strb	r1, [r2]
	.loc	3 269 47 is_stmt 1      @ ../GD32E230_Firmware_Library/GD32E230_standard_peripheral/Source/gd32e230_rtc.c:269:47
	ldr	r1, [sp, #8]
	movw	r2, #7936
	ands	r1, r2
	lsrs	r1, r1, #8
	.loc	3 269 5 is_stmt 0       @ ../GD32E230_Firmware_Library/GD32E230_standard_peripheral/Source/gd32e230_rtc.c:269:5
	ldr	r2, [sp, #16]
	.loc	3 269 36                @ ../GD32E230_Firmware_Library/GD32E230_standard_peripheral/Source/gd32e230_rtc.c:269:36
	strb	r1, [r2, #1]
	.loc	3 270 46 is_stmt 1      @ ../GD32E230_Firmware_Library/GD32E230_standard_peripheral/Source/gd32e230_rtc.c:270:46
	ldr	r1, [sp, #8]
	movs	r2, #63
	ands	r1, r2
	.loc	3 270 5 is_stmt 0       @ ../GD32E230_Firmware_Library/GD32E230_standard_peripheral/Source/gd32e230_rtc.c:270:5
	ldr	r3, [sp, #16]
	.loc	3 270 35                @ ../GD32E230_Firmware_Library/GD32E230_standard_peripheral/Source/gd32e230_rtc.c:270:35
	strb	r1, [r3, #2]
	.loc	3 271 53 is_stmt 1      @ ../GD32E230_Firmware_Library/GD32E230_standard_peripheral/Source/gd32e230_rtc.c:271:53
	ldrh	r0, [r0]
	lsrs	r0, r0, #13
	.loc	3 271 5 is_stmt 0       @ ../GD32E230_Firmware_Library/GD32E230_standard_peripheral/Source/gd32e230_rtc.c:271:5
	ldr	r1, [sp, #16]
	.loc	3 271 42                @ ../GD32E230_Firmware_Library/GD32E230_standard_peripheral/Source/gd32e230_rtc.c:271:42
	strb	r0, [r1, #3]
	.loc	3 272 46 is_stmt 1      @ ../GD32E230_Firmware_Library/GD32E230_standard_peripheral/Source/gd32e230_rtc.c:272:46
	ldr	r0, [sp, #12]
	lsls	r1, r2, #16
	ands	r0, r1
	lsrs	r0, r0, #16
	.loc	3 272 5 is_stmt 0       @ ../GD32E230_Firmware_Library/GD32E230_standard_peripheral/Source/gd32e230_rtc.c:272:5
	ldr	r1, [sp, #16]
	.loc	3 272 35                @ ../GD32E230_Firmware_Library/GD32E230_standard_peripheral/Source/gd32e230_rtc.c:272:35
	strb	r0, [r1, #4]
	.loc	3 273 48 is_stmt 1      @ ../GD32E230_Firmware_Library/GD32E230_standard_peripheral/Source/gd32e230_rtc.c:273:48
	ldr	r0, [sp, #12]
	movw	r1, #32512
	ands	r0, r1
	lsrs	r0, r0, #8
	.loc	3 273 5 is_stmt 0       @ ../GD32E230_Firmware_Library/GD32E230_standard_peripheral/Source/gd32e230_rtc.c:273:5
	ldr	r1, [sp, #16]
	.loc	3 273 37                @ ../GD32E230_Firmware_Library/GD32E230_standard_peripheral/Source/gd32e230_rtc.c:273:37
	strb	r0, [r1, #5]
	.loc	3 274 48 is_stmt 1      @ ../GD32E230_Firmware_Library/GD32E230_standard_peripheral/Source/gd32e230_rtc.c:274:48
	ldr	r0, [sp, #12]
	movs	r1, #127
	ands	r0, r1
	.loc	3 274 5 is_stmt 0       @ ../GD32E230_Firmware_Library/GD32E230_standard_peripheral/Source/gd32e230_rtc.c:274:5
	ldr	r2, [sp, #16]
	.loc	3 274 37                @ ../GD32E230_Firmware_Library/GD32E230_standard_peripheral/Source/gd32e230_rtc.c:274:37
	strb	r0, [r2, #6]
	.loc	3 275 54 is_stmt 1      @ ../GD32E230_Firmware_Library/GD32E230_standard_peripheral/Source/gd32e230_rtc.c:275:54
	ldr	r0, [sp, #4]
	lsls	r1, r1, #16
	ands	r0, r1
	lsrs	r0, r0, #16
	.loc	3 275 5 is_stmt 0       @ ../GD32E230_Firmware_Library/GD32E230_standard_peripheral/Source/gd32e230_rtc.c:275:5
	ldr	r1, [sp, #16]
	.loc	3 275 42                @ ../GD32E230_Firmware_Library/GD32E230_standard_peripheral/Source/gd32e230_rtc.c:275:42
	strh	r0, [r1, #8]
	.loc	3 276 53 is_stmt 1      @ ../GD32E230_Firmware_Library/GD32E230_standard_peripheral/Source/gd32e230_rtc.c:276:53
	ldr	r0, [sp, #4]
	ldr	r1, __arm_cp.5_4
	ands	r0, r1
	.loc	3 276 5 is_stmt 0       @ ../GD32E230_Firmware_Library/GD32E230_standard_peripheral/Source/gd32e230_rtc.c:276:5
	ldr	r1, [sp, #16]
	.loc	3 276 41                @ ../GD32E230_Firmware_Library/GD32E230_standard_peripheral/Source/gd32e230_rtc.c:276:41
	strh	r0, [r1, #10]
	.loc	3 277 49 is_stmt 1      @ ../GD32E230_Firmware_Library/GD32E230_standard_peripheral/Source/gd32e230_rtc.c:277:49
	ldr	r0, [sp, #4]
	movs	r1, #1
	lsls	r1, r1, #22
	.loc	3 277 59 is_stmt 0      @ ../GD32E230_Firmware_Library/GD32E230_standard_peripheral/Source/gd32e230_rtc.c:277:59
	ands	r0, r1
	.loc	3 277 5                 @ ../GD32E230_Firmware_Library/GD32E230_standard_peripheral/Source/gd32e230_rtc.c:277:5
	ldr	r1, [sp, #16]
	.loc	3 277 36                @ ../GD32E230_Firmware_Library/GD32E230_standard_peripheral/Source/gd32e230_rtc.c:277:36
	str	r0, [r1, #12]
	.loc	3 278 58 is_stmt 1      @ ../GD32E230_Firmware_Library/GD32E230_standard_peripheral/Source/gd32e230_rtc.c:278:58
	ldr	r0, [sp]
	movs	r1, #64
	.loc	3 278 68 is_stmt 0      @ ../GD32E230_Firmware_Library/GD32E230_standard_peripheral/Source/gd32e230_rtc.c:278:68
	ands	r0, r1
	.loc	3 278 5                 @ ../GD32E230_Firmware_Library/GD32E230_standard_peripheral/Source/gd32e230_rtc.c:278:5
	ldr	r1, [sp, #16]
	.loc	3 278 45                @ ../GD32E230_Firmware_Library/GD32E230_standard_peripheral/Source/gd32e230_rtc.c:278:45
	str	r0, [r1, #16]
	.loc	3 279 1 is_stmt 1       @ ../GD32E230_Firmware_Library/GD32E230_standard_peripheral/Source/gd32e230_rtc.c:279:1
	add	sp, #20
	bx	lr
.Ltmp45:
	.p2align	2
@ %bb.1:
	.loc	3 0 1 is_stmt 0         @ ../GD32E230_Firmware_Library/GD32E230_standard_peripheral/Source/gd32e230_rtc.c:0:1
__arm_cp.5_0:
	.long	1073752064              @ 0x40002800
.Lcpi_end24:
	.size	__arm_cp.5_0, .Lcpi_end24-__arm_cp.5_0
__arm_cp.5_1:
	.long	1073752068              @ 0x40002804
.Lcpi_end25:
	.size	__arm_cp.5_1, .Lcpi_end25-__arm_cp.5_1
__arm_cp.5_2:
	.long	1073752080              @ 0x40002810
.Lcpi_end26:
	.size	__arm_cp.5_2, .Lcpi_end26-__arm_cp.5_2
__arm_cp.5_3:
	.long	1073752072              @ 0x40002808
.Lcpi_end27:
	.size	__arm_cp.5_3, .Lcpi_end27-__arm_cp.5_3
__arm_cp.5_4:
	.long	32767                   @ 0x7fff
.Lcpi_end28:
	.size	__arm_cp.5_4, .Lcpi_end28-__arm_cp.5_4
.Lfunc_end5:
	.size	rtc_current_time_get, .Lfunc_end5-rtc_current_time_get
	.cfi_endproc
	.cantunwind
	.fnend
                                        @ -- End function
	.section	.text.rtc_subsecond_get,"ax",%progbits
	.hidden	rtc_subsecond_get       @ -- Begin function rtc_subsecond_get
	.globl	rtc_subsecond_get
	.p2align	2
	.type	rtc_subsecond_get,%function
	.code	16                      @ @rtc_subsecond_get
	.thumb_func
rtc_subsecond_get:
.Lfunc_begin6:
	.loc	3 288 0 is_stmt 1       @ ../GD32E230_Firmware_Library/GD32E230_standard_peripheral/Source/gd32e230_rtc.c:288:0
	.fnstart
	.cfi_startproc
@ %bb.0:
	.pad	#8
	sub	sp, #8
	.cfi_def_cfa_offset 8
	movs	r0, #0
.Ltmp46:
	.loc	3 289 14 prologue_end   @ ../GD32E230_Firmware_Library/GD32E230_standard_peripheral/Source/gd32e230_rtc.c:289:14
	str	r0, [sp, #4]
	ldr	r0, __arm_cp.6_0
	.loc	3 291 21                @ ../GD32E230_Firmware_Library/GD32E230_standard_peripheral/Source/gd32e230_rtc.c:291:21
	ldr	r0, [r0]
	.loc	3 291 9 is_stmt 0       @ ../GD32E230_Firmware_Library/GD32E230_standard_peripheral/Source/gd32e230_rtc.c:291:9
	str	r0, [sp, #4]
	ldr	r0, __arm_cp.6_1
	.loc	3 293 13 is_stmt 1      @ ../GD32E230_Firmware_Library/GD32E230_standard_peripheral/Source/gd32e230_rtc.c:293:13
	ldr	r0, [r0]
	.loc	3 295 12                @ ../GD32E230_Firmware_Library/GD32E230_standard_peripheral/Source/gd32e230_rtc.c:295:12
	ldr	r1, [sp, #4]
	.loc	3 295 5 is_stmt 0       @ ../GD32E230_Firmware_Library/GD32E230_standard_peripheral/Source/gd32e230_rtc.c:295:5
	str	r0, [sp]                @ 4-byte Spill
	mov	r0, r1
	add	sp, #8
	bx	lr
.Ltmp47:
	.p2align	2
@ %bb.1:
	.loc	3 0 5                   @ ../GD32E230_Firmware_Library/GD32E230_standard_peripheral/Source/gd32e230_rtc.c:0:5
__arm_cp.6_0:
	.long	1073752104              @ 0x40002828
.Lcpi_end29:
	.size	__arm_cp.6_0, .Lcpi_end29-__arm_cp.6_0
__arm_cp.6_1:
	.long	1073752068              @ 0x40002804
.Lcpi_end30:
	.size	__arm_cp.6_1, .Lcpi_end30-__arm_cp.6_1
.Lfunc_end6:
	.size	rtc_subsecond_get, .Lfunc_end6-rtc_subsecond_get
	.cfi_endproc
	.cantunwind
	.fnend
                                        @ -- End function
	.section	.text.rtc_alarm_config,"ax",%progbits
	.hidden	rtc_alarm_config        @ -- Begin function rtc_alarm_config
	.globl	rtc_alarm_config
	.p2align	2
	.type	rtc_alarm_config,%function
	.code	16                      @ @rtc_alarm_config
	.thumb_func
rtc_alarm_config:
.Lfunc_begin7:
	.loc	3 317 0 is_stmt 1       @ ../GD32E230_Firmware_Library/GD32E230_standard_peripheral/Source/gd32e230_rtc.c:317:0
	.fnstart
	.cfi_startproc
@ %bb.0:
	.pad	#8
	sub	sp, #8
	.cfi_def_cfa_offset 8
	str	r0, [sp, #4]
	movs	r0, #0
.Ltmp48:
	.loc	3 318 14 prologue_end   @ ../GD32E230_Firmware_Library/GD32E230_standard_peripheral/Source/gd32e230_rtc.c:318:14
	str	r0, [sp]
	.loc	3 320 20                @ ../GD32E230_Firmware_Library/GD32E230_standard_peripheral/Source/gd32e230_rtc.c:320:20
	ldr	r0, [sp, #4]
	.loc	3 320 36 is_stmt 0      @ ../GD32E230_Firmware_Library/GD32E230_standard_peripheral/Source/gd32e230_rtc.c:320:36
	ldr	r1, [r0]
	.loc	3 321 34 is_stmt 1      @ ../GD32E230_Firmware_Library/GD32E230_standard_peripheral/Source/gd32e230_rtc.c:321:34
	ldr	r2, [r0, #4]
	.loc	3 320 51                @ ../GD32E230_Firmware_Library/GD32E230_standard_peripheral/Source/gd32e230_rtc.c:320:51
	orrs	r1, r2
	.loc	3 322 34                @ ../GD32E230_Firmware_Library/GD32E230_standard_peripheral/Source/gd32e230_rtc.c:322:34
	ldr	r2, [r0, #12]
	.loc	3 321 54                @ ../GD32E230_Firmware_Library/GD32E230_standard_peripheral/Source/gd32e230_rtc.c:321:54
	orrs	r1, r2
	.loc	3 323 18                @ ../GD32E230_Firmware_Library/GD32E230_standard_peripheral/Source/gd32e230_rtc.c:323:18
	ldrb	r2, [r0, #8]
	lsls	r2, r2, #26
	lsrs	r2, r2, #2
	.loc	3 322 44                @ ../GD32E230_Firmware_Library/GD32E230_standard_peripheral/Source/gd32e230_rtc.c:322:44
	orrs	r1, r2
	.loc	3 324 18                @ ../GD32E230_Firmware_Library/GD32E230_standard_peripheral/Source/gd32e230_rtc.c:324:18
	ldrb	r2, [r0, #9]
	lsls	r2, r2, #26
	lsrs	r2, r2, #10
	.loc	3 323 61                @ ../GD32E230_Firmware_Library/GD32E230_standard_peripheral/Source/gd32e230_rtc.c:323:61
	orrs	r1, r2
	.loc	3 325 18                @ ../GD32E230_Firmware_Library/GD32E230_standard_peripheral/Source/gd32e230_rtc.c:325:18
	ldrb	r2, [r0, #10]
	lsls	r2, r2, #25
	lsrs	r2, r2, #17
	.loc	3 324 61                @ ../GD32E230_Firmware_Library/GD32E230_standard_peripheral/Source/gd32e230_rtc.c:324:61
	orrs	r1, r2
	.loc	3 326 18                @ ../GD32E230_Firmware_Library/GD32E230_standard_peripheral/Source/gd32e230_rtc.c:326:18
	ldrb	r0, [r0, #11]
	movs	r2, #127
	ands	r0, r2
	.loc	3 325 63                @ ../GD32E230_Firmware_Library/GD32E230_standard_peripheral/Source/gd32e230_rtc.c:325:63
	orrs	r1, r0
	.loc	3 320 17                @ ../GD32E230_Firmware_Library/GD32E230_standard_peripheral/Source/gd32e230_rtc.c:320:17
	str	r1, [sp]
	ldr	r0, __arm_cp.7_0
	movs	r1, #202
	.loc	3 329 13                @ ../GD32E230_Firmware_Library/GD32E230_standard_peripheral/Source/gd32e230_rtc.c:329:13
	str	r1, [r0]
	movs	r1, #83
	.loc	3 330 13                @ ../GD32E230_Firmware_Library/GD32E230_standard_peripheral/Source/gd32e230_rtc.c:330:13
	str	r1, [r0]
	.loc	3 332 29                @ ../GD32E230_Firmware_Library/GD32E230_standard_peripheral/Source/gd32e230_rtc.c:332:29
	ldr	r1, [sp]
	ldr	r2, __arm_cp.7_1
	.loc	3 332 17 is_stmt 0      @ ../GD32E230_Firmware_Library/GD32E230_standard_peripheral/Source/gd32e230_rtc.c:332:17
	str	r1, [r2]
	movs	r1, #255
	.loc	3 335 13 is_stmt 1      @ ../GD32E230_Firmware_Library/GD32E230_standard_peripheral/Source/gd32e230_rtc.c:335:13
	str	r1, [r0]
	.loc	3 336 1                 @ ../GD32E230_Firmware_Library/GD32E230_standard_peripheral/Source/gd32e230_rtc.c:336:1
	add	sp, #8
	bx	lr
.Ltmp49:
	.p2align	2
@ %bb.1:
	.loc	3 0 1 is_stmt 0         @ ../GD32E230_Firmware_Library/GD32E230_standard_peripheral/Source/gd32e230_rtc.c:0:1
__arm_cp.7_0:
	.long	1073752100              @ 0x40002824
.Lcpi_end31:
	.size	__arm_cp.7_0, .Lcpi_end31-__arm_cp.7_0
__arm_cp.7_1:
	.long	1073752092              @ 0x4000281c
.Lcpi_end32:
	.size	__arm_cp.7_1, .Lcpi_end32-__arm_cp.7_1
.Lfunc_end7:
	.size	rtc_alarm_config, .Lfunc_end7-rtc_alarm_config
	.cfi_endproc
	.cantunwind
	.fnend
                                        @ -- End function
	.section	.text.rtc_alarm_subsecond_config,"ax",%progbits
	.hidden	rtc_alarm_subsecond_config @ -- Begin function rtc_alarm_subsecond_config
	.globl	rtc_alarm_subsecond_config
	.p2align	2
	.type	rtc_alarm_subsecond_config,%function
	.code	16                      @ @rtc_alarm_subsecond_config
	.thumb_func
rtc_alarm_subsecond_config:
.Lfunc_begin8:
	.loc	3 363 0 is_stmt 1       @ ../GD32E230_Firmware_Library/GD32E230_standard_peripheral/Source/gd32e230_rtc.c:363:0
	.fnstart
	.cfi_startproc
@ %bb.0:
	.pad	#8
	sub	sp, #8
	.cfi_def_cfa_offset 8
	str	r0, [sp, #4]
	str	r1, [sp]
	ldr	r0, __arm_cp.8_0
	movs	r1, #202
.Ltmp50:
	.loc	3 365 13 prologue_end   @ ../GD32E230_Firmware_Library/GD32E230_standard_peripheral/Source/gd32e230_rtc.c:365:13
	str	r1, [r0]
	movs	r1, #83
	.loc	3 366 13                @ ../GD32E230_Firmware_Library/GD32E230_standard_peripheral/Source/gd32e230_rtc.c:366:13
	str	r1, [r0]
	.loc	3 368 19                @ ../GD32E230_Firmware_Library/GD32E230_standard_peripheral/Source/gd32e230_rtc.c:368:19
	ldr	r1, [sp, #4]
	.loc	3 368 36 is_stmt 0      @ ../GD32E230_Firmware_Library/GD32E230_standard_peripheral/Source/gd32e230_rtc.c:368:36
	ldr	r2, [sp]
	.loc	3 368 34                @ ../GD32E230_Firmware_Library/GD32E230_standard_peripheral/Source/gd32e230_rtc.c:368:34
	orrs	r1, r2
	ldr	r2, __arm_cp.8_1
	.loc	3 368 17                @ ../GD32E230_Firmware_Library/GD32E230_standard_peripheral/Source/gd32e230_rtc.c:368:17
	str	r1, [r2]
	movs	r1, #255
	.loc	3 371 13 is_stmt 1      @ ../GD32E230_Firmware_Library/GD32E230_standard_peripheral/Source/gd32e230_rtc.c:371:13
	str	r1, [r0]
	.loc	3 372 1                 @ ../GD32E230_Firmware_Library/GD32E230_standard_peripheral/Source/gd32e230_rtc.c:372:1
	add	sp, #8
	bx	lr
.Ltmp51:
	.p2align	2
@ %bb.1:
	.loc	3 0 1 is_stmt 0         @ ../GD32E230_Firmware_Library/GD32E230_standard_peripheral/Source/gd32e230_rtc.c:0:1
__arm_cp.8_0:
	.long	1073752100              @ 0x40002824
.Lcpi_end33:
	.size	__arm_cp.8_0, .Lcpi_end33-__arm_cp.8_0
__arm_cp.8_1:
	.long	1073752132              @ 0x40002844
.Lcpi_end34:
	.size	__arm_cp.8_1, .Lcpi_end34-__arm_cp.8_1
.Lfunc_end8:
	.size	rtc_alarm_subsecond_config, .Lfunc_end8-rtc_alarm_subsecond_config
	.cfi_endproc
	.cantunwind
	.fnend
                                        @ -- End function
	.section	.text.rtc_alarm_enable,"ax",%progbits
	.hidden	rtc_alarm_enable        @ -- Begin function rtc_alarm_enable
	.globl	rtc_alarm_enable
	.p2align	2
	.type	rtc_alarm_enable,%function
	.code	16                      @ @rtc_alarm_enable
	.thumb_func
rtc_alarm_enable:
.Lfunc_begin9:
	.loc	3 381 0 is_stmt 1       @ ../GD32E230_Firmware_Library/GD32E230_standard_peripheral/Source/gd32e230_rtc.c:381:0
	.fnstart
	.cfi_startproc
@ %bb.0:
	ldr	r0, __arm_cp.9_0
	movs	r1, #202
.Ltmp52:
	.loc	3 383 13 prologue_end   @ ../GD32E230_Firmware_Library/GD32E230_standard_peripheral/Source/gd32e230_rtc.c:383:13
	str	r1, [r0]
	movs	r1, #83
	.loc	3 384 13                @ ../GD32E230_Firmware_Library/GD32E230_standard_peripheral/Source/gd32e230_rtc.c:384:13
	str	r1, [r0]
	ldr	r1, __arm_cp.9_1
	.loc	3 386 13                @ ../GD32E230_Firmware_Library/GD32E230_standard_peripheral/Source/gd32e230_rtc.c:386:13
	ldr	r2, [r1]
	movw	r3, #256
	orrs	r2, r3
	str	r2, [r1]
	movs	r1, #255
	.loc	3 389 13                @ ../GD32E230_Firmware_Library/GD32E230_standard_peripheral/Source/gd32e230_rtc.c:389:13
	str	r1, [r0]
	.loc	3 390 1                 @ ../GD32E230_Firmware_Library/GD32E230_standard_peripheral/Source/gd32e230_rtc.c:390:1
	bx	lr
.Ltmp53:
	.p2align	2
@ %bb.1:
	.loc	3 0 1 is_stmt 0         @ ../GD32E230_Firmware_Library/GD32E230_standard_peripheral/Source/gd32e230_rtc.c:0:1
__arm_cp.9_0:
	.long	1073752100              @ 0x40002824
.Lcpi_end35:
	.size	__arm_cp.9_0, .Lcpi_end35-__arm_cp.9_0
__arm_cp.9_1:
	.long	1073752072              @ 0x40002808
.Lcpi_end36:
	.size	__arm_cp.9_1, .Lcpi_end36-__arm_cp.9_1
.Lfunc_end9:
	.size	rtc_alarm_enable, .Lfunc_end9-rtc_alarm_enable
	.cfi_endproc
	.cantunwind
	.fnend
                                        @ -- End function
	.section	.text.rtc_alarm_disable,"ax",%progbits
	.hidden	rtc_alarm_disable       @ -- Begin function rtc_alarm_disable
	.globl	rtc_alarm_disable
	.p2align	2
	.type	rtc_alarm_disable,%function
	.code	16                      @ @rtc_alarm_disable
	.thumb_func
rtc_alarm_disable:
.Lfunc_begin10:
	.loc	3 399 0 is_stmt 1       @ ../GD32E230_Firmware_Library/GD32E230_standard_peripheral/Source/gd32e230_rtc.c:399:0
	.fnstart
	.cfi_startproc
@ %bb.0:
	.pad	#16
	sub	sp, #16
	.cfi_def_cfa_offset 16
	movw	r0, #32768
.Ltmp54:
	.loc	3 400 23 prologue_end   @ ../GD32E230_Firmware_Library/GD32E230_standard_peripheral/Source/gd32e230_rtc.c:400:23
	str	r0, [sp, #12]
	add	r0, sp, #8
	movs	r1, #0
	.loc	3 401 15                @ ../GD32E230_Firmware_Library/GD32E230_standard_peripheral/Source/gd32e230_rtc.c:401:15
	strb	r1, [r0]
	.loc	3 402 14                @ ../GD32E230_Firmware_Library/GD32E230_standard_peripheral/Source/gd32e230_rtc.c:402:14
	str	r1, [sp, #4]
	ldr	r0, __arm_cp.10_0
	movs	r1, #202
	.loc	3 405 13                @ ../GD32E230_Firmware_Library/GD32E230_standard_peripheral/Source/gd32e230_rtc.c:405:13
	str	r1, [r0]
	movs	r1, #83
	.loc	3 406 13                @ ../GD32E230_Firmware_Library/GD32E230_standard_peripheral/Source/gd32e230_rtc.c:406:13
	str	r1, [r0]
	ldr	r0, __arm_cp.10_1
	.loc	3 409 13                @ ../GD32E230_Firmware_Library/GD32E230_standard_peripheral/Source/gd32e230_rtc.c:409:13
	ldr	r1, [r0]
	movw	r2, #256
	bics	r1, r2
	str	r1, [r0]
	.loc	3 412 5                 @ ../GD32E230_Firmware_Library/GD32E230_standard_peripheral/Source/gd32e230_rtc.c:412:5
	b	.LBB10_1
.LBB10_1:                               @ =>This Inner Loop Header: Depth=1
	.loc	3 0 5 is_stmt 0         @ ../GD32E230_Firmware_Library/GD32E230_standard_peripheral/Source/gd32e230_rtc.c:0:5
	ldr	r0, __arm_cp.10_2
.Ltmp55:
	.loc	3 413 23 is_stmt 1      @ ../GD32E230_Firmware_Library/GD32E230_standard_peripheral/Source/gd32e230_rtc.c:413:23
	ldr	r0, [r0]
	movs	r1, #1
	.loc	3 413 32 is_stmt 0      @ ../GD32E230_Firmware_Library/GD32E230_standard_peripheral/Source/gd32e230_rtc.c:413:32
	ands	r0, r1
	.loc	3 413 21                @ ../GD32E230_Firmware_Library/GD32E230_standard_peripheral/Source/gd32e230_rtc.c:413:21
	str	r0, [sp, #4]
	.loc	3 414 5 is_stmt 1       @ ../GD32E230_Firmware_Library/GD32E230_standard_peripheral/Source/gd32e230_rtc.c:414:5
	b	.LBB10_2
.Ltmp56:
.LBB10_2:                               @   in Loop: Header=BB10_1 Depth=1
	.loc	3 414 13 is_stmt 0      @ ../GD32E230_Firmware_Library/GD32E230_standard_peripheral/Source/gd32e230_rtc.c:414:13
	ldr	r0, [sp, #12]
	subs	r0, r0, #1
	str	r0, [sp, #12]
	movs	r1, #0
	.loc	3 414 35                @ ../GD32E230_Firmware_Library/GD32E230_standard_peripheral/Source/gd32e230_rtc.c:414:35
	cmp	r0, #0
	str	r1, [sp]                @ 4-byte Spill
	beq	.LBB10_4
	b	.LBB10_3
.LBB10_3:                               @   in Loop: Header=BB10_1 Depth=1
	.loc	3 414 58                @ ../GD32E230_Firmware_Library/GD32E230_standard_peripheral/Source/gd32e230_rtc.c:414:58
	ldr	r0, [sp, #4]
	.loc	3 414 55                @ ../GD32E230_Firmware_Library/GD32E230_standard_peripheral/Source/gd32e230_rtc.c:414:55
	rsbs	r1, r0, #0
	adcs	r0, r1
	str	r0, [sp]                @ 4-byte Spill
	b	.LBB10_4
.LBB10_4:                               @   in Loop: Header=BB10_1 Depth=1
	.loc	3 0 0                   @ ../GD32E230_Firmware_Library/GD32E230_standard_peripheral/Source/gd32e230_rtc.c:0:0
	ldr	r0, [sp]                @ 4-byte Reload
.Ltmp57:
	.loc	3 414 5                 @ ../GD32E230_Firmware_Library/GD32E230_standard_peripheral/Source/gd32e230_rtc.c:414:5
	lsls	r0, r0, #31
	cmp	r0, #0
	bne	.LBB10_1
	b	.LBB10_5
.Ltmp58:
.LBB10_5:
	.loc	3 416 27 is_stmt 1      @ ../GD32E230_Firmware_Library/GD32E230_standard_peripheral/Source/gd32e230_rtc.c:416:27
	ldr	r0, [sp, #4]
.Ltmp59:
	.loc	3 416 8 is_stmt 0       @ ../GD32E230_Firmware_Library/GD32E230_standard_peripheral/Source/gd32e230_rtc.c:416:8
	cmp	r0, #0
	beq	.LBB10_7
	b	.LBB10_6
.LBB10_6:
	.loc	3 0 8                   @ ../GD32E230_Firmware_Library/GD32E230_standard_peripheral/Source/gd32e230_rtc.c:0:8
	add	r0, sp, #8
	movs	r1, #1
.Ltmp60:
	.loc	3 417 22 is_stmt 1      @ ../GD32E230_Firmware_Library/GD32E230_standard_peripheral/Source/gd32e230_rtc.c:417:22
	strb	r1, [r0]
	.loc	3 418 5                 @ ../GD32E230_Firmware_Library/GD32E230_standard_peripheral/Source/gd32e230_rtc.c:418:5
	b	.LBB10_7
.Ltmp61:
.LBB10_7:
	.loc	3 0 5 is_stmt 0         @ ../GD32E230_Firmware_Library/GD32E230_standard_peripheral/Source/gd32e230_rtc.c:0:5
	ldr	r0, __arm_cp.10_0
	movs	r1, #255
	.loc	3 421 13 is_stmt 1      @ ../GD32E230_Firmware_Library/GD32E230_standard_peripheral/Source/gd32e230_rtc.c:421:13
	str	r1, [r0]
	add	r0, sp, #8
	.loc	3 423 12                @ ../GD32E230_Firmware_Library/GD32E230_standard_peripheral/Source/gd32e230_rtc.c:423:12
	ldrb	r0, [r0]
	.loc	3 423 5 is_stmt 0       @ ../GD32E230_Firmware_Library/GD32E230_standard_peripheral/Source/gd32e230_rtc.c:423:5
	add	sp, #16
	bx	lr
.Ltmp62:
	.p2align	2
@ %bb.8:
	.loc	3 0 5                   @ ../GD32E230_Firmware_Library/GD32E230_standard_peripheral/Source/gd32e230_rtc.c:0:5
__arm_cp.10_0:
	.long	1073752100              @ 0x40002824
.Lcpi_end37:
	.size	__arm_cp.10_0, .Lcpi_end37-__arm_cp.10_0
__arm_cp.10_1:
	.long	1073752072              @ 0x40002808
.Lcpi_end38:
	.size	__arm_cp.10_1, .Lcpi_end38-__arm_cp.10_1
__arm_cp.10_2:
	.long	1073752076              @ 0x4000280c
.Lcpi_end39:
	.size	__arm_cp.10_2, .Lcpi_end39-__arm_cp.10_2
.Lfunc_end10:
	.size	rtc_alarm_disable, .Lfunc_end10-rtc_alarm_disable
	.cfi_endproc
	.cantunwind
	.fnend
                                        @ -- End function
	.section	.text.rtc_alarm_get,"ax",%progbits
	.hidden	rtc_alarm_get           @ -- Begin function rtc_alarm_get
	.globl	rtc_alarm_get
	.p2align	2
	.type	rtc_alarm_get,%function
	.code	16                      @ @rtc_alarm_get
	.thumb_func
rtc_alarm_get:
.Lfunc_begin11:
	.loc	3 445 0 is_stmt 1       @ ../GD32E230_Firmware_Library/GD32E230_standard_peripheral/Source/gd32e230_rtc.c:445:0
	.fnstart
	.cfi_startproc
@ %bb.0:
	.pad	#8
	sub	sp, #8
	.cfi_def_cfa_offset 8
	str	r0, [sp, #4]
	movs	r0, #0
.Ltmp63:
	.loc	3 446 14 prologue_end   @ ../GD32E230_Firmware_Library/GD32E230_standard_peripheral/Source/gd32e230_rtc.c:446:14
	str	r0, [sp]
	ldr	r0, __arm_cp.11_0
	.loc	3 449 19                @ ../GD32E230_Firmware_Library/GD32E230_standard_peripheral/Source/gd32e230_rtc.c:449:19
	ldr	r0, [r0]
	.loc	3 449 17 is_stmt 0      @ ../GD32E230_Firmware_Library/GD32E230_standard_peripheral/Source/gd32e230_rtc.c:449:17
	str	r0, [sp]
	.loc	3 452 38 is_stmt 1      @ ../GD32E230_Firmware_Library/GD32E230_standard_peripheral/Source/gd32e230_rtc.c:452:38
	ldr	r0, [sp]
	ldr	r1, __arm_cp.11_1
	.loc	3 452 50 is_stmt 0      @ ../GD32E230_Firmware_Library/GD32E230_standard_peripheral/Source/gd32e230_rtc.c:452:50
	ands	r0, r1
	.loc	3 452 5                 @ ../GD32E230_Firmware_Library/GD32E230_standard_peripheral/Source/gd32e230_rtc.c:452:5
	ldr	r1, [sp, #4]
	.loc	3 452 36                @ ../GD32E230_Firmware_Library/GD32E230_standard_peripheral/Source/gd32e230_rtc.c:452:36
	str	r0, [r1]
	.loc	3 453 44 is_stmt 1      @ ../GD32E230_Firmware_Library/GD32E230_standard_peripheral/Source/gd32e230_rtc.c:453:44
	ldr	r0, [sp]
	movs	r1, #1
	lsls	r2, r1, #22
	.loc	3 453 56 is_stmt 0      @ ../GD32E230_Firmware_Library/GD32E230_standard_peripheral/Source/gd32e230_rtc.c:453:56
	ands	r0, r2
	.loc	3 453 5                 @ ../GD32E230_Firmware_Library/GD32E230_standard_peripheral/Source/gd32e230_rtc.c:453:5
	ldr	r2, [sp, #4]
	.loc	3 453 31                @ ../GD32E230_Firmware_Library/GD32E230_standard_peripheral/Source/gd32e230_rtc.c:453:31
	str	r0, [r2, #12]
	.loc	3 454 54 is_stmt 1      @ ../GD32E230_Firmware_Library/GD32E230_standard_peripheral/Source/gd32e230_rtc.c:454:54
	ldr	r0, [sp]
	lsls	r1, r1, #30
	.loc	3 454 66 is_stmt 0      @ ../GD32E230_Firmware_Library/GD32E230_standard_peripheral/Source/gd32e230_rtc.c:454:66
	ands	r0, r1
	.loc	3 454 5                 @ ../GD32E230_Firmware_Library/GD32E230_standard_peripheral/Source/gd32e230_rtc.c:454:5
	ldr	r1, [sp, #4]
	.loc	3 454 41                @ ../GD32E230_Firmware_Library/GD32E230_standard_peripheral/Source/gd32e230_rtc.c:454:41
	str	r0, [r1, #4]
	.loc	3 455 46 is_stmt 1      @ ../GD32E230_Firmware_Library/GD32E230_standard_peripheral/Source/gd32e230_rtc.c:455:46
	ldr	r0, [sp]
	movs	r1, #63
	lsls	r2, r1, #24
	ands	r0, r2
	lsrs	r0, r0, #24
	.loc	3 455 5 is_stmt 0       @ ../GD32E230_Firmware_Library/GD32E230_standard_peripheral/Source/gd32e230_rtc.c:455:5
	ldr	r2, [sp, #4]
	.loc	3 455 35                @ ../GD32E230_Firmware_Library/GD32E230_standard_peripheral/Source/gd32e230_rtc.c:455:35
	strb	r0, [r2, #8]
	.loc	3 456 47 is_stmt 1      @ ../GD32E230_Firmware_Library/GD32E230_standard_peripheral/Source/gd32e230_rtc.c:456:47
	ldr	r0, [sp]
	lsls	r1, r1, #16
	ands	r0, r1
	lsrs	r0, r0, #16
	.loc	3 456 5 is_stmt 0       @ ../GD32E230_Firmware_Library/GD32E230_standard_peripheral/Source/gd32e230_rtc.c:456:5
	ldr	r1, [sp, #4]
	.loc	3 456 36                @ ../GD32E230_Firmware_Library/GD32E230_standard_peripheral/Source/gd32e230_rtc.c:456:36
	strb	r0, [r1, #9]
	.loc	3 457 49 is_stmt 1      @ ../GD32E230_Firmware_Library/GD32E230_standard_peripheral/Source/gd32e230_rtc.c:457:49
	ldr	r0, [sp]
	movw	r1, #32512
	ands	r0, r1
	lsrs	r0, r0, #8
	.loc	3 457 5 is_stmt 0       @ ../GD32E230_Firmware_Library/GD32E230_standard_peripheral/Source/gd32e230_rtc.c:457:5
	ldr	r1, [sp, #4]
	.loc	3 457 38                @ ../GD32E230_Firmware_Library/GD32E230_standard_peripheral/Source/gd32e230_rtc.c:457:38
	strb	r0, [r1, #10]
	.loc	3 458 49 is_stmt 1      @ ../GD32E230_Firmware_Library/GD32E230_standard_peripheral/Source/gd32e230_rtc.c:458:49
	ldr	r0, [sp]
	movs	r1, #127
	ands	r0, r1
	.loc	3 458 5 is_stmt 0       @ ../GD32E230_Firmware_Library/GD32E230_standard_peripheral/Source/gd32e230_rtc.c:458:5
	ldr	r1, [sp, #4]
	.loc	3 458 38                @ ../GD32E230_Firmware_Library/GD32E230_standard_peripheral/Source/gd32e230_rtc.c:458:38
	strb	r0, [r1, #11]
	.loc	3 459 1 is_stmt 1       @ ../GD32E230_Firmware_Library/GD32E230_standard_peripheral/Source/gd32e230_rtc.c:459:1
	add	sp, #8
	bx	lr
.Ltmp64:
	.p2align	2
@ %bb.1:
	.loc	3 0 1 is_stmt 0         @ ../GD32E230_Firmware_Library/GD32E230_standard_peripheral/Source/gd32e230_rtc.c:0:1
__arm_cp.11_0:
	.long	1073752092              @ 0x4000281c
.Lcpi_end40:
	.size	__arm_cp.11_0, .Lcpi_end40-__arm_cp.11_0
__arm_cp.11_1:
	.long	2155905152              @ 0x80808080
.Lcpi_end41:
	.size	__arm_cp.11_1, .Lcpi_end41-__arm_cp.11_1
.Lfunc_end11:
	.size	rtc_alarm_get, .Lfunc_end11-rtc_alarm_get
	.cfi_endproc
	.cantunwind
	.fnend
                                        @ -- End function
	.section	.text.rtc_alarm_subsecond_get,"ax",%progbits
	.hidden	rtc_alarm_subsecond_get @ -- Begin function rtc_alarm_subsecond_get
	.globl	rtc_alarm_subsecond_get
	.p2align	2
	.type	rtc_alarm_subsecond_get,%function
	.code	16                      @ @rtc_alarm_subsecond_get
	.thumb_func
rtc_alarm_subsecond_get:
.Lfunc_begin12:
	.loc	3 468 0 is_stmt 1       @ ../GD32E230_Firmware_Library/GD32E230_standard_peripheral/Source/gd32e230_rtc.c:468:0
	.fnstart
	.cfi_startproc
@ %bb.0:
	ldr	r0, __arm_cp.12_0
.Ltmp65:
	.loc	3 469 24 prologue_end   @ ../GD32E230_Firmware_Library/GD32E230_standard_peripheral/Source/gd32e230_rtc.c:469:24
	ldr	r0, [r0]
	ldr	r1, __arm_cp.12_1
	.loc	3 469 36 is_stmt 0      @ ../GD32E230_Firmware_Library/GD32E230_standard_peripheral/Source/gd32e230_rtc.c:469:36
	ands	r0, r1
	.loc	3 469 5                 @ ../GD32E230_Firmware_Library/GD32E230_standard_peripheral/Source/gd32e230_rtc.c:469:5
	bx	lr
.Ltmp66:
	.p2align	2
@ %bb.1:
	.loc	3 0 5                   @ ../GD32E230_Firmware_Library/GD32E230_standard_peripheral/Source/gd32e230_rtc.c:0:5
__arm_cp.12_0:
	.long	1073752132              @ 0x40002844
.Lcpi_end42:
	.size	__arm_cp.12_0, .Lcpi_end42-__arm_cp.12_0
__arm_cp.12_1:
	.long	32767                   @ 0x7fff
.Lcpi_end43:
	.size	__arm_cp.12_1, .Lcpi_end43-__arm_cp.12_1
.Lfunc_end12:
	.size	rtc_alarm_subsecond_get, .Lfunc_end12-rtc_alarm_subsecond_get
	.cfi_endproc
	.cantunwind
	.fnend
                                        @ -- End function
	.section	.text.rtc_timestamp_enable,"ax",%progbits
	.hidden	rtc_timestamp_enable    @ -- Begin function rtc_timestamp_enable
	.globl	rtc_timestamp_enable
	.p2align	2
	.type	rtc_timestamp_enable,%function
	.code	16                      @ @rtc_timestamp_enable
	.thumb_func
rtc_timestamp_enable:
.Lfunc_begin13:
	.loc	3 482 0 is_stmt 1       @ ../GD32E230_Firmware_Library/GD32E230_standard_peripheral/Source/gd32e230_rtc.c:482:0
	.fnstart
	.cfi_startproc
@ %bb.0:
	.pad	#8
	sub	sp, #8
	.cfi_def_cfa_offset 8
	str	r0, [sp, #4]
	movs	r0, #0
.Ltmp67:
	.loc	3 483 14 prologue_end   @ ../GD32E230_Firmware_Library/GD32E230_standard_peripheral/Source/gd32e230_rtc.c:483:14
	str	r0, [sp]
	ldr	r0, __arm_cp.13_0
	.loc	3 486 26                @ ../GD32E230_Firmware_Library/GD32E230_standard_peripheral/Source/gd32e230_rtc.c:486:26
	ldr	r1, [r0]
	ldr	r2, __arm_cp.13_1
	.loc	3 486 34 is_stmt 0      @ ../GD32E230_Firmware_Library/GD32E230_standard_peripheral/Source/gd32e230_rtc.c:486:34
	ands	r1, r2
	.loc	3 486 13                @ ../GD32E230_Firmware_Library/GD32E230_standard_peripheral/Source/gd32e230_rtc.c:486:13
	str	r1, [sp]
	.loc	3 489 27 is_stmt 1      @ ../GD32E230_Firmware_Library/GD32E230_standard_peripheral/Source/gd32e230_rtc.c:489:27
	ldr	r1, [sp, #4]
	.loc	3 489 13 is_stmt 0      @ ../GD32E230_Firmware_Library/GD32E230_standard_peripheral/Source/gd32e230_rtc.c:489:13
	ldr	r2, [sp]
	.loc	3 489 32                @ ../GD32E230_Firmware_Library/GD32E230_standard_peripheral/Source/gd32e230_rtc.c:489:32
	orrs	r1, r2
	movw	r2, #2048
	.loc	3 489 13                @ ../GD32E230_Firmware_Library/GD32E230_standard_peripheral/Source/gd32e230_rtc.c:489:13
	orrs	r1, r2
	str	r1, [sp]
	ldr	r1, __arm_cp.13_2
	movs	r2, #202
	.loc	3 492 13 is_stmt 1      @ ../GD32E230_Firmware_Library/GD32E230_standard_peripheral/Source/gd32e230_rtc.c:492:13
	str	r2, [r1]
	movs	r2, #83
	.loc	3 493 13                @ ../GD32E230_Firmware_Library/GD32E230_standard_peripheral/Source/gd32e230_rtc.c:493:13
	str	r2, [r1]
	.loc	3 495 25                @ ../GD32E230_Firmware_Library/GD32E230_standard_peripheral/Source/gd32e230_rtc.c:495:25
	ldr	r2, [sp]
	.loc	3 495 13 is_stmt 0      @ ../GD32E230_Firmware_Library/GD32E230_standard_peripheral/Source/gd32e230_rtc.c:495:13
	str	r2, [r0]
	movs	r0, #255
	.loc	3 498 13 is_stmt 1      @ ../GD32E230_Firmware_Library/GD32E230_standard_peripheral/Source/gd32e230_rtc.c:498:13
	str	r0, [r1]
	.loc	3 499 1                 @ ../GD32E230_Firmware_Library/GD32E230_standard_peripheral/Source/gd32e230_rtc.c:499:1
	add	sp, #8
	bx	lr
.Ltmp68:
	.p2align	2
@ %bb.1:
	.loc	3 0 1 is_stmt 0         @ ../GD32E230_Firmware_Library/GD32E230_standard_peripheral/Source/gd32e230_rtc.c:0:1
__arm_cp.13_0:
	.long	1073752072              @ 0x40002808
.Lcpi_end44:
	.size	__arm_cp.13_0, .Lcpi_end44-__arm_cp.13_0
__arm_cp.13_1:
	.long	4294965239              @ 0xfffff7f7
.Lcpi_end45:
	.size	__arm_cp.13_1, .Lcpi_end45-__arm_cp.13_1
__arm_cp.13_2:
	.long	1073752100              @ 0x40002824
.Lcpi_end46:
	.size	__arm_cp.13_2, .Lcpi_end46-__arm_cp.13_2
.Lfunc_end13:
	.size	rtc_timestamp_enable, .Lfunc_end13-rtc_timestamp_enable
	.cfi_endproc
	.cantunwind
	.fnend
                                        @ -- End function
	.section	.text.rtc_timestamp_disable,"ax",%progbits
	.hidden	rtc_timestamp_disable   @ -- Begin function rtc_timestamp_disable
	.globl	rtc_timestamp_disable
	.p2align	2
	.type	rtc_timestamp_disable,%function
	.code	16                      @ @rtc_timestamp_disable
	.thumb_func
rtc_timestamp_disable:
.Lfunc_begin14:
	.loc	3 508 0 is_stmt 1       @ ../GD32E230_Firmware_Library/GD32E230_standard_peripheral/Source/gd32e230_rtc.c:508:0
	.fnstart
	.cfi_startproc
@ %bb.0:
	ldr	r0, __arm_cp.14_0
	movs	r1, #202
.Ltmp69:
	.loc	3 510 13 prologue_end   @ ../GD32E230_Firmware_Library/GD32E230_standard_peripheral/Source/gd32e230_rtc.c:510:13
	str	r1, [r0]
	movs	r1, #83
	.loc	3 511 13                @ ../GD32E230_Firmware_Library/GD32E230_standard_peripheral/Source/gd32e230_rtc.c:511:13
	str	r1, [r0]
	ldr	r1, __arm_cp.14_1
	.loc	3 514 13                @ ../GD32E230_Firmware_Library/GD32E230_standard_peripheral/Source/gd32e230_rtc.c:514:13
	ldr	r2, [r1]
	movw	r3, #2048
	bics	r2, r3
	str	r2, [r1]
	movs	r1, #255
	.loc	3 517 13                @ ../GD32E230_Firmware_Library/GD32E230_standard_peripheral/Source/gd32e230_rtc.c:517:13
	str	r1, [r0]
	.loc	3 518 1                 @ ../GD32E230_Firmware_Library/GD32E230_standard_peripheral/Source/gd32e230_rtc.c:518:1
	bx	lr
.Ltmp70:
	.p2align	2
@ %bb.1:
	.loc	3 0 1 is_stmt 0         @ ../GD32E230_Firmware_Library/GD32E230_standard_peripheral/Source/gd32e230_rtc.c:0:1
__arm_cp.14_0:
	.long	1073752100              @ 0x40002824
.Lcpi_end47:
	.size	__arm_cp.14_0, .Lcpi_end47-__arm_cp.14_0
__arm_cp.14_1:
	.long	1073752072              @ 0x40002808
.Lcpi_end48:
	.size	__arm_cp.14_1, .Lcpi_end48-__arm_cp.14_1
.Lfunc_end14:
	.size	rtc_timestamp_disable, .Lfunc_end14-rtc_timestamp_disable
	.cfi_endproc
	.cantunwind
	.fnend
                                        @ -- End function
	.section	.text.rtc_timestamp_get,"ax",%progbits
	.hidden	rtc_timestamp_get       @ -- Begin function rtc_timestamp_get
	.globl	rtc_timestamp_get
	.p2align	2
	.type	rtc_timestamp_get,%function
	.code	16                      @ @rtc_timestamp_get
	.thumb_func
rtc_timestamp_get:
.Lfunc_begin15:
	.loc	3 538 0 is_stmt 1       @ ../GD32E230_Firmware_Library/GD32E230_standard_peripheral/Source/gd32e230_rtc.c:538:0
	.fnstart
	.cfi_startproc
@ %bb.0:
	.pad	#12
	sub	sp, #12
	.cfi_def_cfa_offset 12
	str	r0, [sp, #8]
	movs	r0, #0
.Ltmp71:
	.loc	3 539 14 prologue_end   @ ../GD32E230_Firmware_Library/GD32E230_standard_peripheral/Source/gd32e230_rtc.c:539:14
	str	r0, [sp, #4]
	.loc	3 539 32 is_stmt 0      @ ../GD32E230_Firmware_Library/GD32E230_standard_peripheral/Source/gd32e230_rtc.c:539:32
	str	r0, [sp]
	ldr	r0, __arm_cp.15_0
	.loc	3 542 26 is_stmt 1      @ ../GD32E230_Firmware_Library/GD32E230_standard_peripheral/Source/gd32e230_rtc.c:542:26
	ldr	r0, [r0]
	.loc	3 542 14 is_stmt 0      @ ../GD32E230_Firmware_Library/GD32E230_standard_peripheral/Source/gd32e230_rtc.c:542:14
	str	r0, [sp, #4]
	ldr	r0, __arm_cp.15_1
	.loc	3 543 26 is_stmt 1      @ ../GD32E230_Firmware_Library/GD32E230_standard_peripheral/Source/gd32e230_rtc.c:543:26
	ldr	r0, [r0]
	.loc	3 543 14 is_stmt 0      @ ../GD32E230_Firmware_Library/GD32E230_standard_peripheral/Source/gd32e230_rtc.c:543:14
	str	r0, [sp]
	.loc	3 546 43 is_stmt 1      @ ../GD32E230_Firmware_Library/GD32E230_standard_peripheral/Source/gd32e230_rtc.c:546:43
	ldr	r0, [sp, #4]
	movs	r1, #1
	lsls	r1, r1, #22
	.loc	3 546 52 is_stmt 0      @ ../GD32E230_Firmware_Library/GD32E230_standard_peripheral/Source/gd32e230_rtc.c:546:52
	ands	r0, r1
	.loc	3 546 5                 @ ../GD32E230_Firmware_Library/GD32E230_standard_peripheral/Source/gd32e230_rtc.c:546:5
	ldr	r1, [sp, #8]
	.loc	3 546 30                @ ../GD32E230_Firmware_Library/GD32E230_standard_peripheral/Source/gd32e230_rtc.c:546:30
	str	r0, [r1, #8]
	.loc	3 547 51 is_stmt 1      @ ../GD32E230_Firmware_Library/GD32E230_standard_peripheral/Source/gd32e230_rtc.c:547:51
	ldr	r0, [sp]
	movw	r1, #7936
	ands	r0, r1
	lsrs	r0, r0, #8
	.loc	3 547 5 is_stmt 0       @ ../GD32E230_Firmware_Library/GD32E230_standard_peripheral/Source/gd32e230_rtc.c:547:5
	ldr	r1, [sp, #8]
	.loc	3 547 40                @ ../GD32E230_Firmware_Library/GD32E230_standard_peripheral/Source/gd32e230_rtc.c:547:40
	strb	r0, [r1]
	.loc	3 548 50 is_stmt 1      @ ../GD32E230_Firmware_Library/GD32E230_standard_peripheral/Source/gd32e230_rtc.c:548:50
	ldr	r0, [sp]
	movs	r1, #63
	ands	r0, r1
	.loc	3 548 5 is_stmt 0       @ ../GD32E230_Firmware_Library/GD32E230_standard_peripheral/Source/gd32e230_rtc.c:548:5
	ldr	r2, [sp, #8]
	.loc	3 548 39                @ ../GD32E230_Firmware_Library/GD32E230_standard_peripheral/Source/gd32e230_rtc.c:548:39
	strb	r0, [r2, #1]
	mov	r0, sp
	.loc	3 549 49 is_stmt 1      @ ../GD32E230_Firmware_Library/GD32E230_standard_peripheral/Source/gd32e230_rtc.c:549:49
	ldrh	r0, [r0]
	lsrs	r0, r0, #13
	.loc	3 549 5 is_stmt 0       @ ../GD32E230_Firmware_Library/GD32E230_standard_peripheral/Source/gd32e230_rtc.c:549:5
	ldr	r2, [sp, #8]
	.loc	3 549 38                @ ../GD32E230_Firmware_Library/GD32E230_standard_peripheral/Source/gd32e230_rtc.c:549:38
	strb	r0, [r2, #2]
	.loc	3 550 50 is_stmt 1      @ ../GD32E230_Firmware_Library/GD32E230_standard_peripheral/Source/gd32e230_rtc.c:550:50
	ldr	r0, [sp, #4]
	lsls	r1, r1, #16
	ands	r0, r1
	lsrs	r0, r0, #16
	.loc	3 550 5 is_stmt 0       @ ../GD32E230_Firmware_Library/GD32E230_standard_peripheral/Source/gd32e230_rtc.c:550:5
	ldr	r1, [sp, #8]
	.loc	3 550 39                @ ../GD32E230_Firmware_Library/GD32E230_standard_peripheral/Source/gd32e230_rtc.c:550:39
	strb	r0, [r1, #3]
	.loc	3 551 52 is_stmt 1      @ ../GD32E230_Firmware_Library/GD32E230_standard_peripheral/Source/gd32e230_rtc.c:551:52
	ldr	r0, [sp, #4]
	movw	r1, #32512
	ands	r0, r1
	lsrs	r0, r0, #8
	.loc	3 551 5 is_stmt 0       @ ../GD32E230_Firmware_Library/GD32E230_standard_peripheral/Source/gd32e230_rtc.c:551:5
	ldr	r1, [sp, #8]
	.loc	3 551 41                @ ../GD32E230_Firmware_Library/GD32E230_standard_peripheral/Source/gd32e230_rtc.c:551:41
	strb	r0, [r1, #4]
	.loc	3 552 52 is_stmt 1      @ ../GD32E230_Firmware_Library/GD32E230_standard_peripheral/Source/gd32e230_rtc.c:552:52
	ldr	r0, [sp, #4]
	movs	r1, #127
	ands	r0, r1
	.loc	3 552 5 is_stmt 0       @ ../GD32E230_Firmware_Library/GD32E230_standard_peripheral/Source/gd32e230_rtc.c:552:5
	ldr	r1, [sp, #8]
	.loc	3 552 41                @ ../GD32E230_Firmware_Library/GD32E230_standard_peripheral/Source/gd32e230_rtc.c:552:41
	strb	r0, [r1, #5]
	.loc	3 553 1 is_stmt 1       @ ../GD32E230_Firmware_Library/GD32E230_standard_peripheral/Source/gd32e230_rtc.c:553:1
	add	sp, #12
	bx	lr
.Ltmp72:
	.p2align	2
@ %bb.1:
	.loc	3 0 1 is_stmt 0         @ ../GD32E230_Firmware_Library/GD32E230_standard_peripheral/Source/gd32e230_rtc.c:0:1
__arm_cp.15_0:
	.long	1073752112              @ 0x40002830
.Lcpi_end49:
	.size	__arm_cp.15_0, .Lcpi_end49-__arm_cp.15_0
__arm_cp.15_1:
	.long	1073752116              @ 0x40002834
.Lcpi_end50:
	.size	__arm_cp.15_1, .Lcpi_end50-__arm_cp.15_1
.Lfunc_end15:
	.size	rtc_timestamp_get, .Lfunc_end15-rtc_timestamp_get
	.cfi_endproc
	.cantunwind
	.fnend
                                        @ -- End function
	.section	.text.rtc_timestamp_subsecond_get,"ax",%progbits
	.hidden	rtc_timestamp_subsecond_get @ -- Begin function rtc_timestamp_subsecond_get
	.globl	rtc_timestamp_subsecond_get
	.p2align	2
	.type	rtc_timestamp_subsecond_get,%function
	.code	16                      @ @rtc_timestamp_subsecond_get
	.thumb_func
rtc_timestamp_subsecond_get:
.Lfunc_begin16:
	.loc	3 562 0 is_stmt 1       @ ../GD32E230_Firmware_Library/GD32E230_standard_peripheral/Source/gd32e230_rtc.c:562:0
	.fnstart
	.cfi_startproc
@ %bb.0:
	ldr	r0, __arm_cp.16_0
.Ltmp73:
	.loc	3 563 23 prologue_end   @ ../GD32E230_Firmware_Library/GD32E230_standard_peripheral/Source/gd32e230_rtc.c:563:23
	ldr	r0, [r0]
	.loc	3 563 5 is_stmt 0       @ ../GD32E230_Firmware_Library/GD32E230_standard_peripheral/Source/gd32e230_rtc.c:563:5
	bx	lr
.Ltmp74:
	.p2align	2
@ %bb.1:
	.loc	3 0 5                   @ ../GD32E230_Firmware_Library/GD32E230_standard_peripheral/Source/gd32e230_rtc.c:0:5
__arm_cp.16_0:
	.long	1073752120              @ 0x40002838
.Lcpi_end51:
	.size	__arm_cp.16_0, .Lcpi_end51-__arm_cp.16_0
.Lfunc_end16:
	.size	rtc_timestamp_subsecond_get, .Lfunc_end16-rtc_timestamp_subsecond_get
	.cfi_endproc
	.cantunwind
	.fnend
                                        @ -- End function
	.section	.text.rtc_tamper_enable,"ax",%progbits
	.hidden	rtc_tamper_enable       @ -- Begin function rtc_tamper_enable
	.globl	rtc_tamper_enable
	.p2align	2
	.type	rtc_tamper_enable,%function
	.code	16                      @ @rtc_tamper_enable
	.thumb_func
rtc_tamper_enable:
.Lfunc_begin17:
	.loc	3 585 0 is_stmt 1       @ ../GD32E230_Firmware_Library/GD32E230_standard_peripheral/Source/gd32e230_rtc.c:585:0
	.fnstart
	.cfi_startproc
@ %bb.0:
	.pad	#4
	sub	sp, #4
	.cfi_def_cfa_offset 4
	str	r0, [sp]
.Ltmp75:
	.loc	3 587 29 prologue_end   @ ../GD32E230_Firmware_Library/GD32E230_standard_peripheral/Source/gd32e230_rtc.c:587:29
	ldr	r0, [sp]
	.loc	3 587 41 is_stmt 0      @ ../GD32E230_Firmware_Library/GD32E230_standard_peripheral/Source/gd32e230_rtc.c:587:41
	ldr	r0, [r0]
	ldr	r1, __arm_cp.17_0
	.loc	3 587 14                @ ../GD32E230_Firmware_Library/GD32E230_standard_peripheral/Source/gd32e230_rtc.c:587:14
	ldr	r2, [r1]
	bics	r2, r0
	str	r2, [r1]
	.loc	3 590 14 is_stmt 1      @ ../GD32E230_Firmware_Library/GD32E230_standard_peripheral/Source/gd32e230_rtc.c:590:14
	ldr	r0, [r1]
	movw	r2, #6144
	bics	r0, r2
	str	r0, [r1]
.Ltmp76:
	.loc	3 593 8                 @ ../GD32E230_Firmware_Library/GD32E230_standard_peripheral/Source/gd32e230_rtc.c:593:8
	ldr	r0, [sp]
	.loc	3 593 20 is_stmt 0      @ ../GD32E230_Firmware_Library/GD32E230_standard_peripheral/Source/gd32e230_rtc.c:593:20
	ldr	r0, [r0, #8]
.Ltmp77:
	.loc	3 593 8                 @ ../GD32E230_Firmware_Library/GD32E230_standard_peripheral/Source/gd32e230_rtc.c:593:8
	cmp	r0, #0
	beq	.LBB17_5
	b	.LBB17_1
.LBB17_1:
	.loc	3 0 8                   @ ../GD32E230_Firmware_Library/GD32E230_standard_peripheral/Source/gd32e230_rtc.c:0:8
	ldr	r0, __arm_cp.17_0
.Ltmp78:
	.loc	3 594 18 is_stmt 1      @ ../GD32E230_Firmware_Library/GD32E230_standard_peripheral/Source/gd32e230_rtc.c:594:18
	ldr	r1, [r0]
	movw	r2, #65280
	bics	r1, r2
	str	r1, [r0]
.Ltmp79:
	.loc	3 597 23                @ ../GD32E230_Firmware_Library/GD32E230_standard_peripheral/Source/gd32e230_rtc.c:597:23
	ldr	r0, [sp]
	.loc	3 597 35 is_stmt 0      @ ../GD32E230_Firmware_Library/GD32E230_standard_peripheral/Source/gd32e230_rtc.c:597:35
	ldrb	r0, [r0, #16]
.Ltmp80:
	.loc	3 597 12                @ ../GD32E230_Firmware_Library/GD32E230_standard_peripheral/Source/gd32e230_rtc.c:597:12
	cmp	r0, #0
	bne	.LBB17_3
	b	.LBB17_2
.LBB17_2:
	.loc	3 0 12                  @ ../GD32E230_Firmware_Library/GD32E230_standard_peripheral/Source/gd32e230_rtc.c:0:12
	ldr	r0, __arm_cp.17_0
.Ltmp81:
	.loc	3 598 22 is_stmt 1      @ ../GD32E230_Firmware_Library/GD32E230_standard_peripheral/Source/gd32e230_rtc.c:598:22
	ldr	r1, [r0]
	movw	r2, #32768
	orrs	r1, r2
	str	r1, [r0]
	.loc	3 599 9                 @ ../GD32E230_Firmware_Library/GD32E230_standard_peripheral/Source/gd32e230_rtc.c:599:9
	b	.LBB17_4
.Ltmp82:
.LBB17_3:
	.loc	3 600 36                @ ../GD32E230_Firmware_Library/GD32E230_standard_peripheral/Source/gd32e230_rtc.c:600:36
	ldr	r0, [sp]
	.loc	3 600 48 is_stmt 0      @ ../GD32E230_Firmware_Library/GD32E230_standard_peripheral/Source/gd32e230_rtc.c:600:48
	ldr	r0, [r0, #20]
	ldr	r1, __arm_cp.17_0
	.loc	3 600 22                @ ../GD32E230_Firmware_Library/GD32E230_standard_peripheral/Source/gd32e230_rtc.c:600:22
	ldr	r2, [r1]
	orrs	r2, r0
	str	r2, [r1]
	b	.LBB17_4
.Ltmp83:
.LBB17_4:
	.loc	3 603 32 is_stmt 1      @ ../GD32E230_Firmware_Library/GD32E230_standard_peripheral/Source/gd32e230_rtc.c:603:32
	ldr	r0, [sp]
	.loc	3 603 44 is_stmt 0      @ ../GD32E230_Firmware_Library/GD32E230_standard_peripheral/Source/gd32e230_rtc.c:603:44
	ldr	r0, [r0, #12]
	ldr	r1, __arm_cp.17_0
	.loc	3 603 18                @ ../GD32E230_Firmware_Library/GD32E230_standard_peripheral/Source/gd32e230_rtc.c:603:18
	ldr	r2, [r1]
	orrs	r2, r0
	str	r2, [r1]
	.loc	3 604 32 is_stmt 1      @ ../GD32E230_Firmware_Library/GD32E230_standard_peripheral/Source/gd32e230_rtc.c:604:32
	ldr	r0, [sp]
	.loc	3 604 44 is_stmt 0      @ ../GD32E230_Firmware_Library/GD32E230_standard_peripheral/Source/gd32e230_rtc.c:604:44
	ldr	r0, [r0, #8]
	.loc	3 604 18                @ ../GD32E230_Firmware_Library/GD32E230_standard_peripheral/Source/gd32e230_rtc.c:604:18
	ldr	r2, [r1]
	orrs	r2, r0
	str	r2, [r1]
	.loc	3 605 5 is_stmt 1       @ ../GD32E230_Firmware_Library/GD32E230_standard_peripheral/Source/gd32e230_rtc.c:605:5
	b	.LBB17_5
.Ltmp84:
.LBB17_5:
	.loc	3 0 5 is_stmt 0         @ ../GD32E230_Firmware_Library/GD32E230_standard_peripheral/Source/gd32e230_rtc.c:0:5
	ldr	r0, __arm_cp.17_0
	.loc	3 607 14 is_stmt 1      @ ../GD32E230_Firmware_Library/GD32E230_standard_peripheral/Source/gd32e230_rtc.c:607:14
	ldr	r1, [r0]
	movs	r2, #128
	bics	r1, r2
	str	r1, [r0]
.Ltmp85:
	.loc	3 609 19                @ ../GD32E230_Firmware_Library/GD32E230_standard_peripheral/Source/gd32e230_rtc.c:609:19
	ldr	r0, [sp]
	.loc	3 609 31 is_stmt 0      @ ../GD32E230_Firmware_Library/GD32E230_standard_peripheral/Source/gd32e230_rtc.c:609:31
	ldrb	r0, [r0, #24]
.Ltmp86:
	.loc	3 609 8                 @ ../GD32E230_Firmware_Library/GD32E230_standard_peripheral/Source/gd32e230_rtc.c:609:8
	cmp	r0, #0
	beq	.LBB17_7
	b	.LBB17_6
.LBB17_6:
	.loc	3 0 8                   @ ../GD32E230_Firmware_Library/GD32E230_standard_peripheral/Source/gd32e230_rtc.c:0:8
	ldr	r0, __arm_cp.17_0
.Ltmp87:
	.loc	3 611 18 is_stmt 1      @ ../GD32E230_Firmware_Library/GD32E230_standard_peripheral/Source/gd32e230_rtc.c:611:18
	ldr	r1, [r0]
	movs	r2, #128
	orrs	r1, r2
	str	r1, [r0]
	.loc	3 612 5                 @ ../GD32E230_Firmware_Library/GD32E230_standard_peripheral/Source/gd32e230_rtc.c:612:5
	b	.LBB17_7
.Ltmp88:
.LBB17_7:
	.loc	3 615 31                @ ../GD32E230_Firmware_Library/GD32E230_standard_peripheral/Source/gd32e230_rtc.c:615:31
	ldr	r0, [sp]
	.loc	3 615 43 is_stmt 0      @ ../GD32E230_Firmware_Library/GD32E230_standard_peripheral/Source/gd32e230_rtc.c:615:43
	ldr	r0, [r0]
	.loc	3 615 62                @ ../GD32E230_Firmware_Library/GD32E230_standard_peripheral/Source/gd32e230_rtc.c:615:62
	lsls	r0, r0, #1
	ldr	r1, __arm_cp.17_0
	.loc	3 615 14                @ ../GD32E230_Firmware_Library/GD32E230_standard_peripheral/Source/gd32e230_rtc.c:615:14
	ldr	r2, [r1]
	bics	r2, r0
	str	r2, [r1]
.Ltmp89:
	.loc	3 616 42 is_stmt 1      @ ../GD32E230_Firmware_Library/GD32E230_standard_peripheral/Source/gd32e230_rtc.c:616:42
	ldr	r0, [sp]
	.loc	3 616 54 is_stmt 0      @ ../GD32E230_Firmware_Library/GD32E230_standard_peripheral/Source/gd32e230_rtc.c:616:54
	ldr	r0, [r0, #4]
.Ltmp90:
	.loc	3 616 8                 @ ../GD32E230_Firmware_Library/GD32E230_standard_peripheral/Source/gd32e230_rtc.c:616:8
	cmp	r0, #0
	beq	.LBB17_9
	b	.LBB17_8
.LBB17_8:
.Ltmp91:
	.loc	3 617 33 is_stmt 1      @ ../GD32E230_Firmware_Library/GD32E230_standard_peripheral/Source/gd32e230_rtc.c:617:33
	ldr	r0, [sp]
	.loc	3 617 45 is_stmt 0      @ ../GD32E230_Firmware_Library/GD32E230_standard_peripheral/Source/gd32e230_rtc.c:617:45
	ldr	r0, [r0]
	.loc	3 617 63                @ ../GD32E230_Firmware_Library/GD32E230_standard_peripheral/Source/gd32e230_rtc.c:617:63
	lsls	r0, r0, #1
	ldr	r1, __arm_cp.17_0
	.loc	3 617 18                @ ../GD32E230_Firmware_Library/GD32E230_standard_peripheral/Source/gd32e230_rtc.c:617:18
	ldr	r2, [r1]
	orrs	r2, r0
	str	r2, [r1]
	.loc	3 618 5 is_stmt 1       @ ../GD32E230_Firmware_Library/GD32E230_standard_peripheral/Source/gd32e230_rtc.c:618:5
	b	.LBB17_9
.Ltmp92:
.LBB17_9:
	.loc	3 620 29                @ ../GD32E230_Firmware_Library/GD32E230_standard_peripheral/Source/gd32e230_rtc.c:620:29
	ldr	r0, [sp]
	.loc	3 620 41 is_stmt 0      @ ../GD32E230_Firmware_Library/GD32E230_standard_peripheral/Source/gd32e230_rtc.c:620:41
	ldr	r0, [r0]
	ldr	r1, __arm_cp.17_0
	.loc	3 620 14                @ ../GD32E230_Firmware_Library/GD32E230_standard_peripheral/Source/gd32e230_rtc.c:620:14
	ldr	r2, [r1]
	orrs	r2, r0
	str	r2, [r1]
	.loc	3 621 1 is_stmt 1       @ ../GD32E230_Firmware_Library/GD32E230_standard_peripheral/Source/gd32e230_rtc.c:621:1
	add	sp, #4
	bx	lr
.Ltmp93:
	.p2align	2
@ %bb.10:
	.loc	3 0 1 is_stmt 0         @ ../GD32E230_Firmware_Library/GD32E230_standard_peripheral/Source/gd32e230_rtc.c:0:1
__arm_cp.17_0:
	.long	1073752128              @ 0x40002840
.Lcpi_end52:
	.size	__arm_cp.17_0, .Lcpi_end52-__arm_cp.17_0
.Lfunc_end17:
	.size	rtc_tamper_enable, .Lfunc_end17-rtc_tamper_enable
	.cfi_endproc
	.cantunwind
	.fnend
                                        @ -- End function
	.section	.text.rtc_tamper_disable,"ax",%progbits
	.hidden	rtc_tamper_disable      @ -- Begin function rtc_tamper_disable
	.globl	rtc_tamper_disable
	.p2align	2
	.type	rtc_tamper_disable,%function
	.code	16                      @ @rtc_tamper_disable
	.thumb_func
rtc_tamper_disable:
.Lfunc_begin18:
	.loc	3 633 0 is_stmt 1       @ ../GD32E230_Firmware_Library/GD32E230_standard_peripheral/Source/gd32e230_rtc.c:633:0
	.fnstart
	.cfi_startproc
@ %bb.0:
	.pad	#4
	sub	sp, #4
	.cfi_def_cfa_offset 4
	str	r0, [sp]
.Ltmp94:
	.loc	3 635 28 prologue_end   @ ../GD32E230_Firmware_Library/GD32E230_standard_peripheral/Source/gd32e230_rtc.c:635:28
	ldr	r0, [sp]
	ldr	r1, __arm_cp.18_0
	.loc	3 635 14 is_stmt 0      @ ../GD32E230_Firmware_Library/GD32E230_standard_peripheral/Source/gd32e230_rtc.c:635:14
	ldr	r2, [r1]
	bics	r2, r0
	str	r2, [r1]
	.loc	3 637 1 is_stmt 1       @ ../GD32E230_Firmware_Library/GD32E230_standard_peripheral/Source/gd32e230_rtc.c:637:1
	add	sp, #4
	bx	lr
.Ltmp95:
	.p2align	2
@ %bb.1:
	.loc	3 0 1 is_stmt 0         @ ../GD32E230_Firmware_Library/GD32E230_standard_peripheral/Source/gd32e230_rtc.c:0:1
__arm_cp.18_0:
	.long	1073752128              @ 0x40002840
.Lcpi_end53:
	.size	__arm_cp.18_0, .Lcpi_end53-__arm_cp.18_0
.Lfunc_end18:
	.size	rtc_tamper_disable, .Lfunc_end18-rtc_tamper_disable
	.cfi_endproc
	.cantunwind
	.fnend
                                        @ -- End function
	.section	.text.rtc_interrupt_enable,"ax",%progbits
	.hidden	rtc_interrupt_enable    @ -- Begin function rtc_interrupt_enable
	.globl	rtc_interrupt_enable
	.p2align	2
	.type	rtc_interrupt_enable,%function
	.code	16                      @ @rtc_interrupt_enable
	.thumb_func
rtc_interrupt_enable:
.Lfunc_begin19:
	.loc	3 650 0 is_stmt 1       @ ../GD32E230_Firmware_Library/GD32E230_standard_peripheral/Source/gd32e230_rtc.c:650:0
	.fnstart
	.cfi_startproc
@ %bb.0:
	.save	{r4, lr}
	push	{r4, lr}
	.cfi_def_cfa_offset 8
	.cfi_offset lr, -4
	.cfi_offset r4, -8
	.pad	#4
	sub	sp, #4
	.cfi_def_cfa_offset 12
	str	r0, [sp]
	ldr	r0, __arm_cp.19_0
	movs	r1, #202
.Ltmp96:
	.loc	3 652 13 prologue_end   @ ../GD32E230_Firmware_Library/GD32E230_standard_peripheral/Source/gd32e230_rtc.c:652:13
	str	r1, [r0]
	movs	r1, #83
	.loc	3 653 13                @ ../GD32E230_Firmware_Library/GD32E230_standard_peripheral/Source/gd32e230_rtc.c:653:13
	str	r1, [r0]
	.loc	3 656 27                @ ../GD32E230_Firmware_Library/GD32E230_standard_peripheral/Source/gd32e230_rtc.c:656:27
	ldr	r1, [sp]
	movs	r2, #4
	.loc	3 656 37 is_stmt 0      @ ../GD32E230_Firmware_Library/GD32E230_standard_peripheral/Source/gd32e230_rtc.c:656:37
	bics	r1, r2
	ldr	r3, __arm_cp.19_1
	.loc	3 656 13                @ ../GD32E230_Firmware_Library/GD32E230_standard_peripheral/Source/gd32e230_rtc.c:656:13
	ldr	r4, [r3]
	orrs	r4, r1
	str	r4, [r3]
	.loc	3 658 28 is_stmt 1      @ ../GD32E230_Firmware_Library/GD32E230_standard_peripheral/Source/gd32e230_rtc.c:658:28
	ldr	r1, [sp]
	.loc	3 658 38 is_stmt 0      @ ../GD32E230_Firmware_Library/GD32E230_standard_peripheral/Source/gd32e230_rtc.c:658:38
	ands	r1, r2
	ldr	r2, __arm_cp.19_2
	.loc	3 658 14                @ ../GD32E230_Firmware_Library/GD32E230_standard_peripheral/Source/gd32e230_rtc.c:658:14
	ldr	r3, [r2]
	orrs	r3, r1
	str	r3, [r2]
	movs	r1, #255
	.loc	3 661 13 is_stmt 1      @ ../GD32E230_Firmware_Library/GD32E230_standard_peripheral/Source/gd32e230_rtc.c:661:13
	str	r1, [r0]
	.loc	3 662 1                 @ ../GD32E230_Firmware_Library/GD32E230_standard_peripheral/Source/gd32e230_rtc.c:662:1
	add	sp, #4
	pop	{r4, pc}
.Ltmp97:
	.p2align	2
@ %bb.1:
	.loc	3 0 1 is_stmt 0         @ ../GD32E230_Firmware_Library/GD32E230_standard_peripheral/Source/gd32e230_rtc.c:0:1
__arm_cp.19_0:
	.long	1073752100              @ 0x40002824
.Lcpi_end54:
	.size	__arm_cp.19_0, .Lcpi_end54-__arm_cp.19_0
__arm_cp.19_1:
	.long	1073752072              @ 0x40002808
.Lcpi_end55:
	.size	__arm_cp.19_1, .Lcpi_end55-__arm_cp.19_1
__arm_cp.19_2:
	.long	1073752128              @ 0x40002840
.Lcpi_end56:
	.size	__arm_cp.19_2, .Lcpi_end56-__arm_cp.19_2
.Lfunc_end19:
	.size	rtc_interrupt_enable, .Lfunc_end19-rtc_interrupt_enable
	.cfi_endproc
	.cantunwind
	.fnend
                                        @ -- End function
	.section	.text.rtc_interrupt_disable,"ax",%progbits
	.hidden	rtc_interrupt_disable   @ -- Begin function rtc_interrupt_disable
	.globl	rtc_interrupt_disable
	.p2align	2
	.type	rtc_interrupt_disable,%function
	.code	16                      @ @rtc_interrupt_disable
	.thumb_func
rtc_interrupt_disable:
.Lfunc_begin20:
	.loc	3 675 0 is_stmt 1       @ ../GD32E230_Firmware_Library/GD32E230_standard_peripheral/Source/gd32e230_rtc.c:675:0
	.fnstart
	.cfi_startproc
@ %bb.0:
	.save	{r4, lr}
	push	{r4, lr}
	.cfi_def_cfa_offset 8
	.cfi_offset lr, -4
	.cfi_offset r4, -8
	.pad	#4
	sub	sp, #4
	.cfi_def_cfa_offset 12
	str	r0, [sp]
	ldr	r0, __arm_cp.20_0
	movs	r1, #202
.Ltmp98:
	.loc	3 677 13 prologue_end   @ ../GD32E230_Firmware_Library/GD32E230_standard_peripheral/Source/gd32e230_rtc.c:677:13
	str	r1, [r0]
	movs	r1, #83
	.loc	3 678 13                @ ../GD32E230_Firmware_Library/GD32E230_standard_peripheral/Source/gd32e230_rtc.c:678:13
	str	r1, [r0]
	.loc	3 681 28                @ ../GD32E230_Firmware_Library/GD32E230_standard_peripheral/Source/gd32e230_rtc.c:681:28
	ldr	r1, [sp]
	mvns	r1, r1
	movs	r2, #4
	.loc	3 681 26 is_stmt 0      @ ../GD32E230_Firmware_Library/GD32E230_standard_peripheral/Source/gd32e230_rtc.c:681:26
	orrs	r1, r2
	ldr	r3, __arm_cp.20_1
	.loc	3 681 13                @ ../GD32E230_Firmware_Library/GD32E230_standard_peripheral/Source/gd32e230_rtc.c:681:13
	ldr	r4, [r3]
	ands	r4, r1
	str	r4, [r3]
	.loc	3 683 29 is_stmt 1      @ ../GD32E230_Firmware_Library/GD32E230_standard_peripheral/Source/gd32e230_rtc.c:683:29
	ldr	r1, [sp]
	mvns	r1, r1
	mvns	r2, r2
	.loc	3 683 27 is_stmt 0      @ ../GD32E230_Firmware_Library/GD32E230_standard_peripheral/Source/gd32e230_rtc.c:683:27
	orrs	r1, r2
	ldr	r2, __arm_cp.20_2
	.loc	3 683 14                @ ../GD32E230_Firmware_Library/GD32E230_standard_peripheral/Source/gd32e230_rtc.c:683:14
	ldr	r3, [r2]
	ands	r3, r1
	str	r3, [r2]
	movs	r1, #255
	.loc	3 686 13 is_stmt 1      @ ../GD32E230_Firmware_Library/GD32E230_standard_peripheral/Source/gd32e230_rtc.c:686:13
	str	r1, [r0]
	.loc	3 687 1                 @ ../GD32E230_Firmware_Library/GD32E230_standard_peripheral/Source/gd32e230_rtc.c:687:1
	add	sp, #4
	pop	{r4, pc}
.Ltmp99:
	.p2align	2
@ %bb.1:
	.loc	3 0 1 is_stmt 0         @ ../GD32E230_Firmware_Library/GD32E230_standard_peripheral/Source/gd32e230_rtc.c:0:1
__arm_cp.20_0:
	.long	1073752100              @ 0x40002824
.Lcpi_end57:
	.size	__arm_cp.20_0, .Lcpi_end57-__arm_cp.20_0
__arm_cp.20_1:
	.long	1073752072              @ 0x40002808
.Lcpi_end58:
	.size	__arm_cp.20_1, .Lcpi_end58-__arm_cp.20_1
__arm_cp.20_2:
	.long	1073752128              @ 0x40002840
.Lcpi_end59:
	.size	__arm_cp.20_2, .Lcpi_end59-__arm_cp.20_2
.Lfunc_end20:
	.size	rtc_interrupt_disable, .Lfunc_end20-rtc_interrupt_disable
	.cfi_endproc
	.cantunwind
	.fnend
                                        @ -- End function
	.section	.text.rtc_flag_get,"ax",%progbits
	.hidden	rtc_flag_get            @ -- Begin function rtc_flag_get
	.globl	rtc_flag_get
	.p2align	2
	.type	rtc_flag_get,%function
	.code	16                      @ @rtc_flag_get
	.thumb_func
rtc_flag_get:
.Lfunc_begin21:
	.loc	3 708 0 is_stmt 1       @ ../GD32E230_Firmware_Library/GD32E230_standard_peripheral/Source/gd32e230_rtc.c:708:0
	.fnstart
	.cfi_startproc
@ %bb.0:
	.pad	#8
	sub	sp, #8
	.cfi_def_cfa_offset 8
	str	r0, [sp, #4]
	mov	r0, sp
	movs	r1, #0
.Ltmp100:
	.loc	3 709 16 prologue_end   @ ../GD32E230_Firmware_Library/GD32E230_standard_peripheral/Source/gd32e230_rtc.c:709:16
	strb	r1, [r0]
	ldr	r0, __arm_cp.21_0
.Ltmp101:
	.loc	3 711 28                @ ../GD32E230_Firmware_Library/GD32E230_standard_peripheral/Source/gd32e230_rtc.c:711:28
	ldr	r0, [r0]
	.loc	3 711 39 is_stmt 0      @ ../GD32E230_Firmware_Library/GD32E230_standard_peripheral/Source/gd32e230_rtc.c:711:39
	ldr	r1, [sp, #4]
.Ltmp102:
	.loc	3 711 8                 @ ../GD32E230_Firmware_Library/GD32E230_standard_peripheral/Source/gd32e230_rtc.c:711:8
	tst	r0, r1
	beq	.LBB21_2
	b	.LBB21_1
.LBB21_1:
	.loc	3 0 8                   @ ../GD32E230_Firmware_Library/GD32E230_standard_peripheral/Source/gd32e230_rtc.c:0:8
	mov	r0, sp
	movs	r1, #1
.Ltmp103:
	.loc	3 712 20 is_stmt 1      @ ../GD32E230_Firmware_Library/GD32E230_standard_peripheral/Source/gd32e230_rtc.c:712:20
	strb	r1, [r0]
	.loc	3 713 5                 @ ../GD32E230_Firmware_Library/GD32E230_standard_peripheral/Source/gd32e230_rtc.c:713:5
	b	.LBB21_2
.Ltmp104:
.LBB21_2:
	.loc	3 0 5 is_stmt 0         @ ../GD32E230_Firmware_Library/GD32E230_standard_peripheral/Source/gd32e230_rtc.c:0:5
	mov	r0, sp
	.loc	3 714 12 is_stmt 1      @ ../GD32E230_Firmware_Library/GD32E230_standard_peripheral/Source/gd32e230_rtc.c:714:12
	ldrb	r0, [r0]
	.loc	3 714 5 is_stmt 0       @ ../GD32E230_Firmware_Library/GD32E230_standard_peripheral/Source/gd32e230_rtc.c:714:5
	add	sp, #8
	bx	lr
.Ltmp105:
	.p2align	2
@ %bb.3:
	.loc	3 0 5                   @ ../GD32E230_Firmware_Library/GD32E230_standard_peripheral/Source/gd32e230_rtc.c:0:5
__arm_cp.21_0:
	.long	1073752076              @ 0x4000280c
.Lcpi_end60:
	.size	__arm_cp.21_0, .Lcpi_end60-__arm_cp.21_0
.Lfunc_end21:
	.size	rtc_flag_get, .Lfunc_end21-rtc_flag_get
	.cfi_endproc
	.cantunwind
	.fnend
                                        @ -- End function
	.section	.text.rtc_flag_clear,"ax",%progbits
	.hidden	rtc_flag_clear          @ -- Begin function rtc_flag_clear
	.globl	rtc_flag_clear
	.p2align	2
	.type	rtc_flag_clear,%function
	.code	16                      @ @rtc_flag_clear
	.thumb_func
rtc_flag_clear:
.Lfunc_begin22:
	.loc	3 731 0 is_stmt 1       @ ../GD32E230_Firmware_Library/GD32E230_standard_peripheral/Source/gd32e230_rtc.c:731:0
	.fnstart
	.cfi_startproc
@ %bb.0:
	.pad	#4
	sub	sp, #4
	.cfi_def_cfa_offset 4
	str	r0, [sp]
.Ltmp106:
	.loc	3 732 29 prologue_end   @ ../GD32E230_Firmware_Library/GD32E230_standard_peripheral/Source/gd32e230_rtc.c:732:29
	ldr	r0, [sp]
	ldr	r1, __arm_cp.22_0
	.loc	3 732 14 is_stmt 0      @ ../GD32E230_Firmware_Library/GD32E230_standard_peripheral/Source/gd32e230_rtc.c:732:14
	ldr	r2, [r1]
	bics	r2, r0
	str	r2, [r1]
	.loc	3 733 1 is_stmt 1       @ ../GD32E230_Firmware_Library/GD32E230_standard_peripheral/Source/gd32e230_rtc.c:733:1
	add	sp, #4
	bx	lr
.Ltmp107:
	.p2align	2
@ %bb.1:
	.loc	3 0 1 is_stmt 0         @ ../GD32E230_Firmware_Library/GD32E230_standard_peripheral/Source/gd32e230_rtc.c:0:1
__arm_cp.22_0:
	.long	1073752076              @ 0x4000280c
.Lcpi_end61:
	.size	__arm_cp.22_0, .Lcpi_end61-__arm_cp.22_0
.Lfunc_end22:
	.size	rtc_flag_clear, .Lfunc_end22-rtc_flag_clear
	.cfi_endproc
	.cantunwind
	.fnend
                                        @ -- End function
	.section	.text.rtc_alter_output_config,"ax",%progbits
	.hidden	rtc_alter_output_config @ -- Begin function rtc_alter_output_config
	.globl	rtc_alter_output_config
	.p2align	2
	.type	rtc_alter_output_config,%function
	.code	16                      @ @rtc_alter_output_config
	.thumb_func
rtc_alter_output_config:
.Lfunc_begin23:
	.loc	3 753 0 is_stmt 1       @ ../GD32E230_Firmware_Library/GD32E230_standard_peripheral/Source/gd32e230_rtc.c:753:0
	.fnstart
	.cfi_startproc
@ %bb.0:
	.pad	#8
	sub	sp, #8
	.cfi_def_cfa_offset 8
	str	r0, [sp, #4]
	str	r1, [sp]
	ldr	r0, __arm_cp.23_0
	movs	r1, #202
.Ltmp108:
	.loc	3 755 13 prologue_end   @ ../GD32E230_Firmware_Library/GD32E230_standard_peripheral/Source/gd32e230_rtc.c:755:13
	str	r1, [r0]
	movs	r1, #83
	.loc	3 756 13                @ ../GD32E230_Firmware_Library/GD32E230_standard_peripheral/Source/gd32e230_rtc.c:756:13
	str	r1, [r0]
	ldr	r0, __arm_cp.23_1
	.loc	3 758 13                @ ../GD32E230_Firmware_Library/GD32E230_standard_peripheral/Source/gd32e230_rtc.c:758:13
	ldr	r1, [r0]
	movs	r2, #31
	lsls	r2, r2, #19
	bics	r1, r2
	str	r1, [r0]
	.loc	3 760 27                @ ../GD32E230_Firmware_Library/GD32E230_standard_peripheral/Source/gd32e230_rtc.c:760:27
	ldr	r1, [sp, #4]
	.loc	3 760 13 is_stmt 0      @ ../GD32E230_Firmware_Library/GD32E230_standard_peripheral/Source/gd32e230_rtc.c:760:13
	ldr	r2, [r0]
	orrs	r2, r1
	str	r2, [r0]
	add	r0, sp, #4
	.loc	3 763 8 is_stmt 1       @ ../GD32E230_Firmware_Library/GD32E230_standard_peripheral/Source/gd32e230_rtc.c:763:8
	ldrb	r0, [r0, #2]
	lsls	r0, r0, #26
	cmp	r0, #0
	bpl	.LBB23_2
	b	.LBB23_1
.LBB23_1:
	.loc	3 0 8 is_stmt 0         @ ../GD32E230_Firmware_Library/GD32E230_standard_peripheral/Source/gd32e230_rtc.c:0:8
	ldr	r0, __arm_cp.23_2
.Ltmp109:
	.loc	3 764 18 is_stmt 1      @ ../GD32E230_Firmware_Library/GD32E230_standard_peripheral/Source/gd32e230_rtc.c:764:18
	ldr	r1, [r0]
	movs	r2, #1
	lsls	r2, r2, #18
	bics	r1, r2
	str	r1, [r0]
	.loc	3 765 32                @ ../GD32E230_Firmware_Library/GD32E230_standard_peripheral/Source/gd32e230_rtc.c:765:32
	ldr	r1, [sp]
	.loc	3 765 18 is_stmt 0      @ ../GD32E230_Firmware_Library/GD32E230_standard_peripheral/Source/gd32e230_rtc.c:765:18
	ldr	r2, [r0]
	orrs	r2, r1
	str	r2, [r0]
	.loc	3 766 5 is_stmt 1       @ ../GD32E230_Firmware_Library/GD32E230_standard_peripheral/Source/gd32e230_rtc.c:766:5
	b	.LBB23_2
.Ltmp110:
.LBB23_2:
	.loc	3 0 5 is_stmt 0         @ ../GD32E230_Firmware_Library/GD32E230_standard_peripheral/Source/gd32e230_rtc.c:0:5
	ldr	r0, __arm_cp.23_0
	movs	r1, #255
	.loc	3 769 13 is_stmt 1      @ ../GD32E230_Firmware_Library/GD32E230_standard_peripheral/Source/gd32e230_rtc.c:769:13
	str	r1, [r0]
	.loc	3 770 1                 @ ../GD32E230_Firmware_Library/GD32E230_standard_peripheral/Source/gd32e230_rtc.c:770:1
	add	sp, #8
	bx	lr
.Ltmp111:
	.p2align	2
@ %bb.3:
	.loc	3 0 1 is_stmt 0         @ ../GD32E230_Firmware_Library/GD32E230_standard_peripheral/Source/gd32e230_rtc.c:0:1
__arm_cp.23_0:
	.long	1073752100              @ 0x40002824
.Lcpi_end62:
	.size	__arm_cp.23_0, .Lcpi_end62-__arm_cp.23_0
__arm_cp.23_1:
	.long	1073752072              @ 0x40002808
.Lcpi_end63:
	.size	__arm_cp.23_1, .Lcpi_end63-__arm_cp.23_1
__arm_cp.23_2:
	.long	1073752128              @ 0x40002840
.Lcpi_end64:
	.size	__arm_cp.23_2, .Lcpi_end64-__arm_cp.23_2
.Lfunc_end23:
	.size	rtc_alter_output_config, .Lfunc_end23-rtc_alter_output_config
	.cfi_endproc
	.cantunwind
	.fnend
                                        @ -- End function
	.section	.text.rtc_calibration_config,"ax",%progbits
	.hidden	rtc_calibration_config  @ -- Begin function rtc_calibration_config
	.globl	rtc_calibration_config
	.p2align	2
	.type	rtc_calibration_config,%function
	.code	16                      @ @rtc_calibration_config
	.thumb_func
rtc_calibration_config:
.Lfunc_begin24:
	.loc	3 788 0 is_stmt 1       @ ../GD32E230_Firmware_Library/GD32E230_standard_peripheral/Source/gd32e230_rtc.c:788:0
	.fnstart
	.cfi_startproc
@ %bb.0:
	.pad	#28
	sub	sp, #28
	.cfi_def_cfa_offset 28
	str	r0, [sp, #24]
	str	r1, [sp, #20]
	str	r2, [sp, #16]
	movw	r0, #4096
.Ltmp112:
	.loc	3 789 14 prologue_end   @ ../GD32E230_Firmware_Library/GD32E230_standard_peripheral/Source/gd32e230_rtc.c:789:14
	str	r0, [sp, #12]
	add	r0, sp, #8
	movs	r1, #0
	.loc	3 790 15                @ ../GD32E230_Firmware_Library/GD32E230_standard_peripheral/Source/gd32e230_rtc.c:790:15
	strb	r1, [r0]
	.loc	3 791 14                @ ../GD32E230_Firmware_Library/GD32E230_standard_peripheral/Source/gd32e230_rtc.c:791:14
	str	r1, [sp, #4]
	ldr	r0, __arm_cp.24_0
	movs	r1, #202
	.loc	3 794 13                @ ../GD32E230_Firmware_Library/GD32E230_standard_peripheral/Source/gd32e230_rtc.c:794:13
	str	r1, [r0]
	movs	r1, #83
	.loc	3 795 13                @ ../GD32E230_Firmware_Library/GD32E230_standard_peripheral/Source/gd32e230_rtc.c:795:13
	str	r1, [r0]
	.loc	3 798 5                 @ ../GD32E230_Firmware_Library/GD32E230_standard_peripheral/Source/gd32e230_rtc.c:798:5
	b	.LBB24_1
.LBB24_1:                               @ =>This Inner Loop Header: Depth=1
	.loc	3 0 5 is_stmt 0         @ ../GD32E230_Firmware_Library/GD32E230_standard_peripheral/Source/gd32e230_rtc.c:0:5
	ldr	r0, __arm_cp.24_1
.Ltmp113:
	.loc	3 799 23 is_stmt 1      @ ../GD32E230_Firmware_Library/GD32E230_standard_peripheral/Source/gd32e230_rtc.c:799:23
	ldr	r0, [r0]
	movs	r1, #1
	lsls	r1, r1, #16
	.loc	3 799 32 is_stmt 0      @ ../GD32E230_Firmware_Library/GD32E230_standard_peripheral/Source/gd32e230_rtc.c:799:32
	ands	r0, r1
	.loc	3 799 21                @ ../GD32E230_Firmware_Library/GD32E230_standard_peripheral/Source/gd32e230_rtc.c:799:21
	str	r0, [sp, #4]
	.loc	3 800 5 is_stmt 1       @ ../GD32E230_Firmware_Library/GD32E230_standard_peripheral/Source/gd32e230_rtc.c:800:5
	b	.LBB24_2
.Ltmp114:
.LBB24_2:                               @   in Loop: Header=BB24_1 Depth=1
	.loc	3 800 13 is_stmt 0      @ ../GD32E230_Firmware_Library/GD32E230_standard_peripheral/Source/gd32e230_rtc.c:800:13
	ldr	r0, [sp, #12]
	subs	r0, r0, #1
	str	r0, [sp, #12]
	movs	r1, #0
	.loc	3 800 35                @ ../GD32E230_Firmware_Library/GD32E230_standard_peripheral/Source/gd32e230_rtc.c:800:35
	cmp	r0, #0
	str	r1, [sp]                @ 4-byte Spill
	beq	.LBB24_4
	b	.LBB24_3
.LBB24_3:                               @   in Loop: Header=BB24_1 Depth=1
	.loc	3 800 58                @ ../GD32E230_Firmware_Library/GD32E230_standard_peripheral/Source/gd32e230_rtc.c:800:58
	ldr	r0, [sp, #4]
	.loc	3 800 55                @ ../GD32E230_Firmware_Library/GD32E230_standard_peripheral/Source/gd32e230_rtc.c:800:55
	subs	r1, r0, #1
	sbcs	r0, r1
	str	r0, [sp]                @ 4-byte Spill
	b	.LBB24_4
.LBB24_4:                               @   in Loop: Header=BB24_1 Depth=1
	.loc	3 0 0                   @ ../GD32E230_Firmware_Library/GD32E230_standard_peripheral/Source/gd32e230_rtc.c:0:0
	ldr	r0, [sp]                @ 4-byte Reload
.Ltmp115:
	.loc	3 800 5                 @ ../GD32E230_Firmware_Library/GD32E230_standard_peripheral/Source/gd32e230_rtc.c:800:5
	lsls	r0, r0, #31
	cmp	r0, #0
	bne	.LBB24_1
	b	.LBB24_5
.Ltmp116:
.LBB24_5:
	.loc	3 802 27 is_stmt 1      @ ../GD32E230_Firmware_Library/GD32E230_standard_peripheral/Source/gd32e230_rtc.c:802:27
	ldr	r0, [sp, #4]
.Ltmp117:
	.loc	3 802 8 is_stmt 0       @ ../GD32E230_Firmware_Library/GD32E230_standard_peripheral/Source/gd32e230_rtc.c:802:8
	cmp	r0, #0
	bne	.LBB24_7
	b	.LBB24_6
.LBB24_6:
.Ltmp118:
	.loc	3 803 31 is_stmt 1      @ ../GD32E230_Firmware_Library/GD32E230_standard_peripheral/Source/gd32e230_rtc.c:803:31
	ldr	r0, [sp, #24]
	.loc	3 803 40 is_stmt 0      @ ../GD32E230_Firmware_Library/GD32E230_standard_peripheral/Source/gd32e230_rtc.c:803:40
	ldr	r1, [sp, #20]
	.loc	3 803 38                @ ../GD32E230_Firmware_Library/GD32E230_standard_peripheral/Source/gd32e230_rtc.c:803:38
	orrs	r0, r1
	.loc	3 803 47                @ ../GD32E230_Firmware_Library/GD32E230_standard_peripheral/Source/gd32e230_rtc.c:803:47
	ldr	r1, [sp, #16]
	ldr	r2, __arm_cp.24_2
	ands	r1, r2
	.loc	3 803 45                @ ../GD32E230_Firmware_Library/GD32E230_standard_peripheral/Source/gd32e230_rtc.c:803:45
	orrs	r0, r1
	ldr	r1, __arm_cp.24_3
	.loc	3 803 18                @ ../GD32E230_Firmware_Library/GD32E230_standard_peripheral/Source/gd32e230_rtc.c:803:18
	str	r0, [r1]
	add	r0, sp, #8
	movs	r1, #1
	.loc	3 804 22 is_stmt 1      @ ../GD32E230_Firmware_Library/GD32E230_standard_peripheral/Source/gd32e230_rtc.c:804:22
	strb	r1, [r0]
	.loc	3 805 5                 @ ../GD32E230_Firmware_Library/GD32E230_standard_peripheral/Source/gd32e230_rtc.c:805:5
	b	.LBB24_7
.Ltmp119:
.LBB24_7:
	.loc	3 0 5 is_stmt 0         @ ../GD32E230_Firmware_Library/GD32E230_standard_peripheral/Source/gd32e230_rtc.c:0:5
	ldr	r0, __arm_cp.24_0
	movs	r1, #255
	.loc	3 808 13 is_stmt 1      @ ../GD32E230_Firmware_Library/GD32E230_standard_peripheral/Source/gd32e230_rtc.c:808:13
	str	r1, [r0]
	add	r0, sp, #8
	.loc	3 810 12                @ ../GD32E230_Firmware_Library/GD32E230_standard_peripheral/Source/gd32e230_rtc.c:810:12
	ldrb	r0, [r0]
	.loc	3 810 5 is_stmt 0       @ ../GD32E230_Firmware_Library/GD32E230_standard_peripheral/Source/gd32e230_rtc.c:810:5
	add	sp, #28
	bx	lr
.Ltmp120:
	.p2align	2
@ %bb.8:
	.loc	3 0 5                   @ ../GD32E230_Firmware_Library/GD32E230_standard_peripheral/Source/gd32e230_rtc.c:0:5
__arm_cp.24_0:
	.long	1073752100              @ 0x40002824
.Lcpi_end65:
	.size	__arm_cp.24_0, .Lcpi_end65-__arm_cp.24_0
__arm_cp.24_1:
	.long	1073752076              @ 0x4000280c
.Lcpi_end66:
	.size	__arm_cp.24_1, .Lcpi_end66-__arm_cp.24_1
__arm_cp.24_2:
	.long	511                     @ 0x1ff
.Lcpi_end67:
	.size	__arm_cp.24_2, .Lcpi_end67-__arm_cp.24_2
__arm_cp.24_3:
	.long	1073752124              @ 0x4000283c
.Lcpi_end68:
	.size	__arm_cp.24_3, .Lcpi_end68-__arm_cp.24_3
.Lfunc_end24:
	.size	rtc_calibration_config, .Lfunc_end24-rtc_calibration_config
	.cfi_endproc
	.cantunwind
	.fnend
                                        @ -- End function
	.section	.text.rtc_hour_adjust,"ax",%progbits
	.hidden	rtc_hour_adjust         @ -- Begin function rtc_hour_adjust
	.globl	rtc_hour_adjust
	.p2align	2
	.type	rtc_hour_adjust,%function
	.code	16                      @ @rtc_hour_adjust
	.thumb_func
rtc_hour_adjust:
.Lfunc_begin25:
	.loc	3 823 0 is_stmt 1       @ ../GD32E230_Firmware_Library/GD32E230_standard_peripheral/Source/gd32e230_rtc.c:823:0
	.fnstart
	.cfi_startproc
@ %bb.0:
	.pad	#4
	sub	sp, #4
	.cfi_def_cfa_offset 4
	str	r0, [sp]
	ldr	r0, __arm_cp.25_0
	movs	r1, #202
.Ltmp121:
	.loc	3 825 13 prologue_end   @ ../GD32E230_Firmware_Library/GD32E230_standard_peripheral/Source/gd32e230_rtc.c:825:13
	str	r1, [r0]
	movs	r1, #83
	.loc	3 826 13                @ ../GD32E230_Firmware_Library/GD32E230_standard_peripheral/Source/gd32e230_rtc.c:826:13
	str	r1, [r0]
	.loc	3 828 27                @ ../GD32E230_Firmware_Library/GD32E230_standard_peripheral/Source/gd32e230_rtc.c:828:27
	ldr	r1, [sp]
	ldr	r2, __arm_cp.25_1
	.loc	3 828 13 is_stmt 0      @ ../GD32E230_Firmware_Library/GD32E230_standard_peripheral/Source/gd32e230_rtc.c:828:13
	ldr	r3, [r2]
	orrs	r3, r1
	str	r3, [r2]
	movs	r1, #255
	.loc	3 831 13 is_stmt 1      @ ../GD32E230_Firmware_Library/GD32E230_standard_peripheral/Source/gd32e230_rtc.c:831:13
	str	r1, [r0]
	.loc	3 832 1                 @ ../GD32E230_Firmware_Library/GD32E230_standard_peripheral/Source/gd32e230_rtc.c:832:1
	add	sp, #4
	bx	lr
.Ltmp122:
	.p2align	2
@ %bb.1:
	.loc	3 0 1 is_stmt 0         @ ../GD32E230_Firmware_Library/GD32E230_standard_peripheral/Source/gd32e230_rtc.c:0:1
__arm_cp.25_0:
	.long	1073752100              @ 0x40002824
.Lcpi_end69:
	.size	__arm_cp.25_0, .Lcpi_end69-__arm_cp.25_0
__arm_cp.25_1:
	.long	1073752072              @ 0x40002808
.Lcpi_end70:
	.size	__arm_cp.25_1, .Lcpi_end70-__arm_cp.25_1
.Lfunc_end25:
	.size	rtc_hour_adjust, .Lfunc_end25-rtc_hour_adjust
	.cfi_endproc
	.cantunwind
	.fnend
                                        @ -- End function
	.section	.text.rtc_second_adjust,"ax",%progbits
	.hidden	rtc_second_adjust       @ -- Begin function rtc_second_adjust
	.globl	rtc_second_adjust
	.p2align	2
	.type	rtc_second_adjust,%function
	.code	16                      @ @rtc_second_adjust
	.thumb_func
rtc_second_adjust:
.Lfunc_begin26:
	.loc	3 845 0 is_stmt 1       @ ../GD32E230_Firmware_Library/GD32E230_standard_peripheral/Source/gd32e230_rtc.c:845:0
	.fnstart
	.cfi_startproc
@ %bb.0:
	.save	{r7, lr}
	push	{r7, lr}
	.cfi_def_cfa_offset 8
	.cfi_offset lr, -4
	.cfi_offset r7, -8
	.pad	#32
	sub	sp, #32
	.cfi_def_cfa_offset 40
	str	r0, [sp, #28]
	str	r1, [sp, #24]
	movw	r0, #4096
.Ltmp123:
	.loc	3 846 14 prologue_end   @ ../GD32E230_Firmware_Library/GD32E230_standard_peripheral/Source/gd32e230_rtc.c:846:14
	str	r0, [sp, #20]
	add	r0, sp, #16
	movs	r1, #0
	.loc	3 847 15                @ ../GD32E230_Firmware_Library/GD32E230_standard_peripheral/Source/gd32e230_rtc.c:847:15
	strb	r1, [r0]
	.loc	3 848 14                @ ../GD32E230_Firmware_Library/GD32E230_standard_peripheral/Source/gd32e230_rtc.c:848:14
	str	r1, [sp, #12]
	.loc	3 849 14                @ ../GD32E230_Firmware_Library/GD32E230_standard_peripheral/Source/gd32e230_rtc.c:849:14
	str	r1, [sp, #8]
	ldr	r0, __arm_cp.26_0
	movs	r1, #202
	.loc	3 852 13                @ ../GD32E230_Firmware_Library/GD32E230_standard_peripheral/Source/gd32e230_rtc.c:852:13
	str	r1, [r0]
	movs	r1, #83
	.loc	3 853 13                @ ../GD32E230_Firmware_Library/GD32E230_standard_peripheral/Source/gd32e230_rtc.c:853:13
	str	r1, [r0]
	.loc	3 856 5                 @ ../GD32E230_Firmware_Library/GD32E230_standard_peripheral/Source/gd32e230_rtc.c:856:5
	b	.LBB26_1
.LBB26_1:                               @ =>This Inner Loop Header: Depth=1
	.loc	3 0 5 is_stmt 0         @ ../GD32E230_Firmware_Library/GD32E230_standard_peripheral/Source/gd32e230_rtc.c:0:5
	ldr	r0, __arm_cp.26_1
.Ltmp124:
	.loc	3 857 23 is_stmt 1      @ ../GD32E230_Firmware_Library/GD32E230_standard_peripheral/Source/gd32e230_rtc.c:857:23
	ldr	r0, [r0]
	movs	r1, #8
	.loc	3 857 32 is_stmt 0      @ ../GD32E230_Firmware_Library/GD32E230_standard_peripheral/Source/gd32e230_rtc.c:857:32
	ands	r0, r1
	.loc	3 857 21                @ ../GD32E230_Firmware_Library/GD32E230_standard_peripheral/Source/gd32e230_rtc.c:857:21
	str	r0, [sp, #12]
	.loc	3 858 5 is_stmt 1       @ ../GD32E230_Firmware_Library/GD32E230_standard_peripheral/Source/gd32e230_rtc.c:858:5
	b	.LBB26_2
.Ltmp125:
.LBB26_2:                               @   in Loop: Header=BB26_1 Depth=1
	.loc	3 858 13 is_stmt 0      @ ../GD32E230_Firmware_Library/GD32E230_standard_peripheral/Source/gd32e230_rtc.c:858:13
	ldr	r0, [sp, #20]
	subs	r0, r0, #1
	str	r0, [sp, #20]
	movs	r1, #0
	.loc	3 858 35                @ ../GD32E230_Firmware_Library/GD32E230_standard_peripheral/Source/gd32e230_rtc.c:858:35
	cmp	r0, #0
	str	r1, [sp, #4]            @ 4-byte Spill
	beq	.LBB26_4
	b	.LBB26_3
.LBB26_3:                               @   in Loop: Header=BB26_1 Depth=1
	.loc	3 858 58                @ ../GD32E230_Firmware_Library/GD32E230_standard_peripheral/Source/gd32e230_rtc.c:858:58
	ldr	r0, [sp, #12]
	.loc	3 858 55                @ ../GD32E230_Firmware_Library/GD32E230_standard_peripheral/Source/gd32e230_rtc.c:858:55
	subs	r1, r0, #1
	sbcs	r0, r1
	str	r0, [sp, #4]            @ 4-byte Spill
	b	.LBB26_4
.LBB26_4:                               @   in Loop: Header=BB26_1 Depth=1
	.loc	3 0 0                   @ ../GD32E230_Firmware_Library/GD32E230_standard_peripheral/Source/gd32e230_rtc.c:0:0
	ldr	r0, [sp, #4]            @ 4-byte Reload
.Ltmp126:
	.loc	3 858 5                 @ ../GD32E230_Firmware_Library/GD32E230_standard_peripheral/Source/gd32e230_rtc.c:858:5
	lsls	r0, r0, #31
	cmp	r0, #0
	bne	.LBB26_1
	b	.LBB26_5
.Ltmp127:
.LBB26_5:
	.loc	3 0 5                   @ ../GD32E230_Firmware_Library/GD32E230_standard_peripheral/Source/gd32e230_rtc.c:0:5
	ldr	r0, __arm_cp.26_2
	.loc	3 860 12 is_stmt 1      @ ../GD32E230_Firmware_Library/GD32E230_standard_peripheral/Source/gd32e230_rtc.c:860:12
	ldr	r0, [r0]
	movs	r1, #16
	.loc	3 860 20 is_stmt 0      @ ../GD32E230_Firmware_Library/GD32E230_standard_peripheral/Source/gd32e230_rtc.c:860:20
	ands	r0, r1
	.loc	3 860 10                @ ../GD32E230_Firmware_Library/GD32E230_standard_peripheral/Source/gd32e230_rtc.c:860:10
	str	r0, [sp, #8]
.Ltmp128:
	.loc	3 862 28 is_stmt 1      @ ../GD32E230_Firmware_Library/GD32E230_standard_peripheral/Source/gd32e230_rtc.c:862:28
	ldr	r0, [sp, #12]
	.loc	3 862 41 is_stmt 0      @ ../GD32E230_Firmware_Library/GD32E230_standard_peripheral/Source/gd32e230_rtc.c:862:41
	cmp	r0, #0
	bne	.LBB26_8
	b	.LBB26_6
.LBB26_6:
	.loc	3 862 54                @ ../GD32E230_Firmware_Library/GD32E230_standard_peripheral/Source/gd32e230_rtc.c:862:54
	ldr	r0, [sp, #8]
.Ltmp129:
	.loc	3 862 8                 @ ../GD32E230_Firmware_Library/GD32E230_standard_peripheral/Source/gd32e230_rtc.c:862:8
	cmp	r0, #0
	bne	.LBB26_8
	b	.LBB26_7
.LBB26_7:
.Ltmp130:
	.loc	3 863 35 is_stmt 1      @ ../GD32E230_Firmware_Library/GD32E230_standard_peripheral/Source/gd32e230_rtc.c:863:35
	ldr	r0, [sp, #28]
	.loc	3 863 41 is_stmt 0      @ ../GD32E230_Firmware_Library/GD32E230_standard_peripheral/Source/gd32e230_rtc.c:863:41
	ldr	r1, [sp, #24]
	ldr	r2, __arm_cp.26_3
	ands	r1, r2
	.loc	3 863 39                @ ../GD32E230_Firmware_Library/GD32E230_standard_peripheral/Source/gd32e230_rtc.c:863:39
	orrs	r0, r1
	ldr	r1, __arm_cp.26_4
	.loc	3 863 22                @ ../GD32E230_Firmware_Library/GD32E230_standard_peripheral/Source/gd32e230_rtc.c:863:22
	str	r0, [r1]
	.loc	3 864 24 is_stmt 1      @ ../GD32E230_Firmware_Library/GD32E230_standard_peripheral/Source/gd32e230_rtc.c:864:24
	bl	rtc_register_sync_wait
	add	r1, sp, #16
	.loc	3 864 22 is_stmt 0      @ ../GD32E230_Firmware_Library/GD32E230_standard_peripheral/Source/gd32e230_rtc.c:864:22
	strb	r0, [r1]
	.loc	3 865 5 is_stmt 1       @ ../GD32E230_Firmware_Library/GD32E230_standard_peripheral/Source/gd32e230_rtc.c:865:5
	b	.LBB26_8
.Ltmp131:
.LBB26_8:
	.loc	3 0 5 is_stmt 0         @ ../GD32E230_Firmware_Library/GD32E230_standard_peripheral/Source/gd32e230_rtc.c:0:5
	ldr	r0, __arm_cp.26_0
	movs	r1, #255
	.loc	3 868 13 is_stmt 1      @ ../GD32E230_Firmware_Library/GD32E230_standard_peripheral/Source/gd32e230_rtc.c:868:13
	str	r1, [r0]
	add	r0, sp, #16
	.loc	3 870 12                @ ../GD32E230_Firmware_Library/GD32E230_standard_peripheral/Source/gd32e230_rtc.c:870:12
	ldrb	r0, [r0]
	.loc	3 870 5 is_stmt 0       @ ../GD32E230_Firmware_Library/GD32E230_standard_peripheral/Source/gd32e230_rtc.c:870:5
	add	sp, #32
	pop	{r7, pc}
.Ltmp132:
	.p2align	2
@ %bb.9:
	.loc	3 0 5                   @ ../GD32E230_Firmware_Library/GD32E230_standard_peripheral/Source/gd32e230_rtc.c:0:5
__arm_cp.26_0:
	.long	1073752100              @ 0x40002824
.Lcpi_end71:
	.size	__arm_cp.26_0, .Lcpi_end71-__arm_cp.26_0
__arm_cp.26_1:
	.long	1073752076              @ 0x4000280c
.Lcpi_end72:
	.size	__arm_cp.26_1, .Lcpi_end72-__arm_cp.26_1
__arm_cp.26_2:
	.long	1073752072              @ 0x40002808
.Lcpi_end73:
	.size	__arm_cp.26_2, .Lcpi_end73-__arm_cp.26_2
__arm_cp.26_3:
	.long	32767                   @ 0x7fff
.Lcpi_end74:
	.size	__arm_cp.26_3, .Lcpi_end74-__arm_cp.26_3
__arm_cp.26_4:
	.long	1073752108              @ 0x4000282c
.Lcpi_end75:
	.size	__arm_cp.26_4, .Lcpi_end75-__arm_cp.26_4
.Lfunc_end26:
	.size	rtc_second_adjust, .Lfunc_end26-rtc_second_adjust
	.cfi_endproc
	.cantunwind
	.fnend
                                        @ -- End function
	.section	.text.rtc_bypass_shadow_enable,"ax",%progbits
	.hidden	rtc_bypass_shadow_enable @ -- Begin function rtc_bypass_shadow_enable
	.globl	rtc_bypass_shadow_enable
	.p2align	2
	.type	rtc_bypass_shadow_enable,%function
	.code	16                      @ @rtc_bypass_shadow_enable
	.thumb_func
rtc_bypass_shadow_enable:
.Lfunc_begin27:
	.loc	3 880 0 is_stmt 1       @ ../GD32E230_Firmware_Library/GD32E230_standard_peripheral/Source/gd32e230_rtc.c:880:0
	.fnstart
	.cfi_startproc
@ %bb.0:
	ldr	r0, __arm_cp.27_0
	movs	r1, #202
.Ltmp133:
	.loc	3 882 13 prologue_end   @ ../GD32E230_Firmware_Library/GD32E230_standard_peripheral/Source/gd32e230_rtc.c:882:13
	str	r1, [r0]
	movs	r1, #83
	.loc	3 883 13                @ ../GD32E230_Firmware_Library/GD32E230_standard_peripheral/Source/gd32e230_rtc.c:883:13
	str	r1, [r0]
	ldr	r1, __arm_cp.27_1
	.loc	3 885 13                @ ../GD32E230_Firmware_Library/GD32E230_standard_peripheral/Source/gd32e230_rtc.c:885:13
	ldr	r2, [r1]
	movs	r3, #32
	orrs	r2, r3
	str	r2, [r1]
	movs	r1, #255
	.loc	3 888 13                @ ../GD32E230_Firmware_Library/GD32E230_standard_peripheral/Source/gd32e230_rtc.c:888:13
	str	r1, [r0]
	.loc	3 889 1                 @ ../GD32E230_Firmware_Library/GD32E230_standard_peripheral/Source/gd32e230_rtc.c:889:1
	bx	lr
.Ltmp134:
	.p2align	2
@ %bb.1:
	.loc	3 0 1 is_stmt 0         @ ../GD32E230_Firmware_Library/GD32E230_standard_peripheral/Source/gd32e230_rtc.c:0:1
__arm_cp.27_0:
	.long	1073752100              @ 0x40002824
.Lcpi_end76:
	.size	__arm_cp.27_0, .Lcpi_end76-__arm_cp.27_0
__arm_cp.27_1:
	.long	1073752072              @ 0x40002808
.Lcpi_end77:
	.size	__arm_cp.27_1, .Lcpi_end77-__arm_cp.27_1
.Lfunc_end27:
	.size	rtc_bypass_shadow_enable, .Lfunc_end27-rtc_bypass_shadow_enable
	.cfi_endproc
	.cantunwind
	.fnend
                                        @ -- End function
	.section	.text.rtc_bypass_shadow_disable,"ax",%progbits
	.hidden	rtc_bypass_shadow_disable @ -- Begin function rtc_bypass_shadow_disable
	.globl	rtc_bypass_shadow_disable
	.p2align	2
	.type	rtc_bypass_shadow_disable,%function
	.code	16                      @ @rtc_bypass_shadow_disable
	.thumb_func
rtc_bypass_shadow_disable:
.Lfunc_begin28:
	.loc	3 898 0 is_stmt 1       @ ../GD32E230_Firmware_Library/GD32E230_standard_peripheral/Source/gd32e230_rtc.c:898:0
	.fnstart
	.cfi_startproc
@ %bb.0:
	ldr	r0, __arm_cp.28_0
	movs	r1, #202
.Ltmp135:
	.loc	3 900 13 prologue_end   @ ../GD32E230_Firmware_Library/GD32E230_standard_peripheral/Source/gd32e230_rtc.c:900:13
	str	r1, [r0]
	movs	r1, #83
	.loc	3 901 13                @ ../GD32E230_Firmware_Library/GD32E230_standard_peripheral/Source/gd32e230_rtc.c:901:13
	str	r1, [r0]
	ldr	r1, __arm_cp.28_1
	.loc	3 903 13                @ ../GD32E230_Firmware_Library/GD32E230_standard_peripheral/Source/gd32e230_rtc.c:903:13
	ldr	r2, [r1]
	movs	r3, #223
	ands	r2, r3
	str	r2, [r1]
	movs	r1, #255
	.loc	3 906 13                @ ../GD32E230_Firmware_Library/GD32E230_standard_peripheral/Source/gd32e230_rtc.c:906:13
	str	r1, [r0]
	.loc	3 907 1                 @ ../GD32E230_Firmware_Library/GD32E230_standard_peripheral/Source/gd32e230_rtc.c:907:1
	bx	lr
.Ltmp136:
	.p2align	2
@ %bb.1:
	.loc	3 0 1 is_stmt 0         @ ../GD32E230_Firmware_Library/GD32E230_standard_peripheral/Source/gd32e230_rtc.c:0:1
__arm_cp.28_0:
	.long	1073752100              @ 0x40002824
.Lcpi_end78:
	.size	__arm_cp.28_0, .Lcpi_end78-__arm_cp.28_0
__arm_cp.28_1:
	.long	1073752072              @ 0x40002808
.Lcpi_end79:
	.size	__arm_cp.28_1, .Lcpi_end79-__arm_cp.28_1
.Lfunc_end28:
	.size	rtc_bypass_shadow_disable, .Lfunc_end28-rtc_bypass_shadow_disable
	.cfi_endproc
	.cantunwind
	.fnend
                                        @ -- End function
	.section	.text.rtc_refclock_detection_enable,"ax",%progbits
	.hidden	rtc_refclock_detection_enable @ -- Begin function rtc_refclock_detection_enable
	.globl	rtc_refclock_detection_enable
	.p2align	2
	.type	rtc_refclock_detection_enable,%function
	.code	16                      @ @rtc_refclock_detection_enable
	.thumb_func
rtc_refclock_detection_enable:
.Lfunc_begin29:
	.loc	3 916 0 is_stmt 1       @ ../GD32E230_Firmware_Library/GD32E230_standard_peripheral/Source/gd32e230_rtc.c:916:0
	.fnstart
	.cfi_startproc
@ %bb.0:
	.save	{r7, lr}
	push	{r7, lr}
	.cfi_def_cfa_offset 8
	.cfi_offset lr, -4
	.cfi_offset r7, -8
	.pad	#8
	sub	sp, #8
	.cfi_def_cfa_offset 16
	add	r0, sp, #4
	movs	r1, #0
.Ltmp137:
	.loc	3 917 15 prologue_end   @ ../GD32E230_Firmware_Library/GD32E230_standard_peripheral/Source/gd32e230_rtc.c:917:15
	strb	r1, [r0]
	ldr	r1, __arm_cp.29_0
	movs	r2, #202
	.loc	3 920 13                @ ../GD32E230_Firmware_Library/GD32E230_standard_peripheral/Source/gd32e230_rtc.c:920:13
	str	r2, [r1]
	movs	r2, #83
	.loc	3 921 13                @ ../GD32E230_Firmware_Library/GD32E230_standard_peripheral/Source/gd32e230_rtc.c:921:13
	str	r2, [r1]
	.loc	3 924 20                @ ../GD32E230_Firmware_Library/GD32E230_standard_peripheral/Source/gd32e230_rtc.c:924:20
	str	r0, [sp]                @ 4-byte Spill
	bl	rtc_init_mode_enter
	.loc	3 924 18 is_stmt 0      @ ../GD32E230_Firmware_Library/GD32E230_standard_peripheral/Source/gd32e230_rtc.c:924:18
	ldr	r1, [sp]                @ 4-byte Reload
	strb	r0, [r1]
.Ltmp138:
	.loc	3 926 17 is_stmt 1      @ ../GD32E230_Firmware_Library/GD32E230_standard_peripheral/Source/gd32e230_rtc.c:926:17
	ldrb	r0, [r1]
.Ltmp139:
	.loc	3 926 8 is_stmt 0       @ ../GD32E230_Firmware_Library/GD32E230_standard_peripheral/Source/gd32e230_rtc.c:926:8
	cmp	r0, #0
	beq	.LBB29_2
	b	.LBB29_1
.LBB29_1:
	.loc	3 0 8                   @ ../GD32E230_Firmware_Library/GD32E230_standard_peripheral/Source/gd32e230_rtc.c:0:8
	ldr	r0, __arm_cp.29_1
.Ltmp140:
	.loc	3 927 17 is_stmt 1      @ ../GD32E230_Firmware_Library/GD32E230_standard_peripheral/Source/gd32e230_rtc.c:927:17
	ldr	r1, [r0]
	movs	r2, #16
	orrs	r1, r2
	str	r1, [r0]
	.loc	3 929 9                 @ ../GD32E230_Firmware_Library/GD32E230_standard_peripheral/Source/gd32e230_rtc.c:929:9
	bl	rtc_init_mode_exit
	.loc	3 930 5                 @ ../GD32E230_Firmware_Library/GD32E230_standard_peripheral/Source/gd32e230_rtc.c:930:5
	b	.LBB29_2
.Ltmp141:
.LBB29_2:
	.loc	3 0 5 is_stmt 0         @ ../GD32E230_Firmware_Library/GD32E230_standard_peripheral/Source/gd32e230_rtc.c:0:5
	ldr	r0, __arm_cp.29_0
	movs	r1, #255
	.loc	3 933 13 is_stmt 1      @ ../GD32E230_Firmware_Library/GD32E230_standard_peripheral/Source/gd32e230_rtc.c:933:13
	str	r1, [r0]
	add	r0, sp, #4
	.loc	3 935 12                @ ../GD32E230_Firmware_Library/GD32E230_standard_peripheral/Source/gd32e230_rtc.c:935:12
	ldrb	r0, [r0]
	.loc	3 935 5 is_stmt 0       @ ../GD32E230_Firmware_Library/GD32E230_standard_peripheral/Source/gd32e230_rtc.c:935:5
	add	sp, #8
	pop	{r7, pc}
.Ltmp142:
	.p2align	2
@ %bb.3:
	.loc	3 0 5                   @ ../GD32E230_Firmware_Library/GD32E230_standard_peripheral/Source/gd32e230_rtc.c:0:5
__arm_cp.29_0:
	.long	1073752100              @ 0x40002824
.Lcpi_end80:
	.size	__arm_cp.29_0, .Lcpi_end80-__arm_cp.29_0
__arm_cp.29_1:
	.long	1073752072              @ 0x40002808
.Lcpi_end81:
	.size	__arm_cp.29_1, .Lcpi_end81-__arm_cp.29_1
.Lfunc_end29:
	.size	rtc_refclock_detection_enable, .Lfunc_end29-rtc_refclock_detection_enable
	.cfi_endproc
	.cantunwind
	.fnend
                                        @ -- End function
	.section	.text.rtc_refclock_detection_disable,"ax",%progbits
	.hidden	rtc_refclock_detection_disable @ -- Begin function rtc_refclock_detection_disable
	.globl	rtc_refclock_detection_disable
	.p2align	2
	.type	rtc_refclock_detection_disable,%function
	.code	16                      @ @rtc_refclock_detection_disable
	.thumb_func
rtc_refclock_detection_disable:
.Lfunc_begin30:
	.loc	3 945 0 is_stmt 1       @ ../GD32E230_Firmware_Library/GD32E230_standard_peripheral/Source/gd32e230_rtc.c:945:0
	.fnstart
	.cfi_startproc
@ %bb.0:
	.save	{r7, lr}
	push	{r7, lr}
	.cfi_def_cfa_offset 8
	.cfi_offset lr, -4
	.cfi_offset r7, -8
	.pad	#8
	sub	sp, #8
	.cfi_def_cfa_offset 16
	add	r0, sp, #4
	movs	r1, #0
.Ltmp143:
	.loc	3 946 15 prologue_end   @ ../GD32E230_Firmware_Library/GD32E230_standard_peripheral/Source/gd32e230_rtc.c:946:15
	strb	r1, [r0]
	ldr	r1, __arm_cp.30_0
	movs	r2, #202
	.loc	3 949 13                @ ../GD32E230_Firmware_Library/GD32E230_standard_peripheral/Source/gd32e230_rtc.c:949:13
	str	r2, [r1]
	movs	r2, #83
	.loc	3 950 13                @ ../GD32E230_Firmware_Library/GD32E230_standard_peripheral/Source/gd32e230_rtc.c:950:13
	str	r2, [r1]
	.loc	3 953 20                @ ../GD32E230_Firmware_Library/GD32E230_standard_peripheral/Source/gd32e230_rtc.c:953:20
	str	r0, [sp]                @ 4-byte Spill
	bl	rtc_init_mode_enter
	.loc	3 953 18 is_stmt 0      @ ../GD32E230_Firmware_Library/GD32E230_standard_peripheral/Source/gd32e230_rtc.c:953:18
	ldr	r1, [sp]                @ 4-byte Reload
	strb	r0, [r1]
.Ltmp144:
	.loc	3 955 17 is_stmt 1      @ ../GD32E230_Firmware_Library/GD32E230_standard_peripheral/Source/gd32e230_rtc.c:955:17
	ldrb	r0, [r1]
.Ltmp145:
	.loc	3 955 8 is_stmt 0       @ ../GD32E230_Firmware_Library/GD32E230_standard_peripheral/Source/gd32e230_rtc.c:955:8
	cmp	r0, #0
	beq	.LBB30_2
	b	.LBB30_1
.LBB30_1:
	.loc	3 0 8                   @ ../GD32E230_Firmware_Library/GD32E230_standard_peripheral/Source/gd32e230_rtc.c:0:8
	ldr	r0, __arm_cp.30_1
.Ltmp146:
	.loc	3 956 17 is_stmt 1      @ ../GD32E230_Firmware_Library/GD32E230_standard_peripheral/Source/gd32e230_rtc.c:956:17
	ldr	r1, [r0]
	movs	r2, #16
	bics	r1, r2
	str	r1, [r0]
	.loc	3 958 9                 @ ../GD32E230_Firmware_Library/GD32E230_standard_peripheral/Source/gd32e230_rtc.c:958:9
	bl	rtc_init_mode_exit
	.loc	3 959 5                 @ ../GD32E230_Firmware_Library/GD32E230_standard_peripheral/Source/gd32e230_rtc.c:959:5
	b	.LBB30_2
.Ltmp147:
.LBB30_2:
	.loc	3 0 5 is_stmt 0         @ ../GD32E230_Firmware_Library/GD32E230_standard_peripheral/Source/gd32e230_rtc.c:0:5
	ldr	r0, __arm_cp.30_0
	movs	r1, #255
	.loc	3 962 13 is_stmt 1      @ ../GD32E230_Firmware_Library/GD32E230_standard_peripheral/Source/gd32e230_rtc.c:962:13
	str	r1, [r0]
	add	r0, sp, #4
	.loc	3 964 12                @ ../GD32E230_Firmware_Library/GD32E230_standard_peripheral/Source/gd32e230_rtc.c:964:12
	ldrb	r0, [r0]
	.loc	3 964 5 is_stmt 0       @ ../GD32E230_Firmware_Library/GD32E230_standard_peripheral/Source/gd32e230_rtc.c:964:5
	add	sp, #8
	pop	{r7, pc}
.Ltmp148:
	.p2align	2
@ %bb.3:
	.loc	3 0 5                   @ ../GD32E230_Firmware_Library/GD32E230_standard_peripheral/Source/gd32e230_rtc.c:0:5
__arm_cp.30_0:
	.long	1073752100              @ 0x40002824
.Lcpi_end82:
	.size	__arm_cp.30_0, .Lcpi_end82-__arm_cp.30_0
__arm_cp.30_1:
	.long	1073752072              @ 0x40002808
.Lcpi_end83:
	.size	__arm_cp.30_1, .Lcpi_end83-__arm_cp.30_1
.Lfunc_end30:
	.size	rtc_refclock_detection_disable, .Lfunc_end30-rtc_refclock_detection_disable
	.cfi_endproc
	.cantunwind
	.fnend
                                        @ -- End function
	.file	4 "E:\\Soway\\Soway_product-soft\\105 - T119-GD\\E230 -  ds18b20-F8\\MDK-ARM" "../GD32E230_Firmware_Library/GD32E230_standard_peripheral/Include\\gd32e230_rtc.h"
	.section	".note.GNU-stack","",%progbits
	.eabi_attribute	30, 6	@ Tag_ABI_optimization_goals
	.ARM_attribute	16, 1	@ Tag_AV_eba