	.text
	.syntax unified
	.eabi_attribute	67, "2.09"	@ Tag_conformance
	.cpu	cortex-m23
	.eabi_attribute	6, 16	@ Tag_CPU_arch
	.eabi_attribute	7, 77	@ Tag_CPU_arch_profile
	.eabi_attribute	8, 0	@ Tag_ARM_ISA_use
	.eabi_attribute	9, 3	@ Tag_THUMB_ISA_use
	.eabi_attribute	34, 0	@ Tag_CPU_unaligned_access
	.eabi_attribute	17, 1	@ Tag_ABI_PCS_GOT_use
	.eabi_attribute	20, 2	@ Tag_ABI_FP_denormal
	.eabi_attribute	21, 0	@ Tag_ABI_FP_exceptions
	.eabi_attribute	23, 1	@ Tag_ABI_FP_number_model
	.eabi_attribute	24, 1	@ Tag_ABI_align_needed
	.eabi_attribute	25, 1	@ Tag_ABI_align_preserved
	.eabi_attribute	38, 1	@ Tag_ABI_FP_16bit_format
	.eabi_attribute	18, 2	@ Tag_ABI_PCS_wchar_t
	.eabi_attribute	26, 1	@ Tag_ABI_enum_size
	.eabi_attribute	14, 0	@ Tag_ABI_PCS_R9_use
	.file	"gd32e230c_eval.c"
	.file	1 "E:\\Soway\\Soway_product-soft\\105 - T119-GD\\E230 -  ds18b20-F8\\MDK-ARM" "../GD32E230_Firmware_Library/CMSIS/GD/GD32E230/Include\\gd32e230.h"
	.file	2 "E:\\Soway\\Soway_product-soft\\105 - T119-GD\\E230 -  ds18b20-F8\\MDK-ARM" "../Utilities/gd32e230c_eval.c"
	.file	3 "D:\\Keil_v5\\ARM\\ARMCLANG\\Bin\\..\\include" "stdint.h"
	.file	4 "E:\\Soway\\Soway_product-soft\\105 - T119-GD\\E230 -  ds18b20-F8\\MDK-ARM" "../GD32E230_Firmware_Library/GD32E230_standard_peripheral/Include\\gd32e230_rcu.h"
	.file	5 "E:\\Soway\\Soway_product-soft\\105 - T119-GD\\E230 -  ds18b20-F8\\MDK-ARM" "../GD32E230_Firmware_Library/GD32E230_standard_peripheral/Include\\gd32e230_exti.h"
	.file	6 "E:\\Soway\\Soway_product-soft\\105 - T119-GD\\E230 -  ds18b20-F8\\MDK-ARM" "../Utilities\\gd32e230c_eval.h"
	.file	7 "E:\\Soway\\Soway_product-soft\\105 - T119-GD\\E230 -  ds18b20-F8\\MDK-ARM" "../GD32E230_Firmware_Library/GD32E230_standard_peripheral/Include\\gd32e230_usart.h"
	.section	.text.gd_eval_led_init,"ax",%progbits
	.hidden	gd_eval_led_init        @ -- Begin function gd_eval_led_init
	.globl	gd_eval_led_init
	.p2align	2
	.type	gd_eval_led_init,%function
	.code	16                      @ @gd_eval_led_init
	.thumb_func
gd_eval_led_init:
.Lfunc_begin0:
	.loc	2 105 0                 @ ../Utilities/gd32e230c_eval.c:105:0
	.fnstart
	.cfi_sections .debug_frame
	.cfi_startproc
@ %bb.0:
	.save	{r4, r5, r7, lr}
	push	{r4, r5, r7, lr}
	.cfi_def_cfa_offset 16
	.cfi_offset lr, -4
	.cfi_offset r7, -8
	.cfi_offset r5, -12
	.cfi_offset r4, -16
	.pad	#32
	sub	sp, #32
	.cfi_def_cfa_offset 48
	mov	r1, r0
	add	r2, sp, #28
	strb	r0, [r2]
.Ltmp0:
	.loc	2 107 38 prologue_end   @ ../Utilities/gd32e230c_eval.c:107:38
	ldrb	r0, [r2]
	.loc	2 107 29 is_stmt 0      @ ../Utilities/gd32e230c_eval.c:107:29
	lsls	r0, r0, #1
	ldr	r3, __arm_cp.0_0
	ldrh	r0, [r3, r0]
	.loc	2 107 5                 @ ../Utilities/gd32e230c_eval.c:107:5
	str	r1, [sp, #24]           @ 4-byte Spill
	str	r2, [sp, #20]           @ 4-byte Spill
	bl	rcu_periph_clock_enable
	.loc	2 109 29 is_stmt 1      @ ../Utilities/gd32e230c_eval.c:109:29
	ldr	r0, [sp, #20]           @ 4-byte Reload
	ldrb	r1, [r0]
	.loc	2 109 19 is_stmt 0      @ ../Utilities/gd32e230c_eval.c:109:19
	lsls	r1, r1, #2
	ldr	r2, __arm_cp.0_1
	ldr	r0, [r2, r1]
	.loc	2 109 72                @ ../Utilities/gd32e230c_eval.c:109:72
	ldr	r3, __arm_cp.0_2
	ldr	r1, [r3, r1]
	movs	r4, #1
	movs	r5, #0
	.loc	2 109 5                 @ ../Utilities/gd32e230c_eval.c:109:5
	str	r1, [sp, #16]           @ 4-byte Spill
	mov	r1, r4
	str	r2, [sp, #12]           @ 4-byte Spill
	mov	r2, r5
	ldr	r4, [sp, #16]           @ 4-byte Reload
	str	r3, [sp, #8]            @ 4-byte Spill
	mov	r3, r4
	str	r5, [sp, #4]            @ 4-byte Spill
	bl	gpio_mode_set
	.loc	2 110 39 is_stmt 1      @ ../Utilities/gd32e230c_eval.c:110:39
	ldr	r0, [sp, #20]           @ 4-byte Reload
	ldrb	r1, [r0]
	.loc	2 110 29 is_stmt 0      @ ../Utilities/gd32e230c_eval.c:110:29
	lsls	r1, r1, #2
	ldr	r2, [sp, #12]           @ 4-byte Reload
	ldr	r0, [r2, r1]
	.loc	2 110 82                @ ../Utilities/gd32e230c_eval.c:110:82
	ldr	r3, [sp, #8]            @ 4-byte Reload
	ldr	r3, [r3, r1]
	movs	r2, #3
	.loc	2 110 5                 @ ../Utilities/gd32e230c_eval.c:110:5
	ldr	r1, [sp, #4]            @ 4-byte Reload
	bl	gpio_output_options_set
	.loc	2 112 43 is_stmt 1      @ ../Utilities/gd32e230c_eval.c:112:43
	ldr	r0, [sp, #20]           @ 4-byte Reload
	ldrb	r1, [r0]
	.loc	2 112 34 is_stmt 0      @ ../Utilities/gd32e230c_eval.c:112:34
	lsls	r1, r1, #2
	ldr	r2, [sp, #8]            @ 4-byte Reload
	ldr	r3, [r2, r1]
	.loc	2 112 5                 @ ../Utilities/gd32e230c_eval.c:112:5
	ldr	r4, [sp, #12]           @ 4-byte Reload
	ldr	r1, [r4, r1]
	.loc	2 112 32                @ ../Utilities/gd32e230c_eval.c:112:32
	str	r3, [r1, #40]
	.loc	2 113 1 is_stmt 1       @ ../Utilities/gd32e230c_eval.c:113:1
	add	sp, #32
	pop	{r4, r5, r7, pc}
.Ltmp1:
	.p2align	2
@ %bb.1:
	.loc	2 0 1 is_stmt 0         @ ../Utilities/gd32e230c_eval.c:0:1
__arm_cp.0_0:
	.long	GPIO_CLK
.Lcpi_end0:
	.size	__arm_cp.0_0, .Lcpi_end0-__arm_cp.0_0
__arm_cp.0_1:
	.long	GPIO_PORT
.Lcpi_end1:
	.size	__arm_cp.0_1, .Lcpi_end1-__arm_cp.0_1
__arm_cp.0_2:
	.long	GPIO_PIN
.Lcpi_end2:
	.size	__arm_cp.0_2, .Lcpi_end2-__arm_cp.0_2
.Lfunc_end0:
	.size	gd_eval_led_init, .Lfunc_end0-gd_eval_led_init
	.cfi_endproc
	.cantunwind
	.fnend
                                        @ -- End function
	.section	.text.gd_eval_led_on,"ax",%progbits
	.hidden	gd_eval_led_on          @ -- Begin function gd_eval_led_on
	.globl	gd_eval_led_on
	.p2align	2
	.type	gd_eval_led_on,%function
	.code	16                      @ @gd_eval_led_on
	.thumb_func
gd_eval_led_on:
.Lfunc_begin1:
	.loc	2 126 0 is_stmt 1       @ ../Utilities/gd32e230c_eval.c:126:0
	.fnstart
	.cfi_startproc
@ %bb.0:
	.pad	#4
	sub	sp, #4
	.cfi_def_cfa_offset 4
	mov	r1, r0
	mov	r2, sp
	strb	r0, [r2]
.Ltmp2:
	.loc	2 127 44 prologue_end   @ ../Utilities/gd32e230c_eval.c:127:44
	ldrb	r0, [r2]
	.loc	2 127 35 is_stmt 0      @ ../Utilities/gd32e230c_eval.c:127:35
	lsls	r0, r0, #2
	ldr	r2, __arm_cp.1_0
	ldr	r2, [r2, r0]
	.loc	2 127 5                 @ ../Utilities/gd32e230c_eval.c:127:5
	ldr	r3, __arm_cp.1_1
	ldr	r0, [r3, r0]
	.loc	2 127 33                @ ../Utilities/gd32e230c_eval.c:127:33
	str	r2, [r0, #24]
	.loc	2 128 1 is_stmt 1       @ ../Utilities/gd32e230c_eval.c:128:1
	add	sp, #4
	bx	lr
.Ltmp3:
	.p2align	2
@ %bb.1:
	.loc	2 0 1 is_stmt 0         @ ../Utilities/gd32e230c_eval.c:0:1
__arm_cp.1_0:
	.long	GPIO_PIN
.Lcpi_end3:
	.size	__arm_cp.1_0, .Lcpi_end3-__arm_cp.1_0
__arm_cp.1_1:
	.long	GPIO_PORT
.Lcpi_end4:
	.size	__arm_cp.1_1, .Lcpi_end4-__arm_cp.1_1
.Lfunc_end1:
	.size	gd_eval_led_on, .Lfunc_end1-gd_eval_led_on
	.cfi_endproc
	.cantunwind
	.fnend
                                        @ -- End function
	.section	.text.gd_eval_led_off,"ax",%progbits
	.hidden	gd_eval_led_off         @ -- Begin function gd_eval_led_off
	.globl	gd_eval_led_off
	.p2align	2
	.type	gd_eval_led_off,%function
	.code	16                      @ @gd_eval_led_off
	.thumb_func
gd_eval_led_off:
.Lfunc_begin2:
	.loc	2 141 0 is_stmt 1       @ ../Utilities/gd32e230c_eval.c:141:0
	.fnstart
	.cfi_startproc
@ %bb.0:
	.pad	#4
	sub	sp, #4
	.cfi_def_cfa_offset 4
	mov	r1, r0
	mov	r2, sp
	strb	r0, [r2]
.Ltmp4:
	.loc	2 142 43 prologue_end   @ ../Utilities/gd32e230c_eval.c:142:43
	ldrb	r0, [r2]
	.loc	2 142 34 is_stmt 0      @ ../Utilities/gd32e230c_eval.c:142:34
	lsls	r0, r0, #2
	ldr	r2, __arm_cp.2_0
	ldr	r2, [r2, r0]
	.loc	2 142 5                 @ ../Utilities/gd32e230c_eval.c:142:5
	ldr	r3, __arm_cp.2_1
	ldr	r0, [r3, r0]
	.loc	2 142 32                @ ../Utilities/gd32e230c_eval.c:142:32
	str	r2, [r0, #40]
	.loc	2 143 1 is_stmt 1       @ ../Utilities/gd32e230c_eval.c:143:1
	add	sp, #4
	bx	lr
.Ltmp5:
	.p2align	2
@ %bb.1:
	.loc	2 0 1 is_stmt 0         @ ../Utilities/gd32e230c_eval.c:0:1
__arm_cp.2_0:
	.long	GPIO_PIN
.Lcpi_end5:
	.size	__arm_cp.2_0, .Lcpi_end5-__arm_cp.2_0
__arm_cp.2_1:
	.long	GPIO_PORT
.Lcpi_end6:
	.size	__arm_cp.2_1, .Lcpi_end6-__arm_cp.2_1
.Lfunc_end2:
	.size	gd_eval_led_off, .Lfunc_end2-gd_eval_led_off
	.cfi_endproc
	.cantunwind
	.fnend
                                        @ -- End function
	.section	.text.gd_eval_led_toggle,"ax",%progbits
	.hidden	gd_eval_led_toggle      @ -- Begin function gd_eval_led_toggle
	.globl	gd_eval_led_toggle
	.p2align	2
	.type	gd_eval_led_toggle,%function
	.code	16                      @ @gd_eval_led_toggle
	.thumb_func
gd_eval_led_toggle:
.Lfunc_begin3:
	.loc	2 156 0 is_stmt 1       @ ../Utilities/gd32e230c_eval.c:156:0
	.fnstart
	.cfi_startproc
@ %bb.0:
	.pad	#4
	sub	sp, #4
	.cfi_def_cfa_offset 4
	mov	r1, r0
	mov	r2, sp
	strb	r0, [r2]
.Ltmp6:
	.loc	2 157 43 prologue_end   @ ../Utilities/gd32e230c_eval.c:157:43
	ldrb	r0, [r2]
	.loc	2 157 34 is_stmt 0      @ ../Utilities/gd32e230c_eval.c:157:34
	lsls	r0, r0, #2
	ldr	r2, __arm_cp.3_0
	ldr	r2, [r2, r0]
	.loc	2 157 5                 @ ../Utilities/gd32e230c_eval.c:157:5
	ldr	r3, __arm_cp.3_1
	ldr	r0, [r3, r0]
	.loc	2 157 32                @ ../Utilities/gd32e230c_eval.c:157:32
	str	r2, [r0, #44]
	.loc	2 158 1 is_stmt 1       @ ../Utilities/gd32e230c_eval.c:158:1
	add	sp, #4
	bx	lr
.Ltmp7:
	.p2align	2
@ %bb.1:
	.loc	2 0 1 is_stmt 0         @ ../Utilities/gd32e230c_eval.c:0:1
__arm_cp.3_0:
	.long	GPIO_PIN
.Lcpi_end7:
	.size	__arm_cp.3_0, .Lcpi_end7-__arm_cp.3_0
__arm_cp.3_1:
	.long	GPIO_PORT
.Lcpi_end8:
	.size	__arm_cp.3_1, .Lcpi_end8-__arm_cp.3_1
.Lfunc_end3:
	.size	gd_eval_led_toggle, .Lfunc_end3-gd_eval_led_toggle
	.cfi_endproc
	.cantunwind
	.fnend
                                        @ -- End function
	.section	.text.gd_eval_key_init,"ax",%progbits
	.hidden	gd_eval_key_init        @ -- Begin function gd_eval_key_init
	.globl	gd_eval_key_init
	.p2align	2
	.type	gd_eval_key_init,%function
	.code	16                      @ @gd_eval_key_init
	.thumb_func
gd_eval_key_init:
.Lfunc_begin4:
	.loc	2 172 0 is_stmt 1       @ ../Utilities/gd32e230c_eval.c:172:0
	.fnstart
	.cfi_startproc
@ %bb.0:
	.save	{r4, r5, r7, lr}
	push	{r4, r5, r7, lr}
	.cfi_def_cfa_offset 16
	.cfi_offset lr, -4
	.cfi_offset r7, -8
	.cfi_offset r5, -12
	.cfi_offset r4, -16
	.pad	#40
	sub	sp, #40
	.cfi_def_cfa_offset 56
	mov	r2, r1
	mov	r3, r0
	add	r4, sp, #36
	strb	r0, [r4]
	add	r0, sp, #32
	strb	r1, [r0]
.Ltmp8:
	.loc	2 174 37 prologue_end   @ ../Utilities/gd32e230c_eval.c:174:37
	ldrb	r1, [r4]
	.loc	2 174 29 is_stmt 0      @ ../Utilities/gd32e230c_eval.c:174:29
	lsls	r1, r1, #1
	ldr	r5, __arm_cp.4_0
	ldrh	r1, [r5, r1]
	.loc	2 174 5                 @ ../Utilities/gd32e230c_eval.c:174:5
	str	r0, [sp, #28]           @ 4-byte Spill
	mov	r0, r1
	str	r2, [sp, #24]           @ 4-byte Spill
	str	r3, [sp, #20]           @ 4-byte Spill
	str	r4, [sp, #16]           @ 4-byte Spill
	bl	rcu_periph_clock_enable
	movw	r0, #1536
	.loc	2 175 5 is_stmt 1       @ ../Utilities/gd32e230c_eval.c:175:5
	bl	rcu_periph_clock_enable
	.loc	2 178 28                @ ../Utilities/gd32e230c_eval.c:178:28
	ldr	r0, [sp, #16]           @ 4-byte Reload
	ldrb	r1, [r0]
	.loc	2 178 19 is_stmt 0      @ ../Utilities/gd32e230c_eval.c:178:19
	lsls	r1, r1, #2
	ldr	r2, __arm_cp.4_1
	ldr	r0, [r2, r1]
	.loc	2 178 70                @ ../Utilities/gd32e230c_eval.c:178:70
	ldr	r2, __arm_cp.4_2
	ldr	r3, [r2, r1]
	movs	r1, #0
	.loc	2 178 5                 @ ../Utilities/gd32e230c_eval.c:178:5
	str	r1, [sp, #12]           @ 4-byte Spill
	ldr	r2, [sp, #12]           @ 4-byte Reload
	bl	gpio_mode_set
.Ltmp9:
	.loc	2 180 9 is_stmt 1       @ ../Utilities/gd32e230c_eval.c:180:9
	ldr	r0, [sp, #28]           @ 4-byte Reload
	ldrb	r1, [r0]
.Ltmp10:
	.loc	2 180 9 is_stmt 0       @ ../Utilities/gd32e230c_eval.c:180:9
	cmp	r1, #1
	bne	.LBB4_2
	b	.LBB4_1
.LBB4_1:
	.loc	2 0 9                   @ ../Utilities/gd32e230c_eval.c:0:9
	add	r0, sp, #36
.Ltmp11:
	.loc	2 182 34 is_stmt 1      @ ../Utilities/gd32e230c_eval.c:182:34
	ldrb	r1, [r0]
	.loc	2 182 25 is_stmt 0      @ ../Utilities/gd32e230c_eval.c:182:25
	ldr	r2, __arm_cp.4_3
	ldrb	r1, [r2, r1]
	movs	r2, #2
	.loc	2 182 9                 @ ../Utilities/gd32e230c_eval.c:182:9
	str	r0, [sp, #8]            @ 4-byte Spill
	mov	r0, r1
	mov	r1, r2
	bl	nvic_irq_enable
	.loc	2 185 49 is_stmt 1      @ ../Utilities/gd32e230c_eval.c:185:49
	ldr	r0, [sp, #8]            @ 4-byte Reload
	ldrb	r1, [r0]
	.loc	2 185 33 is_stmt 0      @ ../Utilities/gd32e230c_eval.c:185:33
	ldr	r2, __arm_cp.4_4
	ldrb	r0, [r2, r1]
	.loc	2 185 58                @ ../Utilities/gd32e230c_eval.c:185:58
	ldr	r2, __arm_cp.4_5
	ldrb	r1, [r2, r1]
	.loc	2 185 9                 @ ../Utilities/gd32e230c_eval.c:185:9
	bl	syscfg_exti_line_config
	.loc	2 188 33 is_stmt 1      @ ../Utilities/gd32e230c_eval.c:188:33
	ldr	r0, [sp, #8]            @ 4-byte Reload
	ldrb	r1, [r0]
	.loc	2 188 19 is_stmt 0      @ ../Utilities/gd32e230c_eval.c:188:19
	lsls	r1, r1, #2
	ldr	r2, __arm_cp.4_6
	ldr	r0, [r2, r1]
	movs	r1, #0
	movs	r3, #1
	.loc	2 188 9                 @ ../Utilities/gd32e230c_eval.c:188:9
	str	r2, [sp, #4]            @ 4-byte Spill
	mov	r2, r3
	bl	exti_init
	.loc	2 189 49 is_stmt 1      @ ../Utilities/gd32e230c_eval.c:189:49
	ldr	r0, [sp, #8]            @ 4-byte Reload
	ldrb	r1, [r0]
	.loc	2 189 35 is_stmt 0      @ ../Utilities/gd32e230c_eval.c:189:35
	lsls	r1, r1, #2
	ldr	r2, [sp, #4]            @ 4-byte Reload
	ldr	r0, [r2, r1]
	.loc	2 189 9                 @ ../Utilities/gd32e230c_eval.c:189:9
	bl	exti_interrupt_flag_clear
	.loc	2 190 5 is_stmt 1       @ ../Utilities/gd32e230c_eval.c:190:5
	b	.LBB4_2
.Ltmp12:
.LBB4_2:
	.loc	2 191 1                 @ ../Utilities/gd32e230c_eval.c:191:1
	add	sp, #40
	pop	{r4, r5, r7, pc}
.Ltmp13:
	.p2align	2
@ %bb.3:
	.loc	2 0 1 is_stmt 0         @ ../Utilities/gd32e230c_eval.c:0:1
__arm_cp.4_0:
	.long	KEY_CLK
.Lcpi_end9:
	.size	__arm_cp.4_0, .Lcpi_end9-__arm_cp.4_0
__arm_cp.4_1:
	.long	KEY_PORT
.Lcpi_end10:
	.size	__arm_cp.4_1, .Lcpi_end10-__arm_cp.4_1
__arm_cp.4_2:
	.long	KEY_PIN
.Lcpi_end11:
	.size	__arm_cp.4_2, .Lcpi_end11-__arm_cp.4_2
__arm_cp.4_3:
	.long	KEY_IRQn
.Lcpi_end12:
	.size	__arm_cp.4_3, .Lcpi_end12-__arm_cp.4_3
__arm_cp.4_4:
	.long	KEY_PORT_SOURCE
.Lcpi_end13:
	.size	__arm_cp.4_4, .Lcpi_end13-__arm_cp.4_4
__arm_cp.4_5:
	.long	KEY_PIN_SOURCE
.Lcpi_end14:
	.size	__arm_cp.4_5, .Lcpi_end14-__arm_cp.4_5
__arm_cp.4_6:
	.long	KEY_EXTI_LINE
.Lcpi_end15:
	.size	__arm_cp.4_6, .Lcpi_end15-__arm_cp.4_6
.Lfunc_end4:
	.size	gd_eval_key_init, .Lfunc_end4-gd_eval_key_init
	.cfi_endproc
	.cantunwind
	.fnend
                                        @ -- End function
	.section	.text.gd_eval_key_state_get,"ax",%progbits
	.hidden	gd_eval_key_state_get   @ -- Begin function gd_eval_key_state_get
	.globl	gd_eval_key_state_get
	.p2align	2
	.type	gd_eval_key_state_get,%function
	.code	16                      @ @gd_eval_key_state_get
	.thumb_func
gd_eval_key_state_get:
.Lfunc_begin5:
	.loc	2 202 0 is_stmt 1       @ ../Utilities/gd32e230c_eval.c:202:0
	.fnstart
	.cfi_startproc
@ %bb.0:
	.save	{r7, lr}
	push	{r7, lr}
	.cfi_def_cfa_offset 8
	.cfi_offset lr, -4
	.cfi_offset r7, -8
	.pad	#16
	sub	sp, #16
	.cfi_def_cfa_offset 24
	mov	r1, r0
	add	r2, sp, #12
	strb	r0, [r2]
.Ltmp14:
	.loc	2 203 40 prologue_end   @ ../Utilities/gd32e230c_eval.c:203:40
	ldrb	r0, [r2]
	.loc	2 203 31 is_stmt 0      @ ../Utilities/gd32e230c_eval.c:203:31
	lsls	r0, r0, #2
	ldr	r2, __arm_cp.5_0
	ldr	r2, [r2, r0]
	.loc	2 203 49                @ ../Utilities/gd32e230c_eval.c:203:49
	ldr	r3, __arm_cp.5_1
	ldr	r0, [r3, r0]
	.loc	2 203 12                @ ../Utilities/gd32e230c_eval.c:203:12
	str	r0, [sp, #8]            @ 4-byte Spill
	mov	r0, r2
	ldr	r2, [sp, #8]            @ 4-byte Reload
	str	r1, [sp, #4]            @ 4-byte Spill
	mov	r1, r2
	bl	gpio_input_bit_get
	.loc	2 203 5                 @ ../Utilities/gd32e230c_eval.c:203:5
	add	sp, #16
	pop	{r7, pc}
.Ltmp15:
	.p2align	2
@ %bb.1:
	.loc	2 0 5                   @ ../Utilities/gd32e230c_eval.c:0:5
__arm_cp.5_0:
	.long	KEY_PORT
.Lcpi_end16:
	.size	__arm_cp.5_0, .Lcpi_end16-__arm_cp.5_0
__arm_cp.5_1:
	.long	KEY_PIN
.Lcpi_end17:
	.size	__arm_cp.5_1, .Lcpi_end17-__arm_cp.5_1
.Lfunc_end5:
	.size	gd_eval_key_state_get, .Lfunc_end5-gd_eval_key_state_get
	.cfi_endproc
	.cantunwind
	.fnend
                                        @ -- End function
	.section	.text.gd_eval_com_init,"ax",%progbits
	.hidden	gd_eval_com_init        @ -- Begin function gd_eval_com_init
	.globl	gd_eval_com_init
	.p2align	2
	.type	gd_eval_com_init,%function
	.code	16                      @ @gd_eval_com_init
	.thumb_func
gd_eval_com_init:
.Lfunc_begin6:
	.loc	2 214 0 is_stmt 1       @ ../Utilities/gd32e230c_eval.c:214:0
	.fnstart
	.cfi_startproc
@ %bb.0:
	.save	{r7, lr}
	push	{r7, lr}
	.cfi_def_cfa_offset 8
	.cfi_offset lr, -4
	.cfi_offset r7, -8
	.pad	#32
	sub	sp, #32
	.cfi_def_cfa_offset 40
	str	r0, [sp, #28]
	movs	r0, #0
.Ltmp16:
	.loc	2 217 12 prologue_end   @ ../Utilities/gd32e230c_eval.c:217:12
	str	r0, [sp, #24]
	ldr	r1, __arm_cp.6_0
	.loc	2 220 5                 @ ../Utilities/gd32e230c_eval.c:220:5
	str	r0, [sp, #20]           @ 4-byte Spill
	mov	r0, r1
	bl	rcu_periph_clock_enable
	.loc	2 223 37                @ ../Utilities/gd32e230c_eval.c:223:37
	ldr	r0, [sp, #24]
	.loc	2 223 29 is_stmt 0      @ ../Utilities/gd32e230c_eval.c:223:29
	lsls	r0, r0, #1
	ldr	r1, __arm_cp.6_1
	ldrh	r0, [r1, r0]
	.loc	2 223 5                 @ ../Utilities/gd32e230c_eval.c:223:5
	bl	rcu_periph_clock_enable
	.loc	2 226 61 is_stmt 1      @ ../Utilities/gd32e230c_eval.c:226:61
	ldr	r0, [sp, #24]
	.loc	2 226 50 is_stmt 0      @ ../Utilities/gd32e230c_eval.c:226:50
	lsls	r0, r0, #2
	ldr	r1, __arm_cp.6_2
	ldr	r2, [r1, r0]
	movs	r0, #9
	lsls	r0, r0, #27
	movs	r3, #1
	.loc	2 226 5                 @ ../Utilities/gd32e230c_eval.c:226:5
	str	r0, [sp, #16]           @ 4-byte Spill
	str	r1, [sp, #12]           @ 4-byte Spill
	mov	r1, r3
	str	r3, [sp, #8]            @ 4-byte Spill
	bl	gpio_af_set
	.loc	2 229 61 is_stmt 1      @ ../Utilities/gd32e230c_eval.c:229:61
	ldr	r0, [sp, #24]
	.loc	2 229 50 is_stmt 0      @ ../Utilities/gd32e230c_eval.c:229:50
	lsls	r0, r0, #2
	ldr	r1, __arm_cp.6_3
	ldr	r2, [r1, r0]
	.loc	2 229 5                 @ ../Utilities/gd32e230c_eval.c:229:5
	ldr	r0, [sp, #16]           @ 4-byte Reload
	ldr	r3, [sp, #8]            @ 4-byte Reload
	str	r1, [sp, #4]            @ 4-byte Spill
	mov	r1, r3
	bl	gpio_af_set
	.loc	2 232 82 is_stmt 1      @ ../Utilities/gd32e230c_eval.c:232:82
	ldr	r0, [sp, #24]
	.loc	2 232 71 is_stmt 0      @ ../Utilities/gd32e230c_eval.c:232:71
	lsls	r0, r0, #2
	ldr	r1, [sp, #12]           @ 4-byte Reload
	ldr	r3, [r1, r0]
	movs	r0, #2
	.loc	2 232 5                 @ ../Utilities/gd32e230c_eval.c:232:5
	ldr	r2, [sp, #16]           @ 4-byte Reload
	str	r0, [sp]                @ 4-byte Spill
	mov	r0, r2
	ldr	r1, [sp]                @ 4-byte Reload
	ldr	r2, [sp, #8]            @ 4-byte Reload
	bl	gpio_mode_set
	.loc	2 233 94 is_stmt 1      @ ../Utilities/gd32e230c_eval.c:233:94
	ldr	r0, [sp, #24]
	.loc	2 233 83 is_stmt 0      @ ../Utilities/gd32e230c_eval.c:233:83
	lsls	r0, r0, #2
	ldr	r1, [sp, #12]           @ 4-byte Reload
	ldr	r3, [r1, r0]
	.loc	2 233 5                 @ ../Utilities/gd32e230c_eval.c:233:5
	ldr	r0, [sp, #16]           @ 4-byte Reload
	ldr	r1, [sp, #20]           @ 4-byte Reload
	ldr	r2, [sp, #8]            @ 4-byte Reload
	bl	gpio_output_options_set
	.loc	2 236 82 is_stmt 1      @ ../Utilities/gd32e230c_eval.c:236:82
	ldr	r0, [sp, #24]
	.loc	2 236 71 is_stmt 0      @ ../Utilities/gd32e230c_eval.c:236:71
	lsls	r0, r0, #2
	ldr	r1, [sp, #4]            @ 4-byte Reload
	ldr	r3, [r1, r0]
	.loc	2 236 5                 @ ../Utilities/gd32e230c_eval.c:236:5
	ldr	r0, [sp, #16]           @ 4-byte Reload
	ldr	r1, [sp]                @ 4-byte Reload
	ldr	r2, [sp, #8]            @ 4-byte Reload
	bl	gpio_mode_set
	.loc	2 237 94 is_stmt 1      @ ../Utilities/gd32e230c_eval.c:237:94
	ldr	r0, [sp, #24]
	.loc	2 237 83 is_stmt 0      @ ../Utilities/gd32e230c_eval.c:237:83
	lsls	r0, r0, #2
	ldr	r1, [sp, #4]            @ 4-byte Reload
	ldr	r3, [r1, r0]
	.loc	2 237 5                 @ ../Utilities/gd32e230c_eval.c:237:5
	ldr	r0, [sp, #16]           @ 4-byte Reload
	ldr	r1, [sp, #20]           @ 4-byte Reload
	ldr	r2, [sp, #8]            @ 4-byte Reload
	bl	gpio_output_options_set
	.loc	2 240 18 is_stmt 1      @ ../Utilities/gd32e230c_eval.c:240:18
	ldr	r0, [sp, #28]
	.loc	2 240 5 is_stmt 0       @ ../Utilities/gd32e230c_eval.c:240:5
	bl	usart_deinit
	.loc	2 241 24 is_stmt 1      @ ../Utilities/gd32e230c_eval.c:241:24
	ldr	r0, [sp, #28]
	movs	r1, #225
	lsls	r1, r1, #9
	.loc	2 241 5 is_stmt 0       @ ../Utilities/gd32e230c_eval.c:241:5
	bl	usart_baudrate_set
	.loc	2 242 26 is_stmt 1      @ ../Utilities/gd32e230c_eval.c:242:26
	ldr	r0, [sp, #28]
	movs	r1, #4
	.loc	2 242 5 is_stmt 0       @ ../Utilities/gd32e230c_eval.c:242:5
	bl	usart_receive_config
	.loc	2 243 27 is_stmt 1      @ ../Utilities/gd32e230c_eval.c:243:27
	ldr	r0, [sp, #28]
	movs	r1, #8
	.loc	2 243 5 is_stmt 0       @ ../Utilities/gd32e230c_eval.c:243:5
	bl	usart_transmit_config
	.loc	2 245 18 is_stmt 1      @ ../Utilities/gd32e230c_eval.c:245:18
	ldr	r0, [sp, #28]
	.loc	2 245 5 is_stmt 0       @ ../Utilities/gd32e230c_eval.c:245:5
	bl	usart_enable
	.loc	2 246 1 is_stmt 1       @ ../Utilities/gd32e230c_eval.c:246:1
	add	sp, #32
	pop	{r7, pc}
.Ltmp17:
	.p2align	2
@ %bb.1:
	.loc	2 0 1 is_stmt 0         @ ../Utilities/gd32e230c_eval.c:0:1
__arm_cp.6_0:
	.long	1297                    @ 0x511
.Lcpi_end18:
	.size	__arm_cp.6_0, .Lcpi_end18-__arm_cp.6_0
__arm_cp.6_1:
	.long	COM_CLK
.Lcpi_end19:
	.size	__arm_cp.6_1, .Lcpi_end19-__arm_cp.6_1
__arm_cp.6_2:
	.long	COM_TX_PIN
.Lcpi_end20:
	.size	__arm_cp.6_2, .Lcpi_end20-__arm_cp.6_2
__arm_cp.6_3:
	.long	COM_RX_PIN
.Lcpi_end21:
	.size	__arm_cp.6_3, .Lcpi_end21-__arm_cp.6_3
.Lfunc_end6:
	.size	gd_eval_com_init, .Lfunc_end6-gd_eval_com_init
	.cfi_endproc
	.cantunwind
	.fnend
                                        @ -- End function
	.section	.text.Delayms,"ax",%progbits
	.hidden	Delayms                 @ -- Begin function Delayms
	.globl	Delayms
	.p2align	2
	.type	Delayms,%function
	.code	16                      @ @Delayms
	.thumb_func
Delayms:
.Lfunc_begin7:
	.loc	2 265 0 is_stmt 1       @ ../Utilities/gd32e230c_eval.c:265:0
	.fnstart
	.cfi_startproc
@ %bb.0:
	.pad	#16
	sub	sp, #16
	.cfi_def_cfa_offset 16
	mov	r1, r0
	add	r2, sp, #12
	strh	r0, [r2]
	add	r0, sp, #8
	movs	r2, #0
.Ltmp18:
	.loc	2 268 7 prologue_end    @ ../Utilities/gd32e230c_eval.c:268:7
	strh	r2, [r0]
	.loc	2 268 6 is_stmt 0       @ ../Utilities/gd32e230c_eval.c:268:6
	b	.LBB7_1
.LBB7_1:                                @ =>This Loop Header: Depth=1
                                        @     Child Loop BB7_3 Depth 2
	.loc	2 0 6                   @ ../Utilities/gd32e230c_eval.c:0:6
	add	r0, sp, #8
.Ltmp19:
	.loc	2 268 10                @ ../Utilities/gd32e230c_eval.c:268:10
	ldrh	r0, [r0]
	add	r1, sp, #12
	.loc	2 268 12                @ ../Utilities/gd32e230c_eval.c:268:12
	ldrh	r1, [r1]
.Ltmp20:
	.loc	2 268 2                 @ ../Utilities/gd32e230c_eval.c:268:2
	cmp	r0, r1
	bge	.LBB7_8
	b	.LBB7_2
.LBB7_2:                                @   in Loop: Header=BB7_1 Depth=1
	.loc	2 0 2                   @ ../Utilities/gd32e230c_eval.c:0:2
	add	r0, sp, #4
	movs	r1, #0
.Ltmp21:
	.loc	2 269 8 is_stmt 1       @ ../Utilities/gd32e230c_eval.c:269:8
	strh	r1, [r0]
	.loc	2 269 7 is_stmt 0       @ ../Utilities/gd32e230c_eval.c:269:7
	b	.LBB7_3
.LBB7_3:                                @   Parent Loop BB7_1 Depth=1
                                        @ =>  This Inner Loop Header: Depth=2
	.loc	2 0 7                   @ ../Utilities/gd32e230c_eval.c:0:7
	add	r0, sp, #4
.Ltmp22:
	.loc	2 269 11                @ ../Utilities/gd32e230c_eval.c:269:11
	ldrh	r0, [r0]
	ldr	r1, __arm_cp.7_0
.Ltmp23:
	.loc	2 269 3                 @ ../Utilities/gd32e230c_eval.c:269:3
	cmp	r0, r1
	bgt	.LBB7_6
	b	.LBB7_4
.LBB7_4:                                @   in Loop: Header=BB7_3 Depth=2
.Ltmp24:
	.loc	2 269 26                @ ../Utilities/gd32e230c_eval.c:269:26
	ldr	r0, [sp]
	adds	r0, r0, #1
	mov	r1, sp
	strb	r0, [r1]
	.loc	2 269 25                @ ../Utilities/gd32e230c_eval.c:269:25
	b	.LBB7_5
.LBB7_5:                                @   in Loop: Header=BB7_3 Depth=2
	.loc	2 269 21                @ ../Utilities/gd32e230c_eval.c:269:21
	ldr	r0, [sp, #4]
	adds	r0, r0, #1
	add	r1, sp, #4
	strh	r0, [r1]
	.loc	2 269 3                 @ ../Utilities/gd32e230c_eval.c:269:3
	b	.LBB7_3
.Ltmp25:
.LBB7_6:                                @   in Loop: Header=BB7_1 Depth=1
	.loc	2 269 26                @ ../Utilities/gd32e230c_eval.c:269:26
	b	.LBB7_7
.Ltmp26:
.LBB7_7:                                @   in Loop: Header=BB7_1 Depth=1
	.loc	2 268 16 is_stmt 1      @ ../Utilities/gd32e230c_eval.c:268:16
	ldr	r0, [sp, #8]
	adds	r0, r0, #1
	add	r1, sp, #8
	strh	r0, [r1]
	.loc	2 268 2 is_stmt 0       @ ../Utilities/gd32e230c_eval.c:268:2
	b	.LBB7_1
.Ltmp27:
.LBB7_8:
	.loc	2 270 1 is_stmt 1       @ ../Utilities/gd32e230c_eval.c:270:1
	add	sp, #16
	bx	lr
.Ltmp28:
	.p2align	2
@ %bb.9:
	.loc	2 0 1 is_stmt 0         @ ../Utilities/gd32e230c_eval.c:0:1
__arm_cp.7_0:
	.long	2328                    @ 0x918
.Lcpi_end22:
	.size	__arm_cp.7_0, .Lcpi_end22-__arm_cp.7_0
.Lfunc_end7:
	.size	Delayms, .Lfunc_end7-Delayms
	.cfi_endproc
	.cantunwind
	.fnend
                                        @ -- End function
	.section	.text.USART1_IRQHandler,"ax",%progbits
	.hidden	USART1_IRQHandler       @ -- Begin function USART1_IRQHandler
	.globl	USART1_IRQHandler
	.p2align	2
	.type	USART1_IRQHandler,%function
	.code	16                      @ @USART1_IRQHandler
	.thumb_func
USART1_IRQHandler:
.Lfunc_begin8:
	.loc	2 273 0 is_stmt 1       @ ../Utilities/gd32e230c_eval.c:273:0
	.fnstart
	.cfi_startproc
@ %bb.0:
	.save	{r7, lr}
	push	{r7, lr}
	.cfi_def_cfa_offset 8
	.cfi_offset lr, -4
	.cfi_offset r7, -8
	.pad	#16
	sub	sp, #16
	.cfi_def_cfa_offset 24
.Ltmp29:
	.loc	2 274 15 prologue_end   @ ../Utilities/gd32e230c_eval.c:274:15
	ldr	r0, __arm_cp.8_0
	movs	r1, #1
	strb	r1, [r0]
	ldr	r0, __arm_cp.8_1
	ldr	r1, __arm_cp.8_2
.Ltmp30:
	.loc	2 275 17                @ ../Utilities/gd32e230c_eval.c:275:17
	bl	usart_interrupt_flag_get
.Ltmp31:
	.loc	2 275 8 is_stmt 0       @ ../Utilities/gd32e230c_eval.c:275:8
	cmp	r0, #0
	beq	.LBB8_4
	b	.LBB8_1
.LBB8_1:
	.loc	2 0 8                   @ ../Utilities/gd32e230c_eval.c:0:8
	ldr	r0, __arm_cp.8_1
	ldr	r1, __arm_cp.8_2
.Ltmp32:
	.loc	2 277 3 is_stmt 1       @ ../Utilities/gd32e230c_eval.c:277:3
	str	r0, [sp, #12]           @ 4-byte Spill
	bl	usart_interrupt_flag_clear
	.loc	2 279 8                 @ ../Utilities/gd32e230c_eval.c:279:8
	ldr	r0, [sp, #12]           @ 4-byte Reload
	bl	usart_data_receive
	.loc	2 279 6 is_stmt 0       @ ../Utilities/gd32e230c_eval.c:279:6
	ldr	r1, __arm_cp.8_3
	strb	r0, [r1]
	.loc	2 281 29 is_stmt 1      @ ../Utilities/gd32e230c_eval.c:281:29
	ldrb	r0, [r1]
	.loc	2 281 3 is_stmt 0       @ ../Utilities/gd32e230c_eval.c:281:3
	bl	MODBUS_ASCII_HandlRevData
.Ltmp33:
	.loc	2 283 12 is_stmt 1      @ ../Utilities/gd32e230c_eval.c:283:12
	ldr	r0, __arm_cp.8_4
	ldrb	r0, [r0]
.Ltmp34:
	.loc	2 283 12 is_stmt 0      @ ../Utilities/gd32e230c_eval.c:283:12
	lsrs	r0, r0, #3
	cmp	r0, #75
	blo	.LBB8_3
	b	.LBB8_2
.LBB8_2:
	.loc	2 0 12                  @ ../Utilities/gd32e230c_eval.c:0:12
	ldr	r0, __arm_cp.8_1
	movs	r1, #5
.Ltmp35:
	.loc	2 284 13 is_stmt 1      @ ../Utilities/gd32e230c_eval.c:284:13
	bl	usart_interrupt_disable
	.loc	2 285 9                 @ ../Utilities/gd32e230c_eval.c:285:9
	b	.LBB8_3
.Ltmp36:
.LBB8_3:
	.loc	2 287 5                 @ ../Utilities/gd32e230c_eval.c:287:5
	b	.LBB8_4
.Ltmp37:
.LBB8_4:
	.loc	2 0 5 is_stmt 0         @ ../Utilities/gd32e230c_eval.c:0:5
	ldr	r0, __arm_cp.8_1
	ldr	r1, __arm_cp.8_5
.Ltmp38:
	.loc	2 289 17 is_stmt 1      @ ../Utilities/gd32e230c_eval.c:289:17
	bl	usart_interrupt_flag_get
.Ltmp39:
	.loc	2 289 8 is_stmt 0       @ ../Utilities/gd32e230c_eval.c:289:8
	cmp	r0, #0
	beq	.LBB8_8
	b	.LBB8_5
.LBB8_5:
	.loc	2 0 8                   @ ../Utilities/gd32e230c_eval.c:0:8
	ldr	r0, __arm_cp.8_1
	ldr	r1, __arm_cp.8_5
.Ltmp40:
	.loc	2 291 3 is_stmt 1       @ ../Utilities/gd32e230c_eval.c:291:3
	str	r0, [sp, #8]            @ 4-byte Spill
	bl	usart_interrupt_flag_clear
	.loc	2 293 64                @ ../Utilities/gd32e230c_eval.c:293:64
	ldr	r0, __arm_cp.8_6
	ldrb	r1, [r0]
	adds	r2, r1, #1
	strb	r2, [r0]
	.loc	2 293 40 is_stmt 0      @ ../Utilities/gd32e230c_eval.c:293:40
	ldr	r2, __arm_cp.8_7
	ldrb	r1, [r2, r1]
	.loc	2 293 9                 @ ../Utilities/gd32e230c_eval.c:293:9
	ldr	r2, [sp, #8]            @ 4-byte Reload
	str	r0, [sp, #4]            @ 4-byte Spill
	mov	r0, r2
	bl	usart_data_transmit
	movs	r0, #2
	.loc	2 294 3 is_stmt 1       @ ../Utilities/gd32e230c_eval.c:294:3
	bl	Delayms
.Ltmp41:
	.loc	2 295 12                @ ../Utilities/gd32e230c_eval.c:295:12
	ldr	r0, __arm_cp.8_8
	ldrb	r0, [r0]
	.loc	2 295 25 is_stmt 0      @ ../Utilities/gd32e230c_eval.c:295:25
	ldr	r1, [sp, #4]            @ 4-byte Reload
	ldrb	r2, [r1]
.Ltmp42:
	.loc	2 295 12                @ ../Utilities/gd32e230c_eval.c:295:12
	cmp	r0, r2
	bgt	.LBB8_7
	b	.LBB8_6
.LBB8_6:
	.loc	2 0 12                  @ ../Utilities/gd32e230c_eval.c:0:12
	movs	r0, #9
	lsls	r0, r0, #27
	movs	r1, #16
.Ltmp43:
	.loc	2 296 4 is_stmt 1       @ ../Utilities/gd32e230c_eval.c:296:4
	bl	gpio_bit_reset
	ldr	r0, __arm_cp.8_1
	movs	r1, #7
	.loc	2 297 13                @ ../Utilities/gd32e230c_eval.c:297:13
	bl	usart_interrupt_disable
	.loc	2 298 4                 @ ../Utilities/gd32e230c_eval.c:298:4
	ldr	r0, __arm_cp.8_7
	movw	r1, #600
	bl	__aeabi_memclr
	.loc	2 299 14                @ ../Utilities/gd32e230c_eval.c:299:14
	ldr	r0, __arm_cp.8_8
	movs	r1, #0
	strb	r1, [r0]
	.loc	2 300 9                 @ ../Utilities/gd32e230c_eval.c:300:9
	b	.LBB8_7
.Ltmp44:
.LBB8_7:
	.loc	2 301 5                 @ ../Utilities/gd32e230c_eval.c:301:5
	b	.LBB8_8
.Ltmp45:
.LBB8_8:
	.loc	2 302 1                 @ ../Utilities/gd32e230c_eval.c:302:1
	add	sp, #16
	pop	{r7, pc}
.Ltmp46:
	.p2align	2
@ %bb.9:
	.loc	2 0 1 is_stmt 0         @ ../Utilities/gd32e230c_eval.c:0:1
__arm_cp.8_0:
	.long	UartRecvFlag
.Lcpi_end23:
	.size	__arm_cp.8_0, .Lcpi_end23-__arm_cp.8_0
__arm_cp.8_1:
	.long	1073759232              @ 0x40004400
.Lcpi_end24:
	.size	__arm_cp.8_1, .Lcpi_end24-__arm_cp.8_1
__arm_cp.8_2:
	.long	117768197               @ 0x7050005
.Lcpi_end25:
	.size	__arm_cp.8_2, .Lcpi_end25-__arm_cp.8_2
__arm_cp.8_3:
	.long	ch
.Lcpi_end26:
	.size	__arm_cp.8_3, .Lcpi_end26-__arm_cp.8_3
__arm_cp.8_4:
	.long	UARTx_RXBuffLen
.Lcpi_end27:
	.size	__arm_cp.8_4, .Lcpi_end27-__arm_cp.8_4
__arm_cp.8_5:
	.long	117899271               @ 0x7070007
.Lcpi_end28:
	.size	__arm_cp.8_5, .Lcpi_end28-__arm_cp.8_5
__arm_cp.8_6:
	.long	u8SendIndex
.Lcpi_end29:
	.size	__arm_cp.8_6, .Lcpi_end29-__arm_cp.8_6
__arm_cp.8_7:
	.long	UARTx_TXBUFF
.Lcpi_end30:
	.size	__arm_cp.8_7, .Lcpi_end30-__arm_cp.8_7
__arm_cp.8_8:
	.long	u8SendNum
.Lcpi_end31:
	.size	__arm_cp.8_8, .Lcpi_end31-__arm_cp.8_8
.Lfunc_end8:
	.size	USART1_IRQHandler, .Lfunc_end8-USART1_IRQHandler
	.cfi_endproc
	.cantunwind
	.fnend
                                        @ -- End function
	.section	.text.UARTx_SendData,"ax",%progbits
	.hidden	UARTx_SendData          @ -- Begin function UARTx_SendData
	.globl	UARTx_SendData
	.p2align	2
	.type	UARTx_SendData,%function
	.code	16                      @ @UARTx_SendData
	.thumb_func
UARTx_SendData:
.Lfunc_begin9:
	.loc	2 318 0 is_stmt 1       @ ../Utilities/gd32e230c_eval.c:318:0
	.fnstart
	.cfi_startproc
@ %bb.0:
	.save	{r7, lr}
	push	{r7, lr}
	.cfi_def_cfa_offset 8
	.cfi_offset lr, -4
	.cfi_offset r7, -8
	.pad	#24
	sub	sp, #24
	.cfi_def_cfa_offset 32
	str	r0, [sp, #16]
	str	r1, [sp, #12]
	movs	r0, #0
.Ltmp47:
	.loc	2 319 14 prologue_end   @ ../Utilities/gd32e230c_eval.c:319:14
	str	r0, [sp, #8]
.Ltmp48:
	.loc	2 321 15                @ ../Utilities/gd32e230c_eval.c:321:15
	ldr	r0, [sp, #12]
	.loc	2 321 20 is_stmt 0      @ ../Utilities/gd32e230c_eval.c:321:20
	cmp	r0, #0
	beq	.LBB9_2
	b	.LBB9_1
.LBB9_1:
	.loc	2 321 41                @ ../Utilities/gd32e230c_eval.c:321:41
	ldr	r0, [sp, #16]
.Ltmp49:
	.loc	2 321 9                 @ ../Utilities/gd32e230c_eval.c:321:9
	cmp	r0, #0
	bne	.LBB9_3
	b	.LBB9_2
.LBB9_2:
	.loc	2 0 9                   @ ../Utilities/gd32e230c_eval.c:0:9
	movs	r0, #0
.Ltmp50:
	.loc	2 322 9 is_stmt 1       @ ../Utilities/gd32e230c_eval.c:322:9
	str	r0, [sp, #20]
	b	.LBB9_12
.Ltmp51:
.LBB9_3:
	.loc	2 324 9                 @ ../Utilities/gd32e230c_eval.c:324:9
	ldr	r0, __arm_cp.9_0
	ldrb	r0, [r0]
.Ltmp52:
	.loc	2 324 9 is_stmt 0       @ ../Utilities/gd32e230c_eval.c:324:9
	cmp	r0, #0
	beq	.LBB9_5
	b	.LBB9_4
.LBB9_4:
	.loc	2 0 9                   @ ../Utilities/gd32e230c_eval.c:0:9
	movs	r0, #0
.Ltmp53:
	.loc	2 326 9 is_stmt 1       @ ../Utilities/gd32e230c_eval.c:326:9
	str	r0, [sp, #20]
	b	.LBB9_12
.Ltmp54:
.LBB9_5:
	.loc	2 329 9                 @ ../Utilities/gd32e230c_eval.c:329:9
	ldr	r0, [sp, #12]
	ldr	r1, __arm_cp.9_1
.Ltmp55:
	.loc	2 329 9 is_stmt 0       @ ../Utilities/gd32e230c_eval.c:329:9
	cmp	r0, r1
	blo	.LBB9_7
	b	.LBB9_6
.LBB9_6:
	.loc	2 0 9                   @ ../Utilities/gd32e230c_eval.c:0:9
	movw	r0, #600
.Ltmp56:
	.loc	2 331 13 is_stmt 1      @ ../Utilities/gd32e230c_eval.c:331:13
	str	r0, [sp, #12]
	.loc	2 332 5                 @ ../Utilities/gd32e230c_eval.c:332:5
	b	.LBB9_7
.Ltmp57:
.LBB9_7:
	.loc	2 0 5 is_stmt 0         @ ../Utilities/gd32e230c_eval.c:0:5
	movs	r0, #0
.Ltmp58:
	.loc	2 334 12 is_stmt 1      @ ../Utilities/gd32e230c_eval.c:334:12
	str	r0, [sp, #8]
	.loc	2 334 10 is_stmt 0      @ ../Utilities/gd32e230c_eval.c:334:10
	b	.LBB9_8
.LBB9_8:                                @ =>This Inner Loop Header: Depth=1
.Ltmp59:
	.loc	2 334 17                @ ../Utilities/gd32e230c_eval.c:334:17
	ldr	r0, [sp, #8]
	.loc	2 334 21                @ ../Utilities/gd32e230c_eval.c:334:21
	ldr	r1, [sp, #12]
.Ltmp60:
	.loc	2 334 5                 @ ../Utilities/gd32e230c_eval.c:334:5
	cmp	r0, r1
	bhs	.LBB9_11
	b	.LBB9_9
.LBB9_9:                                @   in Loop: Header=BB9_8 Depth=1
.Ltmp61:
	.loc	2 336 27 is_stmt 1      @ ../Utilities/gd32e230c_eval.c:336:27
	ldr	r0, [sp, #16]
	.loc	2 336 42 is_stmt 0      @ ../Utilities/gd32e230c_eval.c:336:42
	ldr	r1, [sp, #8]
	.loc	2 336 27                @ ../Utilities/gd32e230c_eval.c:336:27
	ldrb	r0, [r0, r1]
	.loc	2 336 9                 @ ../Utilities/gd32e230c_eval.c:336:9
	ldr	r2, __arm_cp.9_2
	.loc	2 336 25                @ ../Utilities/gd32e230c_eval.c:336:25
	strb	r0, [r2, r1]
	.loc	2 337 5 is_stmt 1       @ ../Utilities/gd32e230c_eval.c:337:5
	b	.LBB9_10
.Ltmp62:
.LBB9_10:                               @   in Loop: Header=BB9_8 Depth=1
	.loc	2 334 27                @ ../Utilities/gd32e230c_eval.c:334:27
	ldr	r0, [sp, #8]
	adds	r0, r0, #1
	str	r0, [sp, #8]
	.loc	2 334 5 is_stmt 0       @ ../Utilities/gd32e230c_eval.c:334:5
	b	.LBB9_8
.Ltmp63:
.LBB9_11:
	.loc	2 0 5                   @ ../Utilities/gd32e230c_eval.c:0:5
	movs	r0, #9
	lsls	r0, r0, #27
	movs	r1, #16
	.loc	2 340 2 is_stmt 1       @ ../Utilities/gd32e230c_eval.c:340:2
	bl	gpio_bit_set
	.loc	2 342 33                @ ../Utilities/gd32e230c_eval.c:342:33
	ldr	r0, __arm_cp.9_2
	ldrb	r1, [r0]
	ldr	r0, __arm_cp.9_3
	.loc	2 342 5 is_stmt 0       @ ../Utilities/gd32e230c_eval.c:342:5
	str	r0, [sp, #4]            @ 4-byte Spill
	bl	usart_data_transmit
	.loc	2 344 17 is_stmt 1      @ ../Utilities/gd32e230c_eval.c:344:17
	ldr	r0, __arm_cp.9_4
	movs	r1, #1
	strb	r1, [r0]
	.loc	2 345 17                @ ../Utilities/gd32e230c_eval.c:345:17
	ldr	r0, [sp, #12]
	.loc	2 345 15 is_stmt 0      @ ../Utilities/gd32e230c_eval.c:345:15
	ldr	r1, __arm_cp.9_0
	strb	r0, [r1]
	movs	r1, #7
	.loc	2 346 5 is_stmt 1       @ ../Utilities/gd32e230c_eval.c:346:5
	ldr	r0, [sp, #4]            @ 4-byte Reload
	bl	usart_interrupt_enable
	.loc	2 348 12                @ ../Utilities/gd32e230c_eval.c:348:12
	ldr	r0, [sp, #12]
	.loc	2 348 5 is_stmt 0       @ ../Utilities/gd32e230c_eval.c:348:5
	str	r0, [sp, #20]
	b	.LBB9_12
.LBB9_12:
	.loc	2 349 1 is_stmt 1       @ ../Utilities/gd32e230c_eval.c:349:1
	ldr	r0, [sp, #20]
	add	sp, #24
	pop	{r7, pc}
.Ltmp64:
	.p2align	2
@ %bb.13:
	.loc	2 0 1 is_stmt 0         @ ../Utilities/gd32e230c_eval.c:0:1
__arm_cp.9_0:
	.long	u8SendNum
.Lcpi_end32:
	.size	__arm_cp.9_0, .Lcpi_end32-__arm_cp.9_0
__arm_cp.9_1:
	.long	601                     @ 0x259
.Lcpi_end33:
	.size	__arm_cp.9_1, .Lcpi_end33-__arm_cp.9_1
__arm_cp.9_2:
	.long	UARTx_TXBUFF
.Lcpi_end34:
	.size	__arm_cp.9_2, .Lcpi_end34-__arm_cp.9_2
__arm_cp.9_3:
	.long	1073759232              @ 0x40004400
.Lcpi_end35:
	.size	__arm_cp.9_3, .Lcpi_end35-__arm_cp.9_3
__arm_cp.9_4:
	.long	u8SendIndex
.Lcpi_end36:
	.size	__arm_cp.9_4, .Lcpi_end36-__arm_cp.9_4
.Lfunc_end9:
	.size	UARTx_SendData, .Lfunc_end9-UARTx_SendData
	.cfi_endproc
	.cantunwind
	.fnend
                                        @ -- End function
	.hidden	UartRecvFlag            @ @UartRecvFlag
	.type	UartRecvFlag,%object
	.section	.bss.UartRecvFlag,"aw",%nobits
	.globl	UartRecvFlag
UartRecvFlag:
.LUartRecvFlag$local:
	.byte	0                       @ 0x0
	.size	UartRecvFlag, 1

	.type	GPIO_CLK,%object        @ @GPIO_CLK
	.section	.rodata.GPIO_CLK,"a",%progbits
	.p2align	1
GPIO_CLK:
	.short	1297                    @ 0x511
	.short	1297                    @ 0x511
	.short	1297                    @ 0x511
	.short	1297                    @ 0x511
	.size	GPIO_CLK, 8

	.type	GPIO_PORT,%object       @ @GPIO_PORT
	.section	.rodata.GPIO_PORT,"a",%progbits
	.p2align	2
GPIO_PORT:
	.long	1207959552              @ 0x48000000
	.long	1207959552              @ 0x48000000
	.long	1207959552              @ 0x48000000
	.long	1207959552              @ 0x48000000
	.size	GPIO_PORT, 16

	.type	GPIO_PIN,%object        @ @GPIO_PIN
	.section	.rodata.GPIO_PIN,"a",%progbits
	.p2align	2
GPIO_PIN:
	.long	256                     @ 0x100
	.long	2048                    @ 0x800
	.long	4096                    @ 0x1000
	.long	32768                   @ 0x8000
	.size	GPIO_PIN, 16

	.type	KEY_CLK,%object         @ @KEY_CLK
	.section	.rodata.KEY_CLK,"a",%progbits
	.p2align	1
KEY_CLK:
	.short	1297                    @ 0x511
	.short	1299                    @ 0x513
	.size	KEY_CLK, 4

	.type	KEY_PORT,%object        @ @KEY_PORT
	.section	.rodata.KEY_PORT,"a",%progbits
	.p2align	2
KEY_PORT:
	.long	1207959552              @ 0x48000000
	.long	1207961600              @ 0x48000800
	.size	KEY_PORT, 8

	.type	KEY_PIN,%object         @ @KEY_PIN
	.section	.rodata.KEY_PIN,"a",%progbits
	.p2align	2
KEY_PIN:
	.long	1                       @ 0x1
	.long	8192                    @ 0x2000
	.size	KEY_PIN, 8

	.type	KEY_IRQn,%object        @ @KEY_IRQn
	.section	.rodata.KEY_IRQn,"a",%progbits
KEY_IRQn:
	.ascii	"\005\007"
	.size	KEY_IRQn, 2

	.type	KEY_PORT_SOURCE,%object @ @KEY_PORT_SOURCE
	.section	.rodata.KEY_PORT_SOURCE,"a",%progbits
KEY_PORT_SOURCE:
	.ascii	"\000\002"
	.size	KEY_PORT_SOURCE, 2

	.type	KEY_PIN_SOURCE,%object  @ @KEY_PIN_SOURCE
	.section	.rodata.KEY_PIN_SOURCE,"a",%progbits
KEY_PIN_SOURCE:
	.ascii	"\000\r"
	.size	KEY_PIN_SOURCE, 2

	.type	KEY_EXTI_LINE,%object   @ @KEY_EXTI_LINE
	.section	.rodata.KEY_EXTI_LINE,"a",%progbits
	.p2align	2
KEY_EXTI_LINE:
	.long	1                       @ 0x1
	.long	8192                    @ 0x2000
	.size	KEY_EXTI_LINE, 8

	.type	COM_CLK,%object         @ @COM_CLK
	.section	.rodata.COM_CLK,"a",%progbits
	.p2align	1
COM_CLK:
	.short	1550                    @ 0x60e
	.size	COM_CLK, 2

	.type	COM_TX_PIN,%object      @ @COM_TX_PIN
	.section	.rodata.COM_TX_PIN,"a",%progbits
	.p2align	2
COM_TX_PIN:
	.long	512                     @ 0x200
	.size	COM_TX_PIN, 4

	.type	COM_RX_PIN,%object      @ @COM_RX_PIN
	.section	.rodata.COM_RX_PIN,"a",%progbits
	.p2align	2
COM_RX_PIN:
	.long	1024                    @ 0x400
	.size	COM_RX_PIN, 4

	.hidden	u8SendNum               @ @u8SendNum
	.type	u8SendNum,%object
	.section	.bss.u8SendNum,"aw",%nobits
	.globl	u8SendNum
u8SendNum:
.Lu8SendNum$local:
	.byte	0                       @ 0x0
	.size	u8SendNum, 1

	.hidden	u8SendIndex             @ @u8SendIndex
	.type	u8SendIndex,%object
	.section	.bss.u8SendIndex,"aw",%nobits
	.globl	u8SendIndex
u8SendIndex:
.Lu8SendIndex$local:
	.byte	0                       @ 0x0
	.size	u8SendIndex, 1

	.hidden	UARTx_RXBuffLen         @ @UARTx_RXBuffLen
	.type	UARTx_RXBuffLen,%object
	.section	.bss.UARTx_RXBuffLen,"aw",%nobits
	.globl	UARTx_RXBuffLen
UARTx_RXBuffLen:
.LUARTx_RXBuffLen$local:
	.byte	0                       @ 0x0
	.size	UARTx_RXBuffLen, 1

	.hidden	ch                      @ @ch
	.type	ch,%object
	.section	.bss.ch,"aw",%nobits
	.globl	ch
ch:
.Lch$local:
	.byte	0                       @ 0x0
	.size	ch, 1

	.hidden	UARTx_TXBUFF            @ @UARTx_TXBUFF
	.type	UARTx_TXBUFF,%object
	.section	.bss.UARTx_TXBUFF,"aw",%nobits
	.globl	UARTx_TXBUFF
UARTx_TXBUFF:
.LUARTx_TXBUFF$local:
	.zero	600
	.size	UARTx_TXBUFF, 600

	.hidden	UARTx_RXBuff            @ @UARTx_RXBuff
	.type	UARTx_RXBuff,%object
	.section	.bss.UARTx_RXBuff,"aw",%nobits
	.globl	UARTx_RXBuff
UARTx_RXBuff:
.LUARTx_RXBuff$local:
	.zero	600
	.size	UARTx_RXBuff, 600

	.section	".note.GNU-stack","",%progbits
	.eabi_attribute	30, 6	@ Tag_ABI_optimization_goals
	.ARM_attribute	16, 1	@ Tag_AV_eba