	.text
	.syntax unified
	.eabi_attribute	67, "2.09"	@ Tag_conformance
	.cpu	cortex-m23
	.eabi_attribute	6, 16	@ Tag_CPU_arch
	.eabi_attribute	7, 77	@ Tag_CPU_arch_profile
	.eabi_attribute	8, 0	@ Tag_ARM_ISA_use
	.eabi_attribute	9, 3	@ Tag_THUMB_ISA_use
	.eabi_attribute	34, 0	@ Tag_CPU_unaligned_access
	.eabi_attribute	17, 1	@ Tag_ABI_PCS_GOT_use
	.eabi_attribute	20, 2	@ Tag_ABI_FP_denormal
	.eabi_attribute	21, 0	@ Tag_ABI_FP_exceptions
	.eabi_attribute	23, 1	@ Tag_ABI_FP_number_model
	.eabi_attribute	24, 1	@ Tag_ABI_align_needed
	.eabi_attribute	25, 1	@ Tag_ABI_align_preserved
	.eabi_attribute	38, 1	@ Tag_ABI_FP_16bit_format
	.eabi_attribute	18, 2	@ Tag_ABI_PCS_wchar_t
	.eabi_attribute	26, 1	@ Tag_ABI_enum_size
	.eabi_attribute	14, 0	@ Tag_ABI_PCS_R9_use
	.file	"gd32e230_cmp.c"
	.file	1 "E:\\Soway\\Soway_product-soft\\105 - T119-GD\\E230 -  ds18b20-F8\\MDK-ARM" "../GD32E230_Firmware_Library/GD32E230_standard_peripheral/Include\\gd32e230_cmp.h"
	.file	2 "D:\\Keil_v5\\ARM\\ARMCLANG\\Bin\\..\\include" "stdint.h"
	.section	.text.cmp_deinit,"ax",%progbits
	.hidden	cmp_deinit              @ -- Begin function cmp_deinit
	.globl	cmp_deinit
	.p2align	2
	.type	cmp_deinit,%function
	.code	16                      @ @cmp_deinit
	.thumb_func
cmp_deinit:
.Lfunc_begin0:
	.file	3 "E:\\Soway\\Soway_product-soft\\105 - T119-GD\\E230 -  ds18b20-F8\\MDK-ARM" "../GD32E230_Firmware_Library/GD32E230_standard_peripheral/Source/gd32e230_cmp.c"
	.loc	3 46 0                  @ ../GD32E230_Firmware_Library/GD32E230_standard_peripheral/Source/gd32e230_cmp.c:46:0
	.fnstart
	.cfi_sections .debug_frame
	.cfi_startproc
@ %bb.0:
	ldr	r0, __arm_cp.0_0
	movs	r1, #0
.Ltmp0:
	.loc	3 47 12 prologue_end    @ ../GD32E230_Firmware_Library/GD32E230_standard_peripheral/Source/gd32e230_cmp.c:47:12
	str	r1, [r0]
	.loc	3 48 1                  @ ../GD32E230_Firmware_Library/GD32E230_standard_peripheral/Source/gd32e230_cmp.c:48:1
	bx	lr
.Ltmp1:
	.p2align	2
@ %bb.1:
	.loc	3 0 1 is_stmt 0         @ ../GD32E230_Firmware_Library/GD32E230_standard_peripheral/Source/gd32e230_cmp.c:0:1
__arm_cp.0_0:
	.long	1073807388              @ 0x4001001c
.Lcpi_end0:
	.size	__arm_cp.0_0, .Lcpi_end0-__arm_cp.0_0
.Lfunc_end0:
	.size	cmp_deinit, .Lfunc_end0-cmp_deinit
	.cfi_endproc
	.cantunwind
	.fnend
                                        @ -- End function
	.section	.text.cmp_mode_init,"ax",%progbits
	.hidden	cmp_mode_init           @ -- Begin function cmp_mode_init
	.globl	cmp_mode_init
	.p2align	2
	.type	cmp_mode_init,%function
	.code	16                      @ @cmp_mode_init
	.thumb_func
cmp_mode_init:
.Lfunc_begin1:
	.loc	3 75 0 is_stmt 1        @ ../GD32E230_Firmware_Library/GD32E230_standard_peripheral/Source/gd32e230_cmp.c:75:0
	.fnstart
	.cfi_startproc
@ %bb.0:
	.save	{r4, r5, r6, lr}
	push	{r4, r5, r6, lr}
	.cfi_def_cfa_offset 16
	.cfi_offset lr, -4
	.cfi_offset r6, -8
	.cfi_offset r5, -12
	.cfi_offset r4, -16
	.pad	#12
	sub	sp, #12
	.cfi_def_cfa_offset 28
	mov	r3, r2
	mov	r4, r1
	mov	r5, r0
	add	r6, sp, #8
	strb	r0, [r6]
	add	r0, sp, #4
	strb	r1, [r0]
	mov	r0, sp
	strb	r2, [r0]
.Ltmp2:
	.loc	3 77 15 prologue_end    @ ../GD32E230_Firmware_Library/GD32E230_standard_peripheral/Source/gd32e230_cmp.c:77:15
	ldr	r0, [sp, #8]
	lsls	r0, r0, #30
	lsrs	r0, r0, #28
	.loc	3 77 41 is_stmt 0       @ ../GD32E230_Firmware_Library/GD32E230_standard_peripheral/Source/gd32e230_cmp.c:77:41
	ldr	r1, [sp, #4]
	lsls	r1, r1, #29
	lsrs	r1, r1, #25
	.loc	3 77 39                 @ ../GD32E230_Firmware_Library/GD32E230_standard_peripheral/Source/gd32e230_cmp.c:77:39
	adds	r0, r0, r1
	.loc	3 77 71                 @ ../GD32E230_Firmware_Library/GD32E230_standard_peripheral/Source/gd32e230_cmp.c:77:71
	ldr	r1, [sp]
	lsls	r1, r1, #30
	lsrs	r1, r1, #18
	.loc	3 77 69                 @ ../GD32E230_Firmware_Library/GD32E230_standard_peripheral/Source/gd32e230_cmp.c:77:69
	adds	r0, r0, r1
	ldr	r1, __arm_cp.1_0
	.loc	3 77 12                 @ ../GD32E230_Firmware_Library/GD32E230_standard_peripheral/Source/gd32e230_cmp.c:77:12
	ldr	r2, [r1]
	orrs	r2, r0
	str	r2, [r1]
	.loc	3 79 1 is_stmt 1        @ ../GD32E230_Firmware_Library/GD32E230_standard_peripheral/Source/gd32e230_cmp.c:79:1
	add	sp, #12
	pop	{r4, r5, r6, pc}
.Ltmp3:
	.p2align	2
@ %bb.1:
	.loc	3 0 1 is_stmt 0         @ ../GD32E230_Firmware_Library/GD32E230_standard_peripheral/Source/gd32e230_cmp.c:0:1
__arm_cp.1_0:
	.long	1073807388              @ 0x4001001c
.Lcpi_end1:
	.size	__arm_cp.1_0, .Lcpi_end1-__arm_cp.1_0
.Lfunc_end1:
	.size	cmp_mode_init, .Lfunc_end1-cmp_mode_init
	.cfi_endproc
	.cantunwind
	.fnend
                                        @ -- End function
	.section	.text.cmp_output_init,"ax",%progbits
	.hidden	cmp_output_init         @ -- Begin function cmp_output_init
	.globl	cmp_output_init
	.p2align	2
	.type	cmp_output_init,%function
	.code	16                      @ @cmp_output_init
	.thumb_func
cmp_output_init:
.Lfunc_begin2:
	.loc	3 97 0 is_stmt 1        @ ../GD32E230_Firmware_Library/GD32E230_standard_peripheral/Source/gd32e230_cmp.c:97:0
	.fnstart
	.cfi_startproc
@ %bb.0:
	.pad	#8
	sub	sp, #8
	.cfi_def_cfa_offset 8
	mov	r2, r0
	add	r3, sp, #4
	strb	r0, [r3]
	str	r1, [sp]
.Ltmp4:
	.loc	3 100 15 prologue_end   @ ../GD32E230_Firmware_Library/GD32E230_standard_peripheral/Source/gd32e230_cmp.c:100:15
	ldr	r0, [sp, #4]
	lsls	r0, r0, #29
	lsrs	r0, r0, #21
	ldr	r1, __arm_cp.2_0
	.loc	3 100 12 is_stmt 0      @ ../GD32E230_Firmware_Library/GD32E230_standard_peripheral/Source/gd32e230_cmp.c:100:12
	ldr	r3, [r1]
	orrs	r3, r0
	str	r3, [r1]
.Ltmp5:
	.loc	3 102 40 is_stmt 1      @ ../GD32E230_Firmware_Library/GD32E230_standard_peripheral/Source/gd32e230_cmp.c:102:40
	ldr	r0, [sp]
.Ltmp6:
	.loc	3 102 8 is_stmt 0       @ ../GD32E230_Firmware_Library/GD32E230_standard_peripheral/Source/gd32e230_cmp.c:102:8
	cmp	r0, #1
	bne	.LBB2_2
	b	.LBB2_1
.LBB2_1:
	.loc	3 0 8                   @ ../GD32E230_Firmware_Library/GD32E230_standard_peripheral/Source/gd32e230_cmp.c:0:8
	ldr	r0, __arm_cp.2_0
.Ltmp7:
	.loc	3 103 17 is_stmt 1      @ ../GD32E230_Firmware_Library/GD32E230_standard_peripheral/Source/gd32e230_cmp.c:103:17
	ldr	r1, [r0]
	movw	r2, #2048
	orrs	r1, r2
	str	r1, [r0]
	.loc	3 104 5                 @ ../GD32E230_Firmware_Library/GD32E230_standard_peripheral/Source/gd32e230_cmp.c:104:5
	b	.LBB2_3
.Ltmp8:
.LBB2_2:
	.loc	3 0 5 is_stmt 0         @ ../GD32E230_Firmware_Library/GD32E230_standard_peripheral/Source/gd32e230_cmp.c:0:5
	ldr	r0, __arm_cp.2_0
.Ltmp9:
	.loc	3 105 17 is_stmt 1      @ ../GD32E230_Firmware_Library/GD32E230_standard_peripheral/Source/gd32e230_cmp.c:105:17
	ldr	r1, [r0]
	movw	r2, #2048
	bics	r1, r2
	str	r1, [r0]
	b	.LBB2_3
.Ltmp10:
.LBB2_3:
	.loc	3 108 1                 @ ../GD32E230_Firmware_Library/GD32E230_standard_peripheral/Source/gd32e230_cmp.c:108:1
	add	sp, #8
	bx	lr
.Ltmp11:
	.p2align	2
@ %bb.4:
	.loc	3 0 1 is_stmt 0         @ ../GD32E230_Firmware_Library/GD32E230_standard_peripheral/Source/gd32e230_cmp.c:0:1
__arm_cp.2_0:
	.long	1073807388              @ 0x4001001c
.Lcpi_end2:
	.size	__arm_cp.2_0, .Lcpi_end2-__arm_cp.2_0
.Lfunc_end2:
	.size	cmp_output_init, .Lfunc_end2-cmp_output_init
	.cfi_endproc
	.cantunwind
	.fnend
                                        @ -- End function
	.section	.text.cmp_enable,"ax",%progbits
	.hidden	cmp_enable              @ -- Begin function cmp_enable
	.globl	cmp_enable
	.p2align	2
	.type	cmp_enable,%function
	.code	16                      @ @cmp_enable
	.thumb_func
cmp_enable:
.Lfunc_begin3:
	.loc	3 117 0 is_stmt 1       @ ../GD32E230_Firmware_Library/GD32E230_standard_peripheral/Source/gd32e230_cmp.c:117:0
	.fnstart
	.cfi_startproc
@ %bb.0:
	ldr	r0, __arm_cp.3_0
.Ltmp12:
	.loc	3 118 12 prologue_end   @ ../GD32E230_Firmware_Library/GD32E230_standard_peripheral/Source/gd32e230_cmp.c:118:12
	ldr	r1, [r0]
	movs	r2, #1
	orrs	r1, r2
	str	r1, [r0]
	.loc	3 119 1                 @ ../GD32E230_Firmware_Library/GD32E230_standard_peripheral/Source/gd32e230_cmp.c:119:1
	bx	lr
.Ltmp13:
	.p2align	2
@ %bb.1:
	.loc	3 0 1 is_stmt 0         @ ../GD32E230_Firmware_Library/GD32E230_standard_peripheral/Source/gd32e230_cmp.c:0:1
__arm_cp.3_0:
	.long	1073807388              @ 0x4001001c
.Lcpi_end3:
	.size	__arm_cp.3_0, .Lcpi_end3-__arm_cp.3_0
.Lfunc_end3:
	.size	cmp_enable, .Lfunc_end3-cmp_enable
	.cfi_endproc
	.cantunwind
	.fnend
                                        @ -- End function
	.section	.text.cmp_disable,"ax",%progbits
	.hidden	cmp_disable             @ -- Begin function cmp_disable
	.globl	cmp_disable
	.p2align	2
	.type	cmp_disable,%function
	.code	16                      @ @cmp_disable
	.thumb_func
cmp_disable:
.Lfunc_begin4:
	.loc	3 128 0 is_stmt 1       @ ../GD32E230_Firmware_Library/GD32E230_standard_peripheral/Source/gd32e230_cmp.c:128:0
	.fnstart
	.cfi_startproc
@ %bb.0:
	ldr	r0, __arm_cp.4_0
.Ltmp14:
	.loc	3 129 12 prologue_end   @ ../GD32E230_Firmware_Library/GD32E230_standard_peripheral/Source/gd32e230_cmp.c:129:12
	ldr	r1, [r0]
	movs	r2, #1
	bics	r1, r2
	str	r1, [r0]
	.loc	3 130 1                 @ ../GD32E230_Firmware_Library/GD32E230_standard_peripheral/Source/gd32e230_cmp.c:130:1
	bx	lr
.Ltmp15:
	.p2align	2
@ %bb.1:
	.loc	3 0 1 is_stmt 0         @ ../GD32E230_Firmware_Library/GD32E230_standard_peripheral/Source/gd32e230_cmp.c:0:1
__arm_cp.4_0:
	.long	1073807388              @ 0x4001001c
.Lcpi_end4:
	.size	__arm_cp.4_0, .Lcpi_end4-__arm_cp.4_0
.Lfunc_end4:
	.size	cmp_disable, .Lfunc_end4-cmp_disable
	.cfi_endproc
	.cantunwind
	.fnend
                                        @ -- End function
	.section	.text.cmp_switch_enable,"ax",%progbits
	.hidden	cmp_switch_enable       @ -- Begin function cmp_switch_enable
	.globl	cmp_switch_enable
	.p2align	2
	.type	cmp_switch_enable,%function
	.code	16                      @ @cmp_switch_enable
	.thumb_func
cmp_switch_enable:
.Lfunc_begin5:
	.loc	3 139 0 is_stmt 1       @ ../GD32E230_Firmware_Library/GD32E230_standard_peripheral/Source/gd32e230_cmp.c:139:0
	.fnstart
	.cfi_startproc
@ %bb.0:
	ldr	r0, __arm_cp.5_0
.Ltmp16:
	.loc	3 140 12 prologue_end   @ ../GD32E230_Firmware_Library/GD32E230_standard_peripheral/Source/gd32e230_cmp.c:140:12
	ldr	r1, [r0]
	movs	r2, #2
	orrs	r1, r2
	str	r1, [r0]
	.loc	3 141 1                 @ ../GD32E230_Firmware_Library/GD32E230_standard_peripheral/Source/gd32e230_cmp.c:141:1
	bx	lr
.Ltmp17:
	.p2align	2
@ %bb.1:
	.loc	3 0 1 is_stmt 0         @ ../GD32E230_Firmware_Library/GD32E230_standard_peripheral/Source/gd32e230_cmp.c:0:1
__arm_cp.5_0:
	.long	1073807388              @ 0x4001001c
.Lcpi_end5:
	.size	__arm_cp.5_0, .Lcpi_end5-__arm_cp.5_0
.Lfunc_end5:
	.size	cmp_switch_enable, .Lfunc_end5-cmp_switch_enable
	.cfi_endproc
	.cantunwind
	.fnend
                                        @ -- End function
	.section	.text.cmp_switch_disable,"ax",%progbits
	.hidden	cmp_switch_disable      @ -- Begin function cmp_switch_disable
	.globl	cmp_switch_disable
	.p2align	2
	.type	cmp_switch_disable,%function
	.code	16                      @ @cmp_switch_disable
	.thumb_func
cmp_switch_disable:
.Lfunc_begin6:
	.loc	3 150 0 is_stmt 1       @ ../GD32E230_Firmware_Library/GD32E230_standard_peripheral/Source/gd32e230_cmp.c:150:0
	.fnstart
	.cfi_startproc
@ %bb.0:
	ldr	r0, __arm_cp.6_0
.Ltmp18:
	.loc	3 151 12 prologue_end   @ ../GD32E230_Firmware_Library/GD32E230_standard_peripheral/Source/gd32e230_cmp.c:151:12
	ldr	r1, [r0]
	movs	r2, #2
	bics	r1, r2
	str	r1, [r0]
	.loc	3 152 1                 @ ../GD32E230_Firmware_Library/GD32E230_standard_peripheral/Source/gd32e230_cmp.c:152:1
	bx	lr
.Ltmp19:
	.p2align	2
@ %bb.1:
	.loc	3 0 1 is_stmt 0         @ ../GD32E230_Firmware_Library/GD32E230_standard_peripheral/Source/gd32e230_cmp.c:0:1
__arm_cp.6_0:
	.long	1073807388              @ 0x4001001c
.Lcpi_end6:
	.size	__arm_cp.6_0, .Lcpi_end6-__arm_cp.6_0
.Lfunc_end6:
	.size	cmp_switch_disable, .Lfunc_end6-cmp_switch_disable
	.cfi_endproc
	.cantunwind
	.fnend
                                        @ -- End function
	.section	.text.cmp_output_level_get,"ax",%progbits
	.hidden	cmp_output_level_get    @ -- Begin function cmp_output_level_get
	.globl	cmp_output_level_get
	.p2align	2
	.type	cmp_output_level_get,%function
	.code	16                      @ @cmp_output_level_get
	.thumb_func
cmp_output_level_get:
.Lfunc_begin7:
	.loc	3 161 0 is_stmt 1       @ ../GD32E230_Firmware_Library/GD32E230_standard_peripheral/Source/gd32e230_cmp.c:161:0
	.fnstart
	.cfi_startproc
@ %bb.0:
	.pad	#4
	sub	sp, #4
	.cfi_def_cfa_offset 4
	ldr	r0, __arm_cp.7_0
.Ltmp20:
	.loc	3 162 8 prologue_end    @ ../GD32E230_Firmware_Library/GD32E230_standard_peripheral/Source/gd32e230_cmp.c:162:8
	ldr	r0, [r0]
.Ltmp21:
	.loc	3 162 8 is_stmt 0       @ ../GD32E230_Firmware_Library/GD32E230_standard_peripheral/Source/gd32e230_cmp.c:162:8
	lsls	r0, r0, #17
	cmp	r0, #0
	bpl	.LBB7_2
	b	.LBB7_1
.LBB7_1:
	.loc	3 0 8                   @ ../GD32E230_Firmware_Library/GD32E230_standard_peripheral/Source/gd32e230_cmp.c:0:8
	movs	r0, #1
.Ltmp22:
	.loc	3 163 9 is_stmt 1       @ ../GD32E230_Firmware_Library/GD32E230_standard_peripheral/Source/gd32e230_cmp.c:163:9
	str	r0, [sp]
	b	.LBB7_3
.Ltmp23:
.LBB7_2:
	.loc	3 0 9 is_stmt 0         @ ../GD32E230_Firmware_Library/GD32E230_standard_peripheral/Source/gd32e230_cmp.c:0:9
	movs	r0, #0
.Ltmp24:
	.loc	3 165 9 is_stmt 1       @ ../GD32E230_Firmware_Library/GD32E230_standard_peripheral/Source/gd32e230_cmp.c:165:9
	str	r0, [sp]
	b	.LBB7_3
.Ltmp25:
.LBB7_3:
	.loc	3 168 1                 @ ../GD32E230_Firmware_Library/GD32E230_standard_peripheral/Source/gd32e230_cmp.c:168:1
	ldr	r0, [sp]
	add	sp, #4
	bx	lr
.Ltmp26:
	.p2align	2
@ %bb.4:
	.loc	3 0 1 is_stmt 0         @ ../GD32E230_Firmware_Library/GD32E230_standard_peripheral/Source/gd32e230_cmp.c:0:1
__arm_cp.7_0:
	.long	1073807388              @ 0x4001001c
.Lcpi_end7:
	.size	__arm_cp.7_0, .Lcpi_end7-__arm_cp.7_0
.Lfunc_end7:
	.size	cmp_output_level_get, .Lfunc_end7-cmp_output_level_get
	.cfi_endproc
	.cantunwind
	.fnend
                                        @ -- End function
	.section	.text.cmp_lock_enable,"ax",%progbits
	.hidden	cmp_lock_enable         @ -- Begin function cmp_lock_enable
	.globl	cmp_lock_enable
	.p2align	2
	.type	cmp_lock_enable,%function
	.code	16                      @ @cmp_lock_enable
	.thumb_func
cmp_lock_enable:
.Lfunc_begin8:
	.loc	3 177 0 is_stmt 1       @ ../GD32E230_Firmware_Library/GD32E230_standard_peripheral/Source/gd32e230_cmp.c:177:0
	.fnstart
	.cfi_startproc
@ %bb.0:
	ldr	r0, __arm_cp.8_0
.Ltmp27:
	.loc	3 178 12 prologue_end   @ ../GD32E230_Firmware_Library/GD32E230_standard_peripheral/Source/gd32e230_cmp.c:178:12
	ldr	r1, [r0]
	movw	r2, #32768
	orrs	r1, r2
	str	r1, [r0]
	.loc	3 179 1                 @ ../GD32E230_Firmware_Library/GD32E230_standard_peripheral/Source/gd32e230_cmp.c:179:1
	bx	lr
.Ltmp28:
	.p2align	2
@ %bb.1:
	.loc	3 0 1 is_stmt 0         @ ../GD32E230_Firmware_Library/GD32E230_standard_peripheral/Source/gd32e230_cmp.c:0:1
__arm_cp.8_0:
	.long	1073807388              @ 0x4001001c
.Lcpi_end8:
	.size	__arm_cp.8_0, .Lcpi_end8-__arm_cp.8_0
.Lfunc_end8:
	.size	cmp_lock_enable, .Lfunc_end8-cmp_lock_enable
	.cfi_endproc
	.cantunwind
	.fnend
                                        @ -- End function
	.section	".note.GNU-stack","",%progbits
	.eabi_attribute	30, 6	@ Tag_ABI_optimization_goals
	.ARM_attribute	16, 1	@ Tag_AV_eba