	.text
	.syntax unified
	.eabi_attribute	67, "2.09"	@ Tag_conformance
	.cpu	cortex-m23
	.eabi_attribute	6, 16	@ Tag_CPU_arch
	.eabi_attribute	7, 77	@ Tag_CPU_arch_profile
	.eabi_attribute	8, 0	@ Tag_ARM_ISA_use
	.eabi_attribute	9, 3	@ Tag_THUMB_ISA_use
	.eabi_attribute	34, 0	@ Tag_CPU_unaligned_access
	.eabi_attribute	17, 1	@ Tag_ABI_PCS_GOT_use
	.eabi_attribute	20, 2	@ Tag_ABI_FP_denormal
	.eabi_attribute	21, 0	@ Tag_ABI_FP_exceptions
	.eabi_attribute	23, 1	@ Tag_ABI_FP_number_model
	.eabi_attribute	24, 1	@ Tag_ABI_align_needed
	.eabi_attribute	25, 1	@ Tag_ABI_align_preserved
	.eabi_attribute	38, 1	@ Tag_ABI_FP_16bit_format
	.eabi_attribute	18, 2	@ Tag_ABI_PCS_wchar_t
	.eabi_attribute	26, 1	@ Tag_ABI_enum_size
	.eabi_attribute	14, 0	@ Tag_ABI_PCS_R9_use
	.file	"gd32e230_exti.c"
	.file	1 "E:\\Soway\\Soway_product-soft\\105 - T119-GD\\E230 -  ds18b20-F8\\MDK-ARM" "../GD32E230_Firmware_Library/GD32E230_standard_peripheral/Include\\gd32e230_exti.h"
	.file	2 "E:\\Soway\\Soway_product-soft\\105 - T119-GD\\E230 -  ds18b20-F8\\MDK-ARM" "../GD32E230_Firmware_Library/CMSIS/GD/GD32E230/Include\\gd32e230.h"
	.file	3 "D:\\Keil_v5\\ARM\\ARMCLANG\\Bin\\..\\include" "stdint.h"
	.section	.text.exti_deinit,"ax",%progbits
	.hidden	exti_deinit             @ -- Begin function exti_deinit
	.globl	exti_deinit
	.p2align	2
	.type	exti_deinit,%function
	.code	16                      @ @exti_deinit
	.thumb_func
exti_deinit:
.Lfunc_begin0:
	.file	4 "E:\\Soway\\Soway_product-soft\\105 - T119-GD\\E230 -  ds18b20-F8\\MDK-ARM" "../GD32E230_Firmware_Library/GD32E230_standard_peripheral/Source/gd32e230_exti.c"
	.loc	4 46 0                  @ ../GD32E230_Firmware_Library/GD32E230_standard_peripheral/Source/gd32e230_exti.c:46:0
	.fnstart
	.cfi_sections .debug_frame
	.cfi_startproc
@ %bb.0:
	ldr	r0, __arm_cp.0_0
	ldr	r1, __arm_cp.0_1
.Ltmp0:
	.loc	4 48 16 prologue_end    @ ../GD32E230_Firmware_Library/GD32E230_standard_peripheral/Source/gd32e230_exti.c:48:16
	str	r1, [r0]
	ldr	r0, __arm_cp.0_2
	movs	r1, #0
	.loc	4 49 16                 @ ../GD32E230_Firmware_Library/GD32E230_standard_peripheral/Source/gd32e230_exti.c:49:16
	str	r1, [r0]
	ldr	r0, __arm_cp.0_3
	.loc	4 50 16                 @ ../GD32E230_Firmware_Library/GD32E230_standard_peripheral/Source/gd32e230_exti.c:50:16
	str	r1, [r0]
	ldr	r0, __arm_cp.0_4
	.loc	4 51 16                 @ ../GD32E230_Firmware_Library/GD32E230_standard_peripheral/Source/gd32e230_exti.c:51:16
	str	r1, [r0]
	ldr	r0, __arm_cp.0_5
	.loc	4 52 16                 @ ../GD32E230_Firmware_Library/GD32E230_standard_peripheral/Source/gd32e230_exti.c:52:16
	str	r1, [r0]
	.loc	4 53 1                  @ ../GD32E230_Firmware_Library/GD32E230_standard_peripheral/Source/gd32e230_exti.c:53:1
	bx	lr
.Ltmp1:
	.p2align	2
@ %bb.1:
	.loc	4 0 1 is_stmt 0         @ ../GD32E230_Firmware_Library/GD32E230_standard_peripheral/Source/gd32e230_exti.c:0:1
__arm_cp.0_0:
	.long	1073808384              @ 0x40010400
.Lcpi_end0:
	.size	__arm_cp.0_0, .Lcpi_end0-__arm_cp.0_0
__arm_cp.0_1:
	.long	261357568               @ 0xf940000
.Lcpi_end1:
	.size	__arm_cp.0_1, .Lcpi_end1-__arm_cp.0_1
__arm_cp.0_2:
	.long	1073808388              @ 0x40010404
.Lcpi_end2:
	.size	__arm_cp.0_2, .Lcpi_end2-__arm_cp.0_2
__arm_cp.0_3:
	.long	1073808392              @ 0x40010408
.Lcpi_end3:
	.size	__arm_cp.0_3, .Lcpi_end3-__arm_cp.0_3
__arm_cp.0_4:
	.long	1073808396              @ 0x4001040c
.Lcpi_end4:
	.size	__arm_cp.0_4, .Lcpi_end4-__arm_cp.0_4
__arm_cp.0_5:
	.long	1073808400              @ 0x40010410
.Lcpi_end5:
	.size	__arm_cp.0_5, .Lcpi_end5-__arm_cp.0_5
.Lfunc_end0:
	.size	exti_deinit, .Lfunc_end0-exti_deinit
	.cfi_endproc
	.cantunwind
	.fnend
                                        @ -- End function
	.section	.text.exti_init,"ax",%progbits
	.hidden	exti_init               @ -- Begin function exti_init
	.globl	exti_init
	.p2align	2
	.type	exti_init,%function
	.code	16                      @ @exti_init
	.thumb_func
exti_init:
.Lfunc_begin1:
	.loc	4 75 0 is_stmt 1        @ ../GD32E230_Firmware_Library/GD32E230_standard_peripheral/Source/gd32e230_exti.c:75:0
	.fnstart
	.cfi_startproc
@ %bb.0:
	.save	{r4, r5, r7, lr}
	push	{r4, r5, r7, lr}
	.cfi_def_cfa_offset 16
	.cfi_offset lr, -4
	.cfi_offset r7, -8
	.cfi_offset r5, -12
	.cfi_offset r4, -16
	.pad	#20
	sub	sp, #20
	.cfi_def_cfa_offset 36
	mov	r3, r2
	mov	r4, r1
	str	r0, [sp, #16]
	add	r0, sp, #12
	strb	r1, [r0]
	add	r1, sp, #8
	strb	r2, [r1]
.Ltmp2:
	.loc	4 77 30 prologue_end    @ ../GD32E230_Firmware_Library/GD32E230_standard_peripheral/Source/gd32e230_exti.c:77:30
	ldr	r1, [sp, #16]
	ldr	r2, __arm_cp.1_0
	.loc	4 77 16 is_stmt 0       @ ../GD32E230_Firmware_Library/GD32E230_standard_peripheral/Source/gd32e230_exti.c:77:16
	ldr	r5, [r2]
	bics	r5, r1
	str	r5, [r2]
	.loc	4 78 29 is_stmt 1       @ ../GD32E230_Firmware_Library/GD32E230_standard_peripheral/Source/gd32e230_exti.c:78:29
	ldr	r1, [sp, #16]
	ldr	r2, __arm_cp.1_1
	.loc	4 78 15 is_stmt 0       @ ../GD32E230_Firmware_Library/GD32E230_standard_peripheral/Source/gd32e230_exti.c:78:15
	ldr	r5, [r2]
	bics	r5, r1
	str	r5, [r2]
	.loc	4 79 29 is_stmt 1       @ ../GD32E230_Firmware_Library/GD32E230_standard_peripheral/Source/gd32e230_exti.c:79:29
	ldr	r1, [sp, #16]
	ldr	r2, __arm_cp.1_2
	.loc	4 79 15 is_stmt 0       @ ../GD32E230_Firmware_Library/GD32E230_standard_peripheral/Source/gd32e230_exti.c:79:15
	ldr	r5, [r2]
	bics	r5, r1
	str	r5, [r2]
	.loc	4 80 29 is_stmt 1       @ ../GD32E230_Firmware_Library/GD32E230_standard_peripheral/Source/gd32e230_exti.c:80:29
	ldr	r1, [sp, #16]
	ldr	r2, __arm_cp.1_3
	.loc	4 80 15 is_stmt 0       @ ../GD32E230_Firmware_Library/GD32E230_standard_peripheral/Source/gd32e230_exti.c:80:15
	ldr	r5, [r2]
	bics	r5, r1
	str	r5, [r2]
	.loc	4 83 12 is_stmt 1       @ ../GD32E230_Firmware_Library/GD32E230_standard_peripheral/Source/gd32e230_exti.c:83:12
	ldrb	r0, [r0]
	.loc	4 83 5 is_stmt 0        @ ../GD32E230_Firmware_Library/GD32E230_standard_peripheral/Source/gd32e230_exti.c:83:5
	cmp	r0, #0
	str	r0, [sp, #4]            @ 4-byte Spill
	beq	.LBB1_2
	b	.LBB1_1
.LBB1_1:
	ldr	r0, [sp, #4]            @ 4-byte Reload
	cmp	r0, #1
	beq	.LBB1_3
	b	.LBB1_4
.LBB1_2:
.Ltmp3:
	.loc	4 85 33 is_stmt 1       @ ../GD32E230_Firmware_Library/GD32E230_standard_peripheral/Source/gd32e230_exti.c:85:33
	ldr	r0, [sp, #16]
	ldr	r1, __arm_cp.1_0
	.loc	4 85 20 is_stmt 0       @ ../GD32E230_Firmware_Library/GD32E230_standard_peripheral/Source/gd32e230_exti.c:85:20
	ldr	r2, [r1]
	orrs	r2, r0
	str	r2, [r1]
	.loc	4 86 9 is_stmt 1        @ ../GD32E230_Firmware_Library/GD32E230_standard_peripheral/Source/gd32e230_exti.c:86:9
	b	.LBB1_5
.LBB1_3:
	.loc	4 88 32                 @ ../GD32E230_Firmware_Library/GD32E230_standard_peripheral/Source/gd32e230_exti.c:88:32
	ldr	r0, [sp, #16]
	ldr	r1, __arm_cp.1_1
	.loc	4 88 19 is_stmt 0       @ ../GD32E230_Firmware_Library/GD32E230_standard_peripheral/Source/gd32e230_exti.c:88:19
	ldr	r2, [r1]
	orrs	r2, r0
	str	r2, [r1]
	.loc	4 89 9 is_stmt 1        @ ../GD32E230_Firmware_Library/GD32E230_standard_peripheral/Source/gd32e230_exti.c:89:9
	b	.LBB1_5
.LBB1_4:
	.loc	4 91 9                  @ ../GD32E230_Firmware_Library/GD32E230_standard_peripheral/Source/gd32e230_exti.c:91:9
	b	.LBB1_5
.Ltmp4:
.LBB1_5:
	.loc	4 0 9 is_stmt 0         @ ../GD32E230_Firmware_Library/GD32E230_standard_peripheral/Source/gd32e230_exti.c:0:9
	add	r0, sp, #8
	.loc	4 95 12 is_stmt 1       @ ../GD32E230_Firmware_Library/GD32E230_standard_peripheral/Source/gd32e230_exti.c:95:12
	ldrb	r0, [r0]
	.loc	4 95 5 is_stmt 0        @ ../GD32E230_Firmware_Library/GD32E230_standard_peripheral/Source/gd32e230_exti.c:95:5
	cmp	r0, #0
	str	r0, [sp]                @ 4-byte Spill
	beq	.LBB1_8
	b	.LBB1_6
.LBB1_6:
	ldr	r0, [sp]                @ 4-byte Reload
	cmp	r0, #1
	beq	.LBB1_9
	b	.LBB1_7
.LBB1_7:
	ldr	r0, [sp]                @ 4-byte Reload
	cmp	r0, #2
	beq	.LBB1_10
	b	.LBB1_11
.LBB1_8:
.Ltmp5:
	.loc	4 97 32 is_stmt 1       @ ../GD32E230_Firmware_Library/GD32E230_standard_peripheral/Source/gd32e230_exti.c:97:32
	ldr	r0, [sp, #16]
	ldr	r1, __arm_cp.1_2
	.loc	4 97 19 is_stmt 0       @ ../GD32E230_Firmware_Library/GD32E230_standard_peripheral/Source/gd32e230_exti.c:97:19
	ldr	r2, [r1]
	orrs	r2, r0
	str	r2, [r1]
	.loc	4 98 33 is_stmt 1       @ ../GD32E230_Firmware_Library/GD32E230_standard_peripheral/Source/gd32e230_exti.c:98:33
	ldr	r0, [sp, #16]
	ldr	r1, __arm_cp.1_3
	.loc	4 98 19 is_stmt 0       @ ../GD32E230_Firmware_Library/GD32E230_standard_peripheral/Source/gd32e230_exti.c:98:19
	ldr	r2, [r1]
	bics	r2, r0
	str	r2, [r1]
	.loc	4 99 9 is_stmt 1        @ ../GD32E230_Firmware_Library/GD32E230_standard_peripheral/Source/gd32e230_exti.c:99:9
	b	.LBB1_12
.LBB1_9:
	.loc	4 101 33                @ ../GD32E230_Firmware_Library/GD32E230_standard_peripheral/Source/gd32e230_exti.c:101:33
	ldr	r0, [sp, #16]
	ldr	r1, __arm_cp.1_2
	.loc	4 101 19 is_stmt 0      @ ../GD32E230_Firmware_Library/GD32E230_standard_peripheral/Source/gd32e230_exti.c:101:19
	ldr	r2, [r1]
	bics	r2, r0
	str	r2, [r1]
	.loc	4 102 32 is_stmt 1      @ ../GD32E230_Firmware_Library/GD32E230_standard_peripheral/Source/gd32e230_exti.c:102:32
	ldr	r0, [sp, #16]
	ldr	r1, __arm_cp.1_3
	.loc	4 102 19 is_stmt 0      @ ../GD32E230_Firmware_Library/GD32E230_standard_peripheral/Source/gd32e230_exti.c:102:19
	ldr	r2, [r1]
	orrs	r2, r0
	str	r2, [r1]
	.loc	4 103 9 is_stmt 1       @ ../GD32E230_Firmware_Library/GD32E230_standard_peripheral/Source/gd32e230_exti.c:103:9
	b	.LBB1_12
.LBB1_10:
	.loc	4 105 32                @ ../GD32E230_Firmware_Library/GD32E230_standard_peripheral/Source/gd32e230_exti.c:105:32
	ldr	r0, [sp, #16]
	ldr	r1, __arm_cp.1_2
	.loc	4 105 19 is_stmt 0      @ ../GD32E230_Firmware_Library/GD32E230_standard_peripheral/Source/gd32e230_exti.c:105:19
	ldr	r2, [r1]
	orrs	r2, r0
	str	r2, [r1]
	.loc	4 106 32 is_stmt 1      @ ../GD32E230_Firmware_Library/GD32E230_standard_peripheral/Source/gd32e230_exti.c:106:32
	ldr	r0, [sp, #16]
	ldr	r1, __arm_cp.1_3
	.loc	4 106 19 is_stmt 0      @ ../GD32E230_Firmware_Library/GD32E230_standard_peripheral/Source/gd32e230_exti.c:106:19
	ldr	r2, [r1]
	orrs	r2, r0
	str	r2, [r1]
	.loc	4 107 9 is_stmt 1       @ ../GD32E230_Firmware_Library/GD32E230_standard_peripheral/Source/gd32e230_exti.c:107:9
	b	.LBB1_12
.LBB1_11:
	.loc	4 109 9                 @ ../GD32E230_Firmware_Library/GD32E230_standard_peripheral/Source/gd32e230_exti.c:109:9
	b	.LBB1_12
.Ltmp6:
.LBB1_12:
	.loc	4 111 1                 @ ../GD32E230_Firmware_Library/GD32E230_standard_peripheral/Source/gd32e230_exti.c:111:1
	add	sp, #20
	pop	{r4, r5, r7, pc}
.Ltmp7:
	.p2align	2
@ %bb.13:
	.loc	4 0 1 is_stmt 0         @ ../GD32E230_Firmware_Library/GD32E230_standard_peripheral/Source/gd32e230_exti.c:0:1
__arm_cp.1_0:
	.long	1073808384              @ 0x40010400
.Lcpi_end6:
	.size	__arm_cp.1_0, .Lcpi_end6-__arm_cp.1_0
__arm_cp.1_1:
	.long	1073808388              @ 0x40010404
.Lcpi_end7:
	.size	__arm_cp.1_1, .Lcpi_end7-__arm_cp.1_1
__arm_cp.1_2:
	.long	1073808392              @ 0x40010408
.Lcpi_end8:
	.size	__arm_cp.1_2, .Lcpi_end8-__arm_cp.1_2
__arm_cp.1_3:
	.long	1073808396              @ 0x4001040c
.Lcpi_end9:
	.size	__arm_cp.1_3, .Lcpi_end9-__arm_cp.1_3
.Lfunc_end1:
	.size	exti_init, .Lfunc_end1-exti_init
	.cfi_endproc
	.cantunwind
	.fnend
                                        @ -- End function
	.section	.text.exti_interrupt_enable,"ax",%progbits
	.hidden	exti_interrupt_enable   @ -- Begin function exti_interrupt_enable
	.globl	exti_interrupt_enable
	.p2align	2
	.type	exti_interrupt_enable,%function
	.code	16                      @ @exti_interrupt_enable
	.thumb_func
exti_interrupt_enable:
.Lfunc_begin2:
	.loc	4 122 0 is_stmt 1       @ ../GD32E230_Firmware_Library/GD32E230_standard_peripheral/Source/gd32e230_exti.c:122:0
	.fnstart
	.cfi_startproc
@ %bb.0:
	.pad	#4
	sub	sp, #4
	.cfi_def_cfa_offset 4
	str	r0, [sp]
.Ltmp8:
	.loc	4 123 29 prologue_end   @ ../GD32E230_Firmware_Library/GD32E230_standard_peripheral/Source/gd32e230_exti.c:123:29
	ldr	r0, [sp]
	ldr	r1, __arm_cp.2_0
	.loc	4 123 16 is_stmt 0      @ ../GD32E230_Firmware_Library/GD32E230_standard_peripheral/Source/gd32e230_exti.c:123:16
	ldr	r2, [r1]
	orrs	r2, r0
	str	r2, [r1]
	.loc	4 124 1 is_stmt 1       @ ../GD32E230_Firmware_Library/GD32E230_standard_peripheral/Source/gd32e230_exti.c:124:1
	add	sp, #4
	bx	lr
.Ltmp9:
	.p2align	2
@ %bb.1:
	.loc	4 0 1 is_stmt 0         @ ../GD32E230_Firmware_Library/GD32E230_standard_peripheral/Source/gd32e230_exti.c:0:1
__arm_cp.2_0:
	.long	1073808384              @ 0x40010400
.Lcpi_end10:
	.size	__arm_cp.2_0, .Lcpi_end10-__arm_cp.2_0
.Lfunc_end2:
	.size	exti_interrupt_enable, .Lfunc_end2-exti_interrupt_enable
	.cfi_endproc
	.cantunwind
	.fnend
                                        @ -- End function
	.section	.text.exti_event_enable,"ax",%progbits
	.hidden	exti_event_enable       @ -- Begin function exti_event_enable
	.globl	exti_event_enable
	.p2align	2
	.type	exti_event_enable,%function
	.code	16                      @ @exti_event_enable
	.thumb_func
exti_event_enable:
.Lfunc_begin3:
	.loc	4 135 0 is_stmt 1       @ ../GD32E230_Firmware_Library/GD32E230_standard_peripheral/Source/gd32e230_exti.c:135:0
	.fnstart
	.cfi_startproc
@ %bb.0:
	.pad	#4
	sub	sp, #4
	.cfi_def_cfa_offset 4
	str	r0, [sp]
.Ltmp10:
	.loc	4 136 28 prologue_end   @ ../GD32E230_Firmware_Library/GD32E230_standard_peripheral/Source/gd32e230_exti.c:136:28
	ldr	r0, [sp]
	ldr	r1, __arm_cp.3_0
	.loc	4 136 15 is_stmt 0      @ ../GD32E230_Firmware_Library/GD32E230_standard_peripheral/Source/gd32e230_exti.c:136:15
	ldr	r2, [r1]
	orrs	r2, r0
	str	r2, [r1]
	.loc	4 137 1 is_stmt 1       @ ../GD32E230_Firmware_Library/GD32E230_standard_peripheral/Source/gd32e230_exti.c:137:1
	add	sp, #4
	bx	lr
.Ltmp11:
	.p2align	2
@ %bb.1:
	.loc	4 0 1 is_stmt 0         @ ../GD32E230_Firmware_Library/GD32E230_standard_peripheral/Source/gd32e230_exti.c:0:1
__arm_cp.3_0:
	.long	1073808388              @ 0x40010404
.Lcpi_end11:
	.size	__arm_cp.3_0, .Lcpi_end11-__arm_cp.3_0
.Lfunc_end3:
	.size	exti_event_enable, .Lfunc_end3-exti_event_enable
	.cfi_endproc
	.cantunwind
	.fnend
                                        @ -- End function
	.section	.text.exti_interrupt_disable,"ax",%progbits
	.hidden	exti_interrupt_disable  @ -- Begin function exti_interrupt_disable
	.globl	exti_interrupt_disable
	.p2align	2
	.type	exti_interrupt_disable,%function
	.code	16                      @ @exti_interrupt_disable
	.thumb_func
exti_interrupt_disable:
.Lfunc_begin4:
	.loc	4 148 0 is_stmt 1       @ ../GD32E230_Firmware_Library/GD32E230_standard_peripheral/Source/gd32e230_exti.c:148:0
	.fnstart
	.cfi_startproc
@ %bb.0:
	.pad	#4
	sub	sp, #4
	.cfi_def_cfa_offset 4
	str	r0, [sp]
.Ltmp12:
	.loc	4 149 30 prologue_end   @ ../GD32E230_Firmware_Library/GD32E230_standard_peripheral/Source/gd32e230_exti.c:149:30
	ldr	r0, [sp]
	ldr	r1, __arm_cp.4_0
	.loc	4 149 16 is_stmt 0      @ ../GD32E230_Firmware_Library/GD32E230_standard_peripheral/Source/gd32e230_exti.c:149:16
	ldr	r2, [r1]
	bics	r2, r0
	str	r2, [r1]
	.loc	4 150 1 is_stmt 1       @ ../GD32E230_Firmware_Library/GD32E230_standard_peripheral/Source/gd32e230_exti.c:150:1
	add	sp, #4
	bx	lr
.Ltmp13:
	.p2align	2
@ %bb.1:
	.loc	4 0 1 is_stmt 0         @ ../GD32E230_Firmware_Library/GD32E230_standard_peripheral/Source/gd32e230_exti.c:0:1
__arm_cp.4_0:
	.long	1073808384              @ 0x40010400
.Lcpi_end12:
	.size	__arm_cp.4_0, .Lcpi_end12-__arm_cp.4_0
.Lfunc_end4:
	.size	exti_interrupt_disable, .Lfunc_end4-exti_interrupt_disable
	.cfi_endproc
	.cantunwind
	.fnend
                                        @ -- End function
	.section	.text.exti_event_disable,"ax",%progbits
	.hidden	exti_event_disable      @ -- Begin function exti_event_disable
	.globl	exti_event_disable
	.p2align	2
	.type	exti_event_disable,%function
	.code	16                      @ @exti_event_disable
	.thumb_func
exti_event_disable:
.Lfunc_begin5:
	.loc	4 161 0 is_stmt 1       @ ../GD32E230_Firmware_Library/GD32E230_standard_peripheral/Source/gd32e230_exti.c:161:0
	.fnstart
	.cfi_startproc
@ %bb.0:
	.pad	#4
	sub	sp, #4
	.cfi_def_cfa_offset 4
	str	r0, [sp]
.Ltmp14:
	.loc	4 162 29 prologue_end   @ ../GD32E230_Firmware_Library/GD32E230_standard_peripheral/Source/gd32e230_exti.c:162:29
	ldr	r0, [sp]
	ldr	r1, __arm_cp.5_0
	.loc	4 162 15 is_stmt 0      @ ../GD32E230_Firmware_Library/GD32E230_standard_peripheral/Source/gd32e230_exti.c:162:15
	ldr	r2, [r1]
	bics	r2, r0
	str	r2, [r1]
	.loc	4 163 1 is_stmt 1       @ ../GD32E230_Firmware_Library/GD32E230_standard_peripheral/Source/gd32e230_exti.c:163:1
	add	sp, #4
	bx	lr
.Ltmp15:
	.p2align	2
@ %bb.1:
	.loc	4 0 1 is_stmt 0         @ ../GD32E230_Firmware_Library/GD32E230_standard_peripheral/Source/gd32e230_exti.c:0:1
__arm_cp.5_0:
	.long	1073808388              @ 0x40010404
.Lcpi_end13:
	.size	__arm_cp.5_0, .Lcpi_end13-__arm_cp.5_0
.Lfunc_end5:
	.size	exti_event_disable, .Lfunc_end5-exti_event_disable
	.cfi_endproc
	.cantunwind
	.fnend
                                        @ -- End function
	.section	.text.exti_flag_get,"ax",%progbits
	.hidden	exti_flag_get           @ -- Begin function exti_flag_get
	.globl	exti_flag_get
	.p2align	2
	.type	exti_flag_get,%function
	.code	16                      @ @exti_flag_get
	.thumb_func
exti_flag_get:
.Lfunc_begin6:
	.loc	4 174 0 is_stmt 1       @ ../GD32E230_Firmware_Library/GD32E230_standard_peripheral/Source/gd32e230_exti.c:174:0
	.fnstart
	.cfi_startproc
@ %bb.0:
	.pad	#8
	sub	sp, #8
	.cfi_def_cfa_offset 8
	str	r0, [sp]
	ldr	r0, __arm_cp.6_0
.Ltmp16:
	.loc	4 175 18 prologue_end   @ ../GD32E230_Firmware_Library/GD32E230_standard_peripheral/Source/gd32e230_exti.c:175:18
	ldr	r0, [r0]
	.loc	4 175 38 is_stmt 0      @ ../GD32E230_Firmware_Library/GD32E230_standard_peripheral/Source/gd32e230_exti.c:175:38
	ldr	r1, [sp]
.Ltmp17:
	.loc	4 175 8                 @ ../GD32E230_Firmware_Library/GD32E230_standard_peripheral/Source/gd32e230_exti.c:175:8
	tst	r0, r1
	beq	.LBB6_2
	b	.LBB6_1
.LBB6_1:
	.loc	4 0 8                   @ ../GD32E230_Firmware_Library/GD32E230_standard_peripheral/Source/gd32e230_exti.c:0:8
	add	r0, sp, #4
	movs	r1, #1
.Ltmp18:
	.loc	4 176 9 is_stmt 1       @ ../GD32E230_Firmware_Library/GD32E230_standard_peripheral/Source/gd32e230_exti.c:176:9
	strb	r1, [r0]
	b	.LBB6_3
.Ltmp19:
.LBB6_2:
	.loc	4 0 9 is_stmt 0         @ ../GD32E230_Firmware_Library/GD32E230_standard_peripheral/Source/gd32e230_exti.c:0:9
	add	r0, sp, #4
	movs	r1, #0
.Ltmp20:
	.loc	4 178 9 is_stmt 1       @ ../GD32E230_Firmware_Library/GD32E230_standard_peripheral/Source/gd32e230_exti.c:178:9
	strb	r1, [r0]
	b	.LBB6_3
.Ltmp21:
.LBB6_3:
	.loc	4 0 9 is_stmt 0         @ ../GD32E230_Firmware_Library/GD32E230_standard_peripheral/Source/gd32e230_exti.c:0:9
	add	r0, sp, #4
	.loc	4 180 1 is_stmt 1       @ ../GD32E230_Firmware_Library/GD32E230_standard_peripheral/Source/gd32e230_exti.c:180:1
	ldrb	r0, [r0]
	add	sp, #8
	bx	lr
.Ltmp22:
	.p2align	2
@ %bb.4:
	.loc	4 0 1 is_stmt 0         @ ../GD32E230_Firmware_Library/GD32E230_standard_peripheral/Source/gd32e230_exti.c:0:1
__arm_cp.6_0:
	.long	1073808404              @ 0x40010414
.Lcpi_end14:
	.size	__arm_cp.6_0, .Lcpi_end14-__arm_cp.6_0
.Lfunc_end6:
	.size	exti_flag_get, .Lfunc_end6-exti_flag_get
	.cfi_endproc
	.cantunwind
	.fnend
                                        @ -- End function
	.section	.text.exti_flag_clear,"ax",%progbits
	.hidden	exti_flag_clear         @ -- Begin function exti_flag_clear
	.globl	exti_flag_clear
	.p2align	2
	.type	exti_flag_clear,%function
	.code	16                      @ @exti_flag_clear
	.thumb_func
exti_flag_clear:
.Lfunc_begin7:
	.loc	4 191 0 is_stmt 1       @ ../GD32E230_Firmware_Library/GD32E230_standard_peripheral/Source/gd32e230_exti.c:191:0
	.fnstart
	.cfi_startproc
@ %bb.0:
	.pad	#4
	sub	sp, #4
	.cfi_def_cfa_offset 4
	str	r0, [sp]
.Ltmp23:
	.loc	4 192 25 prologue_end   @ ../GD32E230_Firmware_Library/GD32E230_standard_peripheral/Source/gd32e230_exti.c:192:25
	ldr	r0, [sp]
	ldr	r1, __arm_cp.7_0
	.loc	4 192 13 is_stmt 0      @ ../GD32E230_Firmware_Library/GD32E230_standard_peripheral/Source/gd32e230_exti.c:192:13
	str	r0, [r1]
	.loc	4 193 1 is_stmt 1       @ ../GD32E230_Firmware_Library/GD32E230_standard_peripheral/Source/gd32e230_exti.c:193:1
	add	sp, #4
	bx	lr
.Ltmp24:
	.p2align	2
@ %bb.1:
	.loc	4 0 1 is_stmt 0         @ ../GD32E230_Firmware_Library/GD32E230_standard_peripheral/Source/gd32e230_exti.c:0:1
__arm_cp.7_0:
	.long	1073808404              @ 0x40010414
.Lcpi_end15:
	.size	__arm_cp.7_0, .Lcpi_end15-__arm_cp.7_0
.Lfunc_end7:
	.size	exti_flag_clear, .Lfunc_end7-exti_flag_clear
	.cfi_endproc
	.cantunwind
	.fnend
                                        @ -- End function
	.section	.text.exti_interrupt_flag_get,"ax",%progbits
	.hidden	exti_interrupt_flag_get @ -- Begin function exti_interrupt_flag_get
	.globl	exti_interrupt_flag_get
	.p2align	2
	.type	exti_interrupt_flag_get,%function
	.code	16                      @ @exti_interrupt_flag_get
	.thumb_func
exti_interrupt_flag_get:
.Lfunc_begin8:
	.loc	4 204 0 is_stmt 1       @ ../GD32E230_Firmware_Library/GD32E230_standard_peripheral/Source/gd32e230_exti.c:204:0
	.fnstart
	.cfi_startproc
@ %bb.0:
	.pad	#16
	sub	sp, #16
	.cfi_def_cfa_offset 16
	str	r0, [sp, #8]
	ldr	r0, __arm_cp.8_0
.Ltmp25:
	.loc	4 207 17 prologue_end   @ ../GD32E230_Firmware_Library/GD32E230_standard_peripheral/Source/gd32e230_exti.c:207:17
	ldr	r0, [r0]
	.loc	4 207 37 is_stmt 0      @ ../GD32E230_Firmware_Library/GD32E230_standard_peripheral/Source/gd32e230_exti.c:207:37
	ldr	r1, [sp, #8]
	.loc	4 207 25                @ ../GD32E230_Firmware_Library/GD32E230_standard_peripheral/Source/gd32e230_exti.c:207:25
	ands	r0, r1
	.loc	4 207 15                @ ../GD32E230_Firmware_Library/GD32E230_standard_peripheral/Source/gd32e230_exti.c:207:15
	str	r0, [sp, #4]
	ldr	r0, __arm_cp.8_1
	.loc	4 208 18 is_stmt 1      @ ../GD32E230_Firmware_Library/GD32E230_standard_peripheral/Source/gd32e230_exti.c:208:18
	ldr	r0, [r0]
	.loc	4 208 41 is_stmt 0      @ ../GD32E230_Firmware_Library/GD32E230_standard_peripheral/Source/gd32e230_exti.c:208:41
	ldr	r1, [sp, #8]
	.loc	4 208 29                @ ../GD32E230_Firmware_Library/GD32E230_standard_peripheral/Source/gd32e230_exti.c:208:29
	ands	r0, r1
	.loc	4 208 16                @ ../GD32E230_Firmware_Library/GD32E230_standard_peripheral/Source/gd32e230_exti.c:208:16
	str	r0, [sp]
.Ltmp26:
	.loc	4 210 18 is_stmt 1      @ ../GD32E230_Firmware_Library/GD32E230_standard_peripheral/Source/gd32e230_exti.c:210:18
	ldr	r0, [sp, #4]
	.loc	4 210 29 is_stmt 0      @ ../GD32E230_Firmware_Library/GD32E230_standard_peripheral/Source/gd32e230_exti.c:210:29
	cmp	r0, #0
	beq	.LBB8_3
	b	.LBB8_1
.LBB8_1:
	.loc	4 210 42                @ ../GD32E230_Firmware_Library/GD32E230_standard_peripheral/Source/gd32e230_exti.c:210:42
	ldr	r0, [sp]
.Ltmp27:
	.loc	4 210 8                 @ ../GD32E230_Firmware_Library/GD32E230_standard_peripheral/Source/gd32e230_exti.c:210:8
	cmp	r0, #0
	beq	.LBB8_3
	b	.LBB8_2
.LBB8_2:
	.loc	4 0 8                   @ ../GD32E230_Firmware_Library/GD32E230_standard_peripheral/Source/gd32e230_exti.c:0:8
	add	r0, sp, #12
	movs	r1, #1
.Ltmp28:
	.loc	4 211 9 is_stmt 1       @ ../GD32E230_Firmware_Library/GD32E230_standard_peripheral/Source/gd32e230_exti.c:211:9
	strb	r1, [r0]
	b	.LBB8_4
.Ltmp29:
.LBB8_3:
	.loc	4 0 9 is_stmt 0         @ ../GD32E230_Firmware_Library/GD32E230_standard_peripheral/Source/gd32e230_exti.c:0:9
	add	r0, sp, #12
	movs	r1, #0
.Ltmp30:
	.loc	4 213 9 is_stmt 1       @ ../GD32E230_Firmware_Library/GD32E230_standard_peripheral/Source/gd32e230_exti.c:213:9
	strb	r1, [r0]
	b	.LBB8_4
.Ltmp31:
.LBB8_4:
	.loc	4 0 9 is_stmt 0         @ ../GD32E230_Firmware_Library/GD32E230_standard_peripheral/Source/gd32e230_exti.c:0:9
	add	r0, sp, #12
	.loc	4 215 1 is_stmt 1       @ ../GD32E230_Firmware_Library/GD32E230_standard_peripheral/Source/gd32e230_exti.c:215:1
	ldrb	r0, [r0]
	add	sp, #16
	bx	lr
.Ltmp32:
	.p2align	2
@ %bb.5:
	.loc	4 0 1 is_stmt 0         @ ../GD32E230_Firmware_Library/GD32E230_standard_peripheral/Source/gd32e230_exti.c:0:1
__arm_cp.8_0:
	.long	1073808404              @ 0x40010414
.Lcpi_end16:
	.size	__arm_cp.8_0, .Lcpi_end16-__arm_cp.8_0
__arm_cp.8_1:
	.long	1073808384              @ 0x40010400
.Lcpi_end17:
	.size	__arm_cp.8_1, .Lcpi_end17-__arm_cp.8_1
.Lfunc_end8:
	.size	exti_interrupt_flag_get, .Lfunc_end8-exti_interrupt_flag_get
	.cfi_endproc
	.cantunwind
	.fnend
                                        @ -- End function
	.section	.text.exti_interrupt_flag_clear,"ax",%progbits
	.hidden	exti_interrupt_flag_clear @ -- Begin function exti_interrupt_flag_clear
	.globl	exti_interrupt_flag_clear
	.p2align	2
	.type	exti_interrupt_flag_clear,%function
	.code	16                      @ @exti_interrupt_flag_clear
	.thumb_func
exti_interrupt_flag_clear:
.Lfunc_begin9:
	.loc	4 226 0 is_stmt 1       @ ../GD32E230_Firmware_Library/GD32E230_standard_peripheral/Source/gd32e230_exti.c:226:0
	.fnstart
	.cfi_startproc
@ %bb.0:
	.pad	#4
	sub	sp, #4
	.cfi_def_cfa_offset 4
	str	r0, [sp]
.Ltmp33:
	.loc	4 227 25 prologue_end   @ ../GD32E230_Firmware_Library/GD32E230_standard_peripheral/Source/gd32e230_exti.c:227:25
	ldr	r0, [sp]
	ldr	r1, __arm_cp.9_0
	.loc	4 227 13 is_stmt 0      @ ../GD32E230_Firmware_Library/GD32E230_standard_peripheral/Source/gd32e230_exti.c:227:13
	str	r0, [r1]
	.loc	4 228 1 is_stmt 1       @ ../GD32E230_Firmware_Library/GD32E230_standard_peripheral/Source/gd32e230_exti.c:228:1
	add	sp, #4
	bx	lr
.Ltmp34:
	.p2align	2
@ %bb.1:
	.loc	4 0 1 is_stmt 0         @ ../GD32E230_Firmware_Library/GD32E230_standard_peripheral/Source/gd32e230_exti.c:0:1
__arm_cp.9_0:
	.long	1073808404              @ 0x40010414
.Lcpi_end18:
	.size	__arm_cp.9_0, .Lcpi_end18-__arm_cp.9_0
.Lfunc_end9:
	.size	exti_interrupt_flag_clear, .Lfunc_end9-exti_interrupt_flag_clear
	.cfi_endproc
	.cantunwind
	.fnend
                                        @ -- End function
	.section	.text.exti_software_interrupt_enable,"ax",%progbits
	.hidden	exti_software_interrupt_enable @ -- Begin function exti_software_interrupt_enable
	.globl	exti_software_interrupt_enable
	.p2align	2
	.type	exti_software_interrupt_enable,%function
	.code	16                      @ @exti_software_interrupt_enable
	.thumb_func
exti_software_interrupt_enable:
.Lfunc_begin10:
	.loc	4 239 0 is_stmt 1       @ ../GD32E230_Firmware_Library/GD32E230_standard_peripheral/Source/gd32e230_exti.c:239:0
	.fnstart
	.cfi_startproc
@ %bb.0:
	.pad	#4
	sub	sp, #4
	.cfi_def_cfa_offset 4
	str	r0, [sp]
.Ltmp35:
	.loc	4 240 29 prologue_end   @ ../GD32E230_Firmware_Library/GD32E230_standard_peripheral/Source/gd32e230_exti.c:240:29
	ldr	r0, [sp]
	ldr	r1, __arm_cp.10_0
	.loc	4 240 16 is_stmt 0      @ ../GD32E230_Firmware_Library/GD32E230_standard_peripheral/Source/gd32e230_exti.c:240:16
	ldr	r2, [r1]
	orrs	r2, r0
	str	r2, [r1]
	.loc	4 241 1 is_stmt 1       @ ../GD32E230_Firmware_Library/GD32E230_standard_peripheral/Source/gd32e230_exti.c:241:1
	add	sp, #4
	bx	lr
.Ltmp36:
	.p2align	2
@ %bb.1:
	.loc	4 0 1 is_stmt 0         @ ../GD32E230_Firmware_Library/GD32E230_standard_peripheral/Source/gd32e230_exti.c:0:1
__arm_cp.10_0:
	.long	1073808400              @ 0x40010410
.Lcpi_end19:
	.size	__arm_cp.10_0, .Lcpi_end19-__arm_cp.10_0
.Lfunc_end10:
	.size	exti_software_interrupt_enable, .Lfunc_end10-exti_software_interrupt_enable
	.cfi_endproc
	.cantunwind
	.fnend
                                        @ -- End function
	.section	.text.exti_software_interrupt_disable,"ax",%progbits
	.hidden	exti_software_interrupt_disable @ -- Begin function exti_software_interrupt_disable
	.globl	exti_software_interrupt_disable
	.p2align	2
	.type	exti_software_interrupt_disable,%function
	.code	16                      @ @exti_software_interrupt_disable
	.thumb_func
exti_software_interrupt_disable:
.Lfunc_begin11:
	.loc	4 252 0 is_stmt 1       @ ../GD32E230_Firmware_Library/GD32E230_standard_peripheral/Source/gd32e230_exti.c:252:0
	.fnstart
	.cfi_startproc
@ %bb.0:
	.pad	#4
	sub	sp, #4
	.cfi_def_cfa_offset 4
	str	r0, [sp]
.Ltmp37:
	.loc	4 253 30 prologue_end   @ ../GD32E230_Firmware_Library/GD32E230_standard_peripheral/Source/gd32e230_exti.c:253:30
	ldr	r0, [sp]
	ldr	r1, __arm_cp.11_0
	.loc	4 253 16 is_stmt 0      @ ../GD32E230_Firmware_Library/GD32E230_standard_peripheral/Source/gd32e230_exti.c:253:16
	ldr	r2, [r1]
	bics	r2, r0
	str	r2, [r1]
	.loc	4 254 1 is_stmt 1       @ ../GD32E230_Firmware_Library/GD32E230_standard_peripheral/Source/gd32e230_exti.c:254:1
	add	sp, #4
	bx	lr
.Ltmp38:
	.p2align	2
@ %bb.1:
	.loc	4 0 1 is_stmt 0         @ ../GD32E230_Firmware_Library/GD32E230_standard_peripheral/Source/gd32e230_exti.c:0:1
__arm_cp.11_0:
	.long	1073808400              @ 0x40010410
.Lcpi_end20:
	.size	__arm_cp.11_0, .Lcpi_end20-__arm_cp.11_0
.Lfunc_end11:
	.size	exti_software_interrupt_disable, .Lfunc_end11-exti_software_interrupt_disable
	.cfi_endproc
	.cantunwind
	.fnend
                                        @ -- End function
	.section	".note.GNU-stack","",%progbits
	.eabi_attribute	30, 6	@ Tag_ABI_optimization_goals
	.ARM_attribute	16, 1	@ Tag_AV_eba