	.text
	.syntax unified
	.eabi_attribute	67, "2.09"	@ Tag_conformance
	.cpu	cortex-m23
	.eabi_attribute	6, 16	@ Tag_CPU_arch
	.eabi_attribute	7, 77	@ Tag_CPU_arch_profile
	.eabi_attribute	8, 0	@ Tag_ARM_ISA_use
	.eabi_attribute	9, 3	@ Tag_THUMB_ISA_use
	.eabi_attribute	34, 0	@ Tag_CPU_unaligned_access
	.eabi_attribute	17, 1	@ Tag_ABI_PCS_GOT_use
	.eabi_attribute	20, 2	@ Tag_ABI_FP_denormal
	.eabi_attribute	21, 0	@ Tag_ABI_FP_exceptions
	.eabi_attribute	23, 1	@ Tag_ABI_FP_number_model
	.eabi_attribute	24, 1	@ Tag_ABI_align_needed
	.eabi_attribute	25, 1	@ Tag_ABI_align_preserved
	.eabi_attribute	38, 1	@ Tag_ABI_FP_16bit_format
	.eabi_attribute	18, 2	@ Tag_ABI_PCS_wchar_t
	.eabi_attribute	26, 1	@ Tag_ABI_enum_size
	.eabi_attribute	14, 0	@ Tag_ABI_PCS_R9_use
	.file	"gd32e230_rcu.c"
	.file	1 "E:\\Soway\\Soway_product-soft\\105 - T119-GD\\E230 -  ds18b20-F8\\MDK-ARM" "../GD32E230_Firmware_Library/GD32E230_standard_peripheral/Include\\gd32e230_rcu.h"
	.file	2 "E:\\Soway\\Soway_product-soft\\105 - T119-GD\\E230 -  ds18b20-F8\\MDK-ARM" "../GD32E230_Firmware_Library/CMSIS/GD/GD32E230/Include\\gd32e230.h"
	.file	3 "D:\\Keil_v5\\ARM\\ARMCLANG\\Bin\\..\\include" "stdint.h"
	.section	.text.rcu_deinit,"ax",%progbits
	.hidden	rcu_deinit              @ -- Begin function rcu_deinit
	.globl	rcu_deinit
	.p2align	2
	.type	rcu_deinit,%function
	.code	16                      @ @rcu_deinit
	.thumb_func
rcu_deinit:
.Lfunc_begin0:
	.file	4 "E:\\Soway\\Soway_product-soft\\105 - T119-GD\\E230 -  ds18b20-F8\\MDK-ARM" "../GD32E230_Firmware_Library/GD32E230_standard_peripheral/Source/gd32e230_rcu.c"
	.loc	4 55 0                  @ ../GD32E230_Firmware_Library/GD32E230_standard_peripheral/Source/gd32e230_rcu.c:55:0
	.fnstart
	.cfi_sections .debug_frame
	.cfi_startproc
@ %bb.0:
	ldr	r0, __arm_cp.0_0
.Ltmp0:
	.loc	4 57 14 prologue_end    @ ../GD32E230_Firmware_Library/GD32E230_standard_peripheral/Source/gd32e230_rcu.c:57:14
	ldr	r1, [r0]
	movs	r2, #1
	orrs	r1, r2
	str	r1, [r0]
	.loc	4 58 5                  @ ../GD32E230_Firmware_Library/GD32E230_standard_peripheral/Source/gd32e230_rcu.c:58:5
	b	.LBB0_1
.LBB0_1:                                @ =>This Inner Loop Header: Depth=1
	.loc	4 0 5 is_stmt 0         @ ../GD32E230_Firmware_Library/GD32E230_standard_peripheral/Source/gd32e230_rcu.c:0:5
	ldr	r0, __arm_cp.0_0
	.loc	4 58 18                 @ ../GD32E230_Firmware_Library/GD32E230_standard_peripheral/Source/gd32e230_rcu.c:58:18
	ldr	r0, [r0]
	.loc	4 58 5                  @ ../GD32E230_Firmware_Library/GD32E230_standard_peripheral/Source/gd32e230_rcu.c:58:5
	lsls	r0, r0, #30
	cmp	r0, #0
	bmi	.LBB0_3
	b	.LBB0_2
.LBB0_2:                                @   in Loop: Header=BB0_1 Depth=1
	b	.LBB0_1
.LBB0_3:
	.loc	4 0 5                   @ ../GD32E230_Firmware_Library/GD32E230_standard_peripheral/Source/gd32e230_rcu.c:0:5
	ldr	r0, __arm_cp.0_1
	.loc	4 61 14 is_stmt 1       @ ../GD32E230_Firmware_Library/GD32E230_standard_peripheral/Source/gd32e230_rcu.c:61:14
	ldr	r1, [r0]
	ldr	r2, __arm_cp.0_2
	ands	r1, r2
	str	r1, [r0]
	.loc	4 63 14                 @ ../GD32E230_Firmware_Library/GD32E230_standard_peripheral/Source/gd32e230_rcu.c:63:14
	ldr	r1, [r0]
	ldr	r2, __arm_cp.0_3
	ands	r1, r2
	str	r1, [r0]
	ldr	r0, __arm_cp.0_0
	.loc	4 64 14                 @ ../GD32E230_Firmware_Library/GD32E230_standard_peripheral/Source/gd32e230_rcu.c:64:14
	ldr	r1, [r0]
	ldr	r2, __arm_cp.0_4
	ands	r1, r2
	str	r1, [r0]
	ldr	r0, __arm_cp.0_5
	.loc	4 65 14                 @ ../GD32E230_Firmware_Library/GD32E230_standard_peripheral/Source/gd32e230_rcu.c:65:14
	ldr	r1, [r0]
	movs	r2, #15
	bics	r1, r2
	str	r1, [r0]
	ldr	r0, __arm_cp.0_6
	.loc	4 66 14                 @ ../GD32E230_Firmware_Library/GD32E230_standard_peripheral/Source/gd32e230_rcu.c:66:14
	ldr	r1, [r0]
	movw	r2, #259
	bics	r1, r2
	str	r1, [r0]
	.loc	4 67 14                 @ ../GD32E230_Firmware_Library/GD32E230_standard_peripheral/Source/gd32e230_rcu.c:67:14
	ldr	r1, [r0]
	movs	r2, #1
	lsls	r3, r2, #16
	bics	r1, r3
	str	r1, [r0]
	.loc	4 68 14                 @ ../GD32E230_Firmware_Library/GD32E230_standard_peripheral/Source/gd32e230_rcu.c:68:14
	ldr	r1, [r0]
	lsls	r3, r2, #31
	bics	r1, r3
	str	r1, [r0]
	ldr	r0, __arm_cp.0_7
	.loc	4 69 14                 @ ../GD32E230_Firmware_Library/GD32E230_standard_peripheral/Source/gd32e230_rcu.c:69:14
	ldr	r1, [r0]
	bics	r1, r2
	str	r1, [r0]
	ldr	r0, __arm_cp.0_8
	movs	r1, #0
	.loc	4 70 13                 @ ../GD32E230_Firmware_Library/GD32E230_standard_peripheral/Source/gd32e230_rcu.c:70:13
	str	r1, [r0]
	.loc	4 71 1                  @ ../GD32E230_Firmware_Library/GD32E230_standard_peripheral/Source/gd32e230_rcu.c:71:1
	bx	lr
.Ltmp1:
	.p2align	2
@ %bb.4:
	.loc	4 0 1 is_stmt 0         @ ../GD32E230_Firmware_Library/GD32E230_standard_peripheral/Source/gd32e230_rcu.c:0:1
__arm_cp.0_0:
	.long	1073876992              @ 0x40021000
.Lcpi_end0:
	.size	__arm_cp.0_0, .Lcpi_end0-__arm_cp.0_0
__arm_cp.0_1:
	.long	1073876996              @ 0x40021004
.Lcpi_end1:
	.size	__arm_cp.0_1, .Lcpi_end1-__arm_cp.0_1
__arm_cp.0_2:
	.long	150929420               @ 0x8ff000c
.Lcpi_end2:
	.size	__arm_cp.0_2, .Lcpi_end2-__arm_cp.0_2
__arm_cp.0_3:
	.long	2009268223              @ 0x77c2ffff
.Lcpi_end3:
	.size	__arm_cp.0_3, .Lcpi_end3-__arm_cp.0_3
__arm_cp.0_4:
	.long	4277338111              @ 0xfef2ffff
.Lcpi_end4:
	.size	__arm_cp.0_4, .Lcpi_end4-__arm_cp.0_4
__arm_cp.0_5:
	.long	1073877036              @ 0x4002102c
.Lcpi_end5:
	.size	__arm_cp.0_5, .Lcpi_end5-__arm_cp.0_5
__arm_cp.0_6:
	.long	1073877040              @ 0x40021030
.Lcpi_end6:
	.size	__arm_cp.0_6, .Lcpi_end6-__arm_cp.0_6
__arm_cp.0_7:
	.long	1073877044              @ 0x40021034
.Lcpi_end7:
	.size	__arm_cp.0_7, .Lcpi_end7-__arm_cp.0_7
__arm_cp.0_8:
	.long	1073877000              @ 0x40021008
.Lcpi_end8:
	.size	__arm_cp.0_8, .Lcpi_end8-__arm_cp.0_8
.Lfunc_end0:
	.size	rcu_deinit, .Lfunc_end0-rcu_deinit
	.cfi_endproc
	.cantunwind
	.fnend
                                        @ -- End function
	.section	.text.rcu_periph_clock_enable,"ax",%progbits
	.hidden	rcu_periph_clock_enable @ -- Begin function rcu_periph_clock_enable
	.globl	rcu_periph_clock_enable
	.p2align	2
	.type	rcu_periph_clock_enable,%function
	.code	16                      @ @rcu_periph_clock_enable
	.thumb_func
rcu_periph_clock_enable:
.Lfunc_begin1:
	.loc	4 94 0 is_stmt 1        @ ../GD32E230_Firmware_Library/GD32E230_standard_peripheral/Source/gd32e230_rcu.c:94:0
	.fnstart
	.cfi_startproc
@ %bb.0:
	.save	{r4, lr}
	push	{r4, lr}
	.cfi_def_cfa_offset 8
	.cfi_offset lr, -4
	.cfi_offset r4, -8
	.pad	#4
	sub	sp, #4
	.cfi_def_cfa_offset 12
	mov	r1, r0
	mov	r2, sp
	strh	r0, [r2]
.Ltmp2:
	.loc	4 95 28 prologue_end    @ ../GD32E230_Firmware_Library/GD32E230_standard_peripheral/Source/gd32e230_rcu.c:95:28
	ldrh	r0, [r2]
	movs	r2, #31
	mov	r3, r0
	ands	r3, r2
	movs	r2, #1
	lsls	r2, r3
	.loc	4 95 5 is_stmt 0        @ ../GD32E230_Firmware_Library/GD32E230_standard_peripheral/Source/gd32e230_rcu.c:95:5
	lsrs	r0, r0, #6
	ldr	r3, __arm_cp.1_0
	.loc	4 95 25                 @ ../GD32E230_Firmware_Library/GD32E230_standard_peripheral/Source/gd32e230_rcu.c:95:25
	ldr	r4, [r0, r3]
	orrs	r4, r2
	str	r4, [r0, r3]
	.loc	4 96 1 is_stmt 1        @ ../GD32E230_Firmware_Library/GD32E230_standard_peripheral/Source/gd32e230_rcu.c:96:1
	add	sp, #4
	pop	{r4, pc}
.Ltmp3:
	.p2align	2
@ %bb.1:
	.loc	4 0 1 is_stmt 0         @ ../GD32E230_Firmware_Library/GD32E230_standard_peripheral/Source/gd32e230_rcu.c:0:1
__arm_cp.1_0:
	.long	1073876992              @ 0x40021000
.Lcpi_end9:
	.size	__arm_cp.1_0, .Lcpi_end9-__arm_cp.1_0
.Lfunc_end1:
	.size	rcu_periph_clock_enable, .Lfunc_end1-rcu_periph_clock_enable
	.cfi_endproc
	.cantunwind
	.fnend
                                        @ -- End function
	.section	.text.rcu_periph_clock_disable,"ax",%progbits
	.hidden	rcu_periph_clock_disable @ -- Begin function rcu_periph_clock_disable
	.globl	rcu_periph_clock_disable
	.p2align	2
	.type	rcu_periph_clock_disable,%function
	.code	16                      @ @rcu_periph_clock_disable
	.thumb_func
rcu_periph_clock_disable:
.Lfunc_begin2:
	.loc	4 119 0 is_stmt 1       @ ../GD32E230_Firmware_Library/GD32E230_standard_peripheral/Source/gd32e230_rcu.c:119:0
	.fnstart
	.cfi_startproc
@ %bb.0:
	.save	{r4, lr}
	push	{r4, lr}
	.cfi_def_cfa_offset 8
	.cfi_offset lr, -4
	.cfi_offset r4, -8
	.pad	#4
	sub	sp, #4
	.cfi_def_cfa_offset 12
	mov	r1, r0
	mov	r2, sp
	strh	r0, [r2]
.Ltmp4:
	.loc	4 120 29 prologue_end   @ ../GD32E230_Firmware_Library/GD32E230_standard_peripheral/Source/gd32e230_rcu.c:120:29
	ldrh	r0, [r2]
	movs	r2, #31
	mov	r3, r0
	ands	r3, r2
	movs	r2, #1
	lsls	r2, r3
	.loc	4 120 5 is_stmt 0       @ ../GD32E230_Firmware_Library/GD32E230_standard_peripheral/Source/gd32e230_rcu.c:120:5
	lsrs	r0, r0, #6
	ldr	r3, __arm_cp.2_0
	.loc	4 120 25                @ ../GD32E230_Firmware_Library/GD32E230_standard_peripheral/Source/gd32e230_rcu.c:120:25
	ldr	r4, [r0, r3]
	bics	r4, r2
	str	r4, [r0, r3]
	.loc	4 121 1 is_stmt 1       @ ../GD32E230_Firmware_Library/GD32E230_standard_peripheral/Source/gd32e230_rcu.c:121:1
	add	sp, #4
	pop	{r4, pc}
.Ltmp5:
	.p2align	2
@ %bb.1:
	.loc	4 0 1 is_stmt 0         @ ../GD32E230_Firmware_Library/GD32E230_standard_peripheral/Source/gd32e230_rcu.c:0:1
__arm_cp.2_0:
	.long	1073876992              @ 0x40021000
.Lcpi_end10:
	.size	__arm_cp.2_0, .Lcpi_end10-__arm_cp.2_0
.Lfunc_end2:
	.size	rcu_periph_clock_disable, .Lfunc_end2-rcu_periph_clock_disable
	.cfi_endproc
	.cantunwind
	.fnend
                                        @ -- End function
	.section	.text.rcu_periph_clock_sleep_enable,"ax",%progbits
	.hidden	rcu_periph_clock_sleep_enable @ -- Begin function rcu_periph_clock_sleep_enable
	.globl	rcu_periph_clock_sleep_enable
	.p2align	2
	.type	rcu_periph_clock_sleep_enable,%function
	.code	16                      @ @rcu_periph_clock_sleep_enable
	.thumb_func
rcu_periph_clock_sleep_enable:
.Lfunc_begin3:
	.loc	4 133 0 is_stmt 1       @ ../GD32E230_Firmware_Library/GD32E230_standard_peripheral/Source/gd32e230_rcu.c:133:0
	.fnstart
	.cfi_startproc
@ %bb.0:
	.save	{r4, lr}
	push	{r4, lr}
	.cfi_def_cfa_offset 8
	.cfi_offset lr, -4
	.cfi_offset r4, -8
	.pad	#4
	sub	sp, #4
	.cfi_def_cfa_offset 12
	mov	r1, r0
	mov	r2, sp
	strh	r0, [r2]
.Ltmp6:
	.loc	4 134 28 prologue_end   @ ../GD32E230_Firmware_Library/GD32E230_standard_peripheral/Source/gd32e230_rcu.c:134:28
	ldrh	r0, [r2]
	movs	r2, #31
	mov	r3, r0
	ands	r3, r2
	movs	r2, #1
	lsls	r2, r3
	.loc	4 134 5 is_stmt 0       @ ../GD32E230_Firmware_Library/GD32E230_standard_peripheral/Source/gd32e230_rcu.c:134:5
	lsrs	r0, r0, #6
	ldr	r3, __arm_cp.3_0
	.loc	4 134 25                @ ../GD32E230_Firmware_Library/GD32E230_standard_peripheral/Source/gd32e230_rcu.c:134:25
	ldr	r4, [r0, r3]
	orrs	r4, r2
	str	r4, [r0, r3]
	.loc	4 135 1 is_stmt 1       @ ../GD32E230_Firmware_Library/GD32E230_standard_peripheral/Source/gd32e230_rcu.c:135:1
	add	sp, #4
	pop	{r4, pc}
.Ltmp7:
	.p2align	2
@ %bb.1:
	.loc	4 0 1 is_stmt 0         @ ../GD32E230_Firmware_Library/GD32E230_standard_peripheral/Source/gd32e230_rcu.c:0:1
__arm_cp.3_0:
	.long	1073876992              @ 0x40021000
.Lcpi_end11:
	.size	__arm_cp.3_0, .Lcpi_end11-__arm_cp.3_0
.Lfunc_end3:
	.size	rcu_periph_clock_sleep_enable, .Lfunc_end3-rcu_periph_clock_sleep_enable
	.cfi_endproc
	.cantunwind
	.fnend
                                        @ -- End function
	.section	.text.rcu_periph_clock_sleep_disable,"ax",%progbits
	.hidden	rcu_periph_clock_sleep_disable @ -- Begin function rcu_periph_clock_sleep_disable
	.globl	rcu_periph_clock_sleep_disable
	.p2align	2
	.type	rcu_periph_clock_sleep_disable,%function
	.code	16                      @ @rcu_periph_clock_sleep_disable
	.thumb_func
rcu_periph_clock_sleep_disable:
.Lfunc_begin4:
	.loc	4 147 0 is_stmt 1       @ ../GD32E230_Firmware_Library/GD32E230_standard_peripheral/Source/gd32e230_rcu.c:147:0
	.fnstart
	.cfi_startproc
@ %bb.0:
	.save	{r4, lr}
	push	{r4, lr}
	.cfi_def_cfa_offset 8
	.cfi_offset lr, -4
	.cfi_offset r4, -8
	.pad	#4
	sub	sp, #4
	.cfi_def_cfa_offset 12
	mov	r1, r0
	mov	r2, sp
	strh	r0, [r2]
.Ltmp8:
	.loc	4 148 29 prologue_end   @ ../GD32E230_Firmware_Library/GD32E230_standard_peripheral/Source/gd32e230_rcu.c:148:29
	ldrh	r0, [r2]
	movs	r2, #31
	mov	r3, r0
	ands	r3, r2
	movs	r2, #1
	lsls	r2, r3
	.loc	4 148 5 is_stmt 0       @ ../GD32E230_Firmware_Library/GD32E230_standard_peripheral/Source/gd32e230_rcu.c:148:5
	lsrs	r0, r0, #6
	ldr	r3, __arm_cp.4_0
	.loc	4 148 25                @ ../GD32E230_Firmware_Library/GD32E230_standard_peripheral/Source/gd32e230_rcu.c:148:25
	ldr	r4, [r0, r3]
	bics	r4, r2
	str	r4, [r0, r3]
	.loc	4 149 1 is_stmt 1       @ ../GD32E230_Firmware_Library/GD32E230_standard_peripheral/Source/gd32e230_rcu.c:149:1
	add	sp, #4
	pop	{r4, pc}
.Ltmp9:
	.p2align	2
@ %bb.1:
	.loc	4 0 1 is_stmt 0         @ ../GD32E230_Firmware_Library/GD32E230_standard_peripheral/Source/gd32e230_rcu.c:0:1
__arm_cp.4_0:
	.long	1073876992              @ 0x40021000
.Lcpi_end12:
	.size	__arm_cp.4_0, .Lcpi_end12-__arm_cp.4_0
.Lfunc_end4:
	.size	rcu_periph_clock_sleep_disable, .Lfunc_end4-rcu_periph_clock_sleep_disable
	.cfi_endproc
	.cantunwind
	.fnend
                                        @ -- End function
	.section	.text.rcu_periph_reset_enable,"ax",%progbits
	.hidden	rcu_periph_reset_enable @ -- Begin function rcu_periph_reset_enable
	.globl	rcu_periph_reset_enable
	.p2align	2
	.type	rcu_periph_reset_enable,%function
	.code	16                      @ @rcu_periph_reset_enable
	.thumb_func
rcu_periph_reset_enable:
.Lfunc_begin5:
	.loc	4 167 0 is_stmt 1       @ ../GD32E230_Firmware_Library/GD32E230_standard_peripheral/Source/gd32e230_rcu.c:167:0
	.fnstart
	.cfi_startproc
@ %bb.0:
	.save	{r4, lr}
	push	{r4, lr}
	.cfi_def_cfa_offset 8
	.cfi_offset lr, -4
	.cfi_offset r4, -8
	.pad	#4
	sub	sp, #4
	.cfi_def_cfa_offset 12
	mov	r1, r0
	mov	r2, sp
	strh	r0, [r2]
.Ltmp10:
	.loc	4 168 34 prologue_end   @ ../GD32E230_Firmware_Library/GD32E230_standard_peripheral/Source/gd32e230_rcu.c:168:34
	ldrh	r0, [r2]
	movs	r2, #31
	mov	r3, r0
	ands	r3, r2
	movs	r2, #1
	lsls	r2, r3
	.loc	4 168 5 is_stmt 0       @ ../GD32E230_Firmware_Library/GD32E230_standard_peripheral/Source/gd32e230_rcu.c:168:5
	lsrs	r0, r0, #6
	ldr	r3, __arm_cp.5_0
	.loc	4 168 31                @ ../GD32E230_Firmware_Library/GD32E230_standard_peripheral/Source/gd32e230_rcu.c:168:31
	ldr	r4, [r0, r3]
	orrs	r4, r2
	str	r4, [r0, r3]
	.loc	4 169 1 is_stmt 1       @ ../GD32E230_Firmware_Library/GD32E230_standard_peripheral/Source/gd32e230_rcu.c:169:1
	add	sp, #4
	pop	{r4, pc}
.Ltmp11:
	.p2align	2
@ %bb.1:
	.loc	4 0 1 is_stmt 0         @ ../GD32E230_Firmware_Library/GD32E230_standard_peripheral/Source/gd32e230_rcu.c:0:1
__arm_cp.5_0:
	.long	1073876992              @ 0x40021000
.Lcpi_end13:
	.size	__arm_cp.5_0, .Lcpi_end13-__arm_cp.5_0
.Lfunc_end5:
	.size	rcu_periph_reset_enable, .Lfunc_end5-rcu_periph_reset_enable
	.cfi_endproc
	.cantunwind
	.fnend
                                        @ -- End function
	.section	.text.rcu_periph_reset_disable,"ax",%progbits
	.hidden	rcu_periph_reset_disable @ -- Begin function rcu_periph_reset_disable
	.globl	rcu_periph_reset_disable
	.p2align	2
	.type	rcu_periph_reset_disable,%function
	.code	16                      @ @rcu_periph_reset_disable
	.thumb_func
rcu_periph_reset_disable:
.Lfunc_begin6:
	.loc	4 188 0 is_stmt 1       @ ../GD32E230_Firmware_Library/GD32E230_standard_peripheral/Source/gd32e230_rcu.c:188:0
	.fnstart
	.cfi_startproc
@ %bb.0:
	.save	{r4, lr}
	push	{r4, lr}
	.cfi_def_cfa_offset 8
	.cfi_offset lr, -4
	.cfi_offset r4, -8
	.pad	#4
	sub	sp, #4
	.cfi_def_cfa_offset 12
	mov	r1, r0
	mov	r2, sp
	strh	r0, [r2]
.Ltmp12:
	.loc	4 189 35 prologue_end   @ ../GD32E230_Firmware_Library/GD32E230_standard_peripheral/Source/gd32e230_rcu.c:189:35
	ldrh	r0, [r2]
	movs	r2, #31
	mov	r3, r0
	ands	r3, r2
	movs	r2, #1
	lsls	r2, r3
	.loc	4 189 5 is_stmt 0       @ ../GD32E230_Firmware_Library/GD32E230_standard_peripheral/Source/gd32e230_rcu.c:189:5
	lsrs	r0, r0, #6
	ldr	r3, __arm_cp.6_0
	.loc	4 189 31                @ ../GD32E230_Firmware_Library/GD32E230_standard_peripheral/Source/gd32e230_rcu.c:189:31
	ldr	r4, [r0, r3]
	bics	r4, r2
	str	r4, [r0, r3]
	.loc	4 190 1 is_stmt 1       @ ../GD32E230_Firmware_Library/GD32E230_standard_peripheral/Source/gd32e230_rcu.c:190:1
	add	sp, #4
	pop	{r4, pc}
.Ltmp13:
	.p2align	2
@ %bb.1:
	.loc	4 0 1 is_stmt 0         @ ../GD32E230_Firmware_Library/GD32E230_standard_peripheral/Source/gd32e230_rcu.c:0:1
__arm_cp.6_0:
	.long	1073876992              @ 0x40021000
.Lcpi_end14:
	.size	__arm_cp.6_0, .Lcpi_end14-__arm_cp.6_0
.Lfunc_end6:
	.size	rcu_periph_reset_disable, .Lfunc_end6-rcu_periph_reset_disable
	.cfi_endproc
	.cantunwind
	.fnend
                                        @ -- End function
	.section	.text.rcu_bkp_reset_enable,"ax",%progbits
	.hidden	rcu_bkp_reset_enable    @ -- Begin function rcu_bkp_reset_enable
	.globl	rcu_bkp_reset_enable
	.p2align	2
	.type	rcu_bkp_reset_enable,%function
	.code	16                      @ @rcu_bkp_reset_enable
	.thumb_func
rcu_bkp_reset_enable:
.Lfunc_begin7:
	.loc	4 199 0 is_stmt 1       @ ../GD32E230_Firmware_Library/GD32E230_standard_peripheral/Source/gd32e230_rcu.c:199:0
	.fnstart
	.cfi_startproc
@ %bb.0:
	ldr	r0, __arm_cp.7_0
.Ltmp14:
	.loc	4 200 15 prologue_end   @ ../GD32E230_Firmware_Library/GD32E230_standard_peripheral/Source/gd32e230_rcu.c:200:15
	ldr	r1, [r0]
	movs	r2, #1
	lsls	r2, r2, #16
	orrs	r1, r2
	str	r1, [r0]
	.loc	4 201 1                 @ ../GD32E230_Firmware_Library/GD32E230_standard_peripheral/Source/gd32e230_rcu.c:201:1
	bx	lr
.Ltmp15:
	.p2align	2
@ %bb.1:
	.loc	4 0 1 is_stmt 0         @ ../GD32E230_Firmware_Library/GD32E230_standard_peripheral/Source/gd32e230_rcu.c:0:1
__arm_cp.7_0:
	.long	1073877024              @ 0x40021020
.Lcpi_end15:
	.size	__arm_cp.7_0, .Lcpi_end15-__arm_cp.7_0
.Lfunc_end7:
	.size	rcu_bkp_reset_enable, .Lfunc_end7-rcu_bkp_reset_enable
	.cfi_endproc
	.cantunwind
	.fnend
                                        @ -- End function
	.section	.text.rcu_bkp_reset_disable,"ax",%progbits
	.hidden	rcu_bkp_reset_disable   @ -- Begin function rcu_bkp_reset_disable
	.globl	rcu_bkp_reset_disable
	.p2align	2
	.type	rcu_bkp_reset_disable,%function
	.code	16                      @ @rcu_bkp_reset_disable
	.thumb_func
rcu_bkp_reset_disable:
.Lfunc_begin8:
	.loc	4 210 0 is_stmt 1       @ ../GD32E230_Firmware_Library/GD32E230_standard_peripheral/Source/gd32e230_rcu.c:210:0
	.fnstart
	.cfi_startproc
@ %bb.0:
	ldr	r0, __arm_cp.8_0
.Ltmp16:
	.loc	4 211 15 prologue_end   @ ../GD32E230_Firmware_Library/GD32E230_standard_peripheral/Source/gd32e230_rcu.c:211:15
	ldr	r1, [r0]
	movs	r2, #1
	lsls	r2, r2, #16
	bics	r1, r2
	str	r1, [r0]
	.loc	4 212 1                 @ ../GD32E230_Firmware_Library/GD32E230_standard_peripheral/Source/gd32e230_rcu.c:212:1
	bx	lr
.Ltmp17:
	.p2align	2
@ %bb.1:
	.loc	4 0 1 is_stmt 0         @ ../GD32E230_Firmware_Library/GD32E230_standard_peripheral/Source/gd32e230_rcu.c:0:1
__arm_cp.8_0:
	.long	1073877024              @ 0x40021020
.Lcpi_end16:
	.size	__arm_cp.8_0, .Lcpi_end16-__arm_cp.8_0
.Lfunc_end8:
	.size	rcu_bkp_reset_disable, .Lfunc_end8-rcu_bkp_reset_disable
	.cfi_endproc
	.cantunwind
	.fnend
                                        @ -- End function
	.section	.text.rcu_system_clock_source_config,"ax",%progbits
	.hidden	rcu_system_clock_source_config @ -- Begin function rcu_system_clock_source_config
	.globl	rcu_system_clock_source_config
	.p2align	2
	.type	rcu_system_clock_source_config,%function
	.code	16                      @ @rcu_system_clock_source_config
	.thumb_func
rcu_system_clock_source_config:
.Lfunc_begin9:
	.loc	4 225 0 is_stmt 1       @ ../GD32E230_Firmware_Library/GD32E230_standard_peripheral/Source/gd32e230_rcu.c:225:0
	.fnstart
	.cfi_startproc
@ %bb.0:
	.pad	#8
	sub	sp, #8
	.cfi_def_cfa_offset 8
	str	r0, [sp, #4]
	movs	r0, #0
.Ltmp18:
	.loc	4 226 14 prologue_end   @ ../GD32E230_Firmware_Library/GD32E230_standard_peripheral/Source/gd32e230_rcu.c:226:14
	str	r0, [sp]
	ldr	r0, __arm_cp.9_0
	.loc	4 227 20                @ ../GD32E230_Firmware_Library/GD32E230_standard_peripheral/Source/gd32e230_rcu.c:227:20
	ldr	r1, [r0]
	.loc	4 227 18 is_stmt 0      @ ../GD32E230_Firmware_Library/GD32E230_standard_peripheral/Source/gd32e230_rcu.c:227:18
	str	r1, [sp]
	.loc	4 229 18 is_stmt 1      @ ../GD32E230_Firmware_Library/GD32E230_standard_peripheral/Source/gd32e230_rcu.c:229:18
	ldr	r1, [sp]
	movs	r2, #3
	bics	r1, r2
	str	r1, [sp]
	.loc	4 230 17                @ ../GD32E230_Firmware_Library/GD32E230_standard_peripheral/Source/gd32e230_rcu.c:230:17
	ldr	r1, [sp, #4]
	.loc	4 230 26 is_stmt 0      @ ../GD32E230_Firmware_Library/GD32E230_standard_peripheral/Source/gd32e230_rcu.c:230:26
	ldr	r2, [sp]
	.loc	4 230 24                @ ../GD32E230_Firmware_Library/GD32E230_standard_peripheral/Source/gd32e230_rcu.c:230:24
	orrs	r1, r2
	.loc	4 230 14                @ ../GD32E230_Firmware_Library/GD32E230_standard_peripheral/Source/gd32e230_rcu.c:230:14
	str	r1, [r0]
	.loc	4 231 1 is_stmt 1       @ ../GD32E230_Firmware_Library/GD32E230_standard_peripheral/Source/gd32e230_rcu.c:231:1
	add	sp, #8
	bx	lr
.Ltmp19:
	.p2align	2
@ %bb.1:
	.loc	4 0 1 is_stmt 0         @ ../GD32E230_Firmware_Library/GD32E230_standard_peripheral/Source/gd32e230_rcu.c:0:1
__arm_cp.9_0:
	.long	1073876996              @ 0x40021004
.Lcpi_end17:
	.size	__arm_cp.9_0, .Lcpi_end17-__arm_cp.9_0
.Lfunc_end9:
	.size	rcu_system_clock_source_config, .Lfunc_end9-rcu_system_clock_source_config
	.cfi_endproc
	.cantunwind
	.fnend
                                        @ -- End function
	.section	.text.rcu_system_clock_source_get,"ax",%progbits
	.hidden	rcu_system_clock_source_get @ -- Begin function rcu_system_clock_source_get
	.globl	rcu_system_clock_source_get
	.p2align	2
	.type	rcu_system_clock_source_get,%function
	.code	16                      @ @rcu_system_clock_source_get
	.thumb_func
rcu_system_clock_source_get:
.Lfunc_begin10:
	.loc	4 243 0 is_stmt 1       @ ../GD32E230_Firmware_Library/GD32E230_standard_peripheral/Source/gd32e230_rcu.c:243:0
	.fnstart
	.cfi_startproc
@ %bb.0:
	ldr	r0, __arm_cp.10_0
.Ltmp20:
	.loc	4 244 13 prologue_end   @ ../GD32E230_Firmware_Library/GD32E230_standard_peripheral/Source/gd32e230_rcu.c:244:13
	ldr	r0, [r0]
	movs	r1, #12
	.loc	4 244 22 is_stmt 0      @ ../GD32E230_Firmware_Library/GD32E230_standard_peripheral/Source/gd32e230_rcu.c:244:22
	ands	r0, r1
	.loc	4 244 5                 @ ../GD32E230_Firmware_Library/GD32E230_standard_peripheral/Source/gd32e230_rcu.c:244:5
	bx	lr
.Ltmp21:
	.p2align	2
@ %bb.1:
	.loc	4 0 5                   @ ../GD32E230_Firmware_Library/GD32E230_standard_peripheral/Source/gd32e230_rcu.c:0:5
__arm_cp.10_0:
	.long	1073876996              @ 0x40021004
.Lcpi_end18:
	.size	__arm_cp.10_0, .Lcpi_end18-__arm_cp.10_0
.Lfunc_end10:
	.size	rcu_system_clock_source_get, .Lfunc_end10-rcu_system_clock_source_get
	.cfi_endproc
	.cantunwind
	.fnend
                                        @ -- End function
	.section	.text.rcu_ahb_clock_config,"ax",%progbits
	.hidden	rcu_ahb_clock_config    @ -- Begin function rcu_ahb_clock_config
	.globl	rcu_ahb_clock_config
	.p2align	2
	.type	rcu_ahb_clock_config,%function
	.code	16                      @ @rcu_ahb_clock_config
	.thumb_func
rcu_ahb_clock_config:
.Lfunc_begin11:
	.loc	4 256 0 is_stmt 1       @ ../GD32E230_Firmware_Library/GD32E230_standard_peripheral/Source/gd32e230_rcu.c:256:0
	.fnstart
	.cfi_startproc
@ %bb.0:
	.pad	#8
	sub	sp, #8
	.cfi_def_cfa_offset 8
	str	r0, [sp, #4]
	movs	r0, #0
.Ltmp22:
	.loc	4 257 14 prologue_end   @ ../GD32E230_Firmware_Library/GD32E230_standard_peripheral/Source/gd32e230_rcu.c:257:14
	str	r0, [sp]
	ldr	r0, __arm_cp.11_0
	.loc	4 258 14                @ ../GD32E230_Firmware_Library/GD32E230_standard_peripheral/Source/gd32e230_rcu.c:258:14
	ldr	r1, [r0]
	.loc	4 258 12 is_stmt 0      @ ../GD32E230_Firmware_Library/GD32E230_standard_peripheral/Source/gd32e230_rcu.c:258:12
	str	r1, [sp]
	.loc	4 260 12 is_stmt 1      @ ../GD32E230_Firmware_Library/GD32E230_standard_peripheral/Source/gd32e230_rcu.c:260:12
	ldr	r1, [sp]
	movs	r2, #240
	bics	r1, r2
	str	r1, [sp]
	.loc	4 261 17                @ ../GD32E230_Firmware_Library/GD32E230_standard_peripheral/Source/gd32e230_rcu.c:261:17
	ldr	r1, [sp, #4]
	.loc	4 261 26 is_stmt 0      @ ../GD32E230_Firmware_Library/GD32E230_standard_peripheral/Source/gd32e230_rcu.c:261:26
	ldr	r2, [sp]
	.loc	4 261 24                @ ../GD32E230_Firmware_Library/GD32E230_standard_peripheral/Source/gd32e230_rcu.c:261:24
	orrs	r1, r2
	.loc	4 261 14                @ ../GD32E230_Firmware_Library/GD32E230_standard_peripheral/Source/gd32e230_rcu.c:261:14
	str	r1, [r0]
	.loc	4 262 1 is_stmt 1       @ ../GD32E230_Firmware_Library/GD32E230_standard_peripheral/Source/gd32e230_rcu.c:262:1
	add	sp, #8
	bx	lr
.Ltmp23:
	.p2align	2
@ %bb.1:
	.loc	4 0 1 is_stmt 0         @ ../GD32E230_Firmware_Library/GD32E230_standard_peripheral/Source/gd32e230_rcu.c:0:1
__arm_cp.11_0:
	.long	1073876996              @ 0x40021004
.Lcpi_end19:
	.size	__arm_cp.11_0, .Lcpi_end19-__arm_cp.11_0
.Lfunc_end11:
	.size	rcu_ahb_clock_config, .Lfunc_end11-rcu_ahb_clock_config
	.cfi_endproc
	.cantunwind
	.fnend
                                        @ -- End function
	.section	.text.rcu_apb1_clock_config,"ax",%progbits
	.hidden	rcu_apb1_clock_config   @ -- Begin function rcu_apb1_clock_config
	.globl	rcu_apb1_clock_config
	.p2align	2
	.type	rcu_apb1_clock_config,%function
	.code	16                      @ @rcu_apb1_clock_config
	.thumb_func
rcu_apb1_clock_config:
.Lfunc_begin12:
	.loc	4 277 0 is_stmt 1       @ ../GD32E230_Firmware_Library/GD32E230_standard_peripheral/Source/gd32e230_rcu.c:277:0
	.fnstart
	.cfi_startproc
@ %bb.0:
	.pad	#8
	sub	sp, #8
	.cfi_def_cfa_offset 8
	str	r0, [sp, #4]
	movs	r0, #0
.Ltmp24:
	.loc	4 278 14 prologue_end   @ ../GD32E230_Firmware_Library/GD32E230_standard_peripheral/Source/gd32e230_rcu.c:278:14
	str	r0, [sp]
	ldr	r0, __arm_cp.12_0
	.loc	4 279 15                @ ../GD32E230_Firmware_Library/GD32E230_standard_peripheral/Source/gd32e230_rcu.c:279:15
	ldr	r1, [r0]
	.loc	4 279 13 is_stmt 0      @ ../GD32E230_Firmware_Library/GD32E230_standard_peripheral/Source/gd32e230_rcu.c:279:13
	str	r1, [sp]
	.loc	4 281 13 is_stmt 1      @ ../GD32E230_Firmware_Library/GD32E230_standard_peripheral/Source/gd32e230_rcu.c:281:13
	ldr	r1, [sp]
	movw	r2, #1792
	bics	r1, r2
	str	r1, [sp]
	.loc	4 282 17                @ ../GD32E230_Firmware_Library/GD32E230_standard_peripheral/Source/gd32e230_rcu.c:282:17
	ldr	r1, [sp, #4]
	.loc	4 282 27 is_stmt 0      @ ../GD32E230_Firmware_Library/GD32E230_standard_peripheral/Source/gd32e230_rcu.c:282:27
	ldr	r2, [sp]
	.loc	4 282 25                @ ../GD32E230_Firmware_Library/GD32E230_standard_peripheral/Source/gd32e230_rcu.c:282:25
	orrs	r1, r2
	.loc	4 282 14                @ ../GD32E230_Firmware_Library/GD32E230_standard_peripheral/Source/gd32e230_rcu.c:282:14
	str	r1, [r0]
	.loc	4 283 1 is_stmt 1       @ ../GD32E230_Firmware_Library/GD32E230_standard_peripheral/Source/gd32e230_rcu.c:283:1
	add	sp, #8
	bx	lr
.Ltmp25:
	.p2align	2
@ %bb.1:
	.loc	4 0 1 is_stmt 0         @ ../GD32E230_Firmware_Library/GD32E230_standard_peripheral/Source/gd32e230_rcu.c:0:1
__arm_cp.12_0:
	.long	1073876996              @ 0x40021004
.Lcpi_end20:
	.size	__arm_cp.12_0, .Lcpi_end20-__arm_cp.12_0
.Lfunc_end12:
	.size	rcu_apb1_clock_config, .Lfunc_end12-rcu_apb1_clock_config
	.cfi_endproc
	.cantunwind
	.fnend
                                        @ -- End function
	.section	.text.rcu_apb2_clock_config,"ax",%progbits
	.hidden	rcu_apb2_clock_config   @ -- Begin function rcu_apb2_clock_config
	.globl	rcu_apb2_clock_config
	.p2align	2
	.type	rcu_apb2_clock_config,%function
	.code	16                      @ @rcu_apb2_clock_config
	.thumb_func
rcu_apb2_clock_config:
.Lfunc_begin13:
	.loc	4 298 0 is_stmt 1       @ ../GD32E230_Firmware_Library/GD32E230_standard_peripheral/Source/gd32e230_rcu.c:298:0
	.fnstart
	.cfi_startproc
@ %bb.0:
	.pad	#8
	sub	sp, #8
	.cfi_def_cfa_offset 8
	str	r0, [sp, #4]
	movs	r0, #0
.Ltmp26:
	.loc	4 299 14 prologue_end   @ ../GD32E230_Firmware_Library/GD32E230_standard_peripheral/Source/gd32e230_rcu.c:299:14
	str	r0, [sp]
	ldr	r0, __arm_cp.13_0
	.loc	4 300 15                @ ../GD32E230_Firmware_Library/GD32E230_standard_peripheral/Source/gd32e230_rcu.c:300:15
	ldr	r1, [r0]
	.loc	4 300 13 is_stmt 0      @ ../GD32E230_Firmware_Library/GD32E230_standard_peripheral/Source/gd32e230_rcu.c:300:13
	str	r1, [sp]
	.loc	4 302 13 is_stmt 1      @ ../GD32E230_Firmware_Library/GD32E230_standard_peripheral/Source/gd32e230_rcu.c:302:13
	ldr	r1, [sp]
	movw	r2, #14336
	bics	r1, r2
	str	r1, [sp]
	.loc	4 303 17                @ ../GD32E230_Firmware_Library/GD32E230_standard_peripheral/Source/gd32e230_rcu.c:303:17
	ldr	r1, [sp, #4]
	.loc	4 303 27 is_stmt 0      @ ../GD32E230_Firmware_Library/GD32E230_standard_peripheral/Source/gd32e230_rcu.c:303:27
	ldr	r2, [sp]
	.loc	4 303 25                @ ../GD32E230_Firmware_Library/GD32E230_standard_peripheral/Source/gd32e230_rcu.c:303:25
	orrs	r1, r2
	.loc	4 303 14                @ ../GD32E230_Firmware_Library/GD32E230_standard_peripheral/Source/gd32e230_rcu.c:303:14
	str	r1, [r0]
	.loc	4 304 1 is_stmt 1       @ ../GD32E230_Firmware_Library/GD32E230_standard_peripheral/Source/gd32e230_rcu.c:304:1
	add	sp, #8
	bx	lr
.Ltmp27:
	.p2align	2
@ %bb.1:
	.loc	4 0 1 is_stmt 0         @ ../GD32E230_Firmware_Library/GD32E230_standard_peripheral/Source/gd32e230_rcu.c:0:1
__arm_cp.13_0:
	.long	1073876996              @ 0x40021004
.Lcpi_end21:
	.size	__arm_cp.13_0, .Lcpi_end21-__arm_cp.13_0
.Lfunc_end13:
	.size	rcu_apb2_clock_config, .Lfunc_end13-rcu_apb2_clock_config
	.cfi_endproc
	.cantunwind
	.fnend
                                        @ -- End function
	.section	.text.rcu_adc_clock_config,"ax",%progbits
	.hidden	rcu_adc_clock_config    @ -- Begin function rcu_adc_clock_config
	.globl	rcu_adc_clock_config
	.p2align	2
	.type	rcu_adc_clock_config,%function
	.code	16                      @ @rcu_adc_clock_config
	.thumb_func
rcu_adc_clock_config:
.Lfunc_begin14:
	.loc	4 324 0 is_stmt 1       @ ../GD32E230_Firmware_Library/GD32E230_standard_peripheral/Source/gd32e230_rcu.c:324:0
	.fnstart
	.cfi_startproc
@ %bb.0:
	.save	{r4, lr}
	push	{r4, lr}
	.cfi_def_cfa_offset 8
	.cfi_offset lr, -4
	.cfi_offset r4, -8
	.pad	#8
	sub	sp, #8
	.cfi_def_cfa_offset 16
	mov	r1, r0
	add	r2, sp, #4
	strb	r0, [r2]
	ldr	r0, __arm_cp.14_0
.Ltmp28:
	.loc	4 326 14 prologue_end   @ ../GD32E230_Firmware_Library/GD32E230_standard_peripheral/Source/gd32e230_rcu.c:326:14
	ldr	r3, [r0]
	movw	r4, #49152
	bics	r3, r4
	str	r3, [r0]
	ldr	r0, __arm_cp.14_1
	.loc	4 327 14                @ ../GD32E230_Firmware_Library/GD32E230_standard_peripheral/Source/gd32e230_rcu.c:327:14
	ldr	r3, [r0]
	ldr	r4, __arm_cp.14_2
	ands	r3, r4
	str	r3, [r0]
	.loc	4 330 12                @ ../GD32E230_Firmware_Library/GD32E230_standard_peripheral/Source/gd32e230_rcu.c:330:12
	ldrb	r0, [r2]
	.loc	4 330 5 is_stmt 0       @ ../GD32E230_Firmware_Library/GD32E230_standard_peripheral/Source/gd32e230_rcu.c:330:5
	cmp	r0, #9
	str	r0, [sp]                @ 4-byte Spill
	bls	.LBB14_1
	b	.LBB14_13
.LBB14_1:
	.loc	4 0 5                   @ ../GD32E230_Firmware_Library/GD32E230_standard_peripheral/Source/gd32e230_rcu.c:0:5
	ldr	r0, [sp]                @ 4-byte Reload
	lsls	r1, r0, #2
	adr	r2, .LJTI14_0
	adds	r1, r2, r1
	mov	pc, r1
@ %bb.2:
	.p2align	2
.LJTI14_0:
	b.w	.LBB14_3
	b.w	.LBB14_4
	b.w	.LBB14_5
	b.w	.LBB14_6
	b.w	.LBB14_7
	b.w	.LBB14_8
	b.w	.LBB14_9
	b.w	.LBB14_10
	b.w	.LBB14_11
	b.w	.LBB14_12
.LBB14_3:
	ldr	r0, __arm_cp.14_1
.Ltmp29:
	.loc	4 332 18 is_stmt 1      @ ../GD32E230_Firmware_Library/GD32E230_standard_peripheral/Source/gd32e230_rcu.c:332:18
	ldr	r1, [r0]
	movs	r2, #1
	lsls	r2, r2, #16
	bics	r1, r2
	str	r1, [r0]
	.loc	4 333 18                @ ../GD32E230_Firmware_Library/GD32E230_standard_peripheral/Source/gd32e230_rcu.c:333:18
	ldr	r1, [r0]
	movw	r2, #256
	bics	r1, r2
	str	r1, [r0]
	.loc	4 334 9                 @ ../GD32E230_Firmware_Library/GD32E230_standard_peripheral/Source/gd32e230_rcu.c:334:9
	b	.LBB14_14
.LBB14_4:
	.loc	4 0 9 is_stmt 0         @ ../GD32E230_Firmware_Library/GD32E230_standard_peripheral/Source/gd32e230_rcu.c:0:9
	ldr	r0, __arm_cp.14_1
	.loc	4 336 18 is_stmt 1      @ ../GD32E230_Firmware_Library/GD32E230_standard_peripheral/Source/gd32e230_rcu.c:336:18
	ldr	r1, [r0]
	movs	r2, #1
	lsls	r2, r2, #16
	orrs	r1, r2
	str	r1, [r0]
	.loc	4 337 18                @ ../GD32E230_Firmware_Library/GD32E230_standard_peripheral/Source/gd32e230_rcu.c:337:18
	ldr	r1, [r0]
	movw	r2, #256
	bics	r1, r2
	str	r1, [r0]
	.loc	4 338 9                 @ ../GD32E230_Firmware_Library/GD32E230_standard_peripheral/Source/gd32e230_rcu.c:338:9
	b	.LBB14_14
.LBB14_5:
	.loc	4 0 9 is_stmt 0         @ ../GD32E230_Firmware_Library/GD32E230_standard_peripheral/Source/gd32e230_rcu.c:0:9
	ldr	r0, __arm_cp.14_0
	.loc	4 340 18 is_stmt 1      @ ../GD32E230_Firmware_Library/GD32E230_standard_peripheral/Source/gd32e230_rcu.c:340:18
	ldr	r1, [r0]
	str	r1, [r0]
	ldr	r0, __arm_cp.14_1
	.loc	4 341 18                @ ../GD32E230_Firmware_Library/GD32E230_standard_peripheral/Source/gd32e230_rcu.c:341:18
	ldr	r1, [r0]
	movw	r2, #256
	orrs	r1, r2
	str	r1, [r0]
	.loc	4 342 9                 @ ../GD32E230_Firmware_Library/GD32E230_standard_peripheral/Source/gd32e230_rcu.c:342:9
	b	.LBB14_14
.LBB14_6:
	.loc	4 0 9 is_stmt 0         @ ../GD32E230_Firmware_Library/GD32E230_standard_peripheral/Source/gd32e230_rcu.c:0:9
	ldr	r0, __arm_cp.14_0
	.loc	4 344 18 is_stmt 1      @ ../GD32E230_Firmware_Library/GD32E230_standard_peripheral/Source/gd32e230_rcu.c:344:18
	ldr	r1, [r0]
	str	r1, [r0]
	ldr	r0, __arm_cp.14_1
	.loc	4 345 18                @ ../GD32E230_Firmware_Library/GD32E230_standard_peripheral/Source/gd32e230_rcu.c:345:18
	ldr	r1, [r0]
	movs	r2, #1
	lsls	r2, r2, #31
	orrs	r1, r2
	str	r1, [r0]
	.loc	4 346 18                @ ../GD32E230_Firmware_Library/GD32E230_standard_peripheral/Source/gd32e230_rcu.c:346:18
	ldr	r1, [r0]
	movw	r2, #256
	orrs	r1, r2
	str	r1, [r0]
	.loc	4 347 9                 @ ../GD32E230_Firmware_Library/GD32E230_standard_peripheral/Source/gd32e230_rcu.c:347:9
	b	.LBB14_14
.LBB14_7:
	.loc	4 0 9 is_stmt 0         @ ../GD32E230_Firmware_Library/GD32E230_standard_peripheral/Source/gd32e230_rcu.c:0:9
	ldr	r0, __arm_cp.14_0
	.loc	4 349 18 is_stmt 1      @ ../GD32E230_Firmware_Library/GD32E230_standard_peripheral/Source/gd32e230_rcu.c:349:18
	ldr	r1, [r0]
	movw	r2, #16384
	orrs	r1, r2
	str	r1, [r0]
	ldr	r0, __arm_cp.14_1
	.loc	4 350 18                @ ../GD32E230_Firmware_Library/GD32E230_standard_peripheral/Source/gd32e230_rcu.c:350:18
	ldr	r1, [r0]
	movw	r2, #256
	orrs	r1, r2
	str	r1, [r0]
	.loc	4 351 9                 @ ../GD32E230_Firmware_Library/GD32E230_standard_peripheral/Source/gd32e230_rcu.c:351:9
	b	.LBB14_14
.LBB14_8:
	.loc	4 0 9 is_stmt 0         @ ../GD32E230_Firmware_Library/GD32E230_standard_peripheral/Source/gd32e230_rcu.c:0:9
	ldr	r0, __arm_cp.14_0
	.loc	4 353 18 is_stmt 1      @ ../GD32E230_Firmware_Library/GD32E230_standard_peripheral/Source/gd32e230_rcu.c:353:18
	ldr	r1, [r0]
	movw	r2, #16384
	orrs	r1, r2
	str	r1, [r0]
	ldr	r0, __arm_cp.14_1
	.loc	4 354 18                @ ../GD32E230_Firmware_Library/GD32E230_standard_peripheral/Source/gd32e230_rcu.c:354:18
	ldr	r1, [r0]
	movs	r2, #1
	lsls	r2, r2, #31
	orrs	r1, r2
	str	r1, [r0]
	.loc	4 355 18                @ ../GD32E230_Firmware_Library/GD32E230_standard_peripheral/Source/gd32e230_rcu.c:355:18
	ldr	r1, [r0]
	movw	r2, #256
	orrs	r1, r2
	str	r1, [r0]
	.loc	4 356 9                 @ ../GD32E230_Firmware_Library/GD32E230_standard_peripheral/Source/gd32e230_rcu.c:356:9
	b	.LBB14_14
.LBB14_9:
	.loc	4 0 9 is_stmt 0         @ ../GD32E230_Firmware_Library/GD32E230_standard_peripheral/Source/gd32e230_rcu.c:0:9
	ldr	r0, __arm_cp.14_0
	.loc	4 358 18 is_stmt 1      @ ../GD32E230_Firmware_Library/GD32E230_standard_peripheral/Source/gd32e230_rcu.c:358:18
	ldr	r1, [r0]
	movw	r2, #32768
	orrs	r1, r2
	str	r1, [r0]
	ldr	r0, __arm_cp.14_1
	.loc	4 359 18                @ ../GD32E230_Firmware_Library/GD32E230_standard_peripheral/Source/gd32e230_rcu.c:359:18
	ldr	r1, [r0]
	movw	r2, #256
	orrs	r1, r2
	str	r1, [r0]
	.loc	4 360 9                 @ ../GD32E230_Firmware_Library/GD32E230_standard_peripheral/Source/gd32e230_rcu.c:360:9
	b	.LBB14_14
.LBB14_10:
	.loc	4 0 9 is_stmt 0         @ ../GD32E230_Firmware_Library/GD32E230_standard_peripheral/Source/gd32e230_rcu.c:0:9
	ldr	r0, __arm_cp.14_0
	.loc	4 362 18 is_stmt 1      @ ../GD32E230_Firmware_Library/GD32E230_standard_peripheral/Source/gd32e230_rcu.c:362:18
	ldr	r1, [r0]
	movw	r2, #32768
	orrs	r1, r2
	str	r1, [r0]
	ldr	r0, __arm_cp.14_1
	.loc	4 363 18                @ ../GD32E230_Firmware_Library/GD32E230_standard_peripheral/Source/gd32e230_rcu.c:363:18
	ldr	r1, [r0]
	movs	r2, #1
	lsls	r2, r2, #31
	orrs	r1, r2
	str	r1, [r0]
	.loc	4 364 18                @ ../GD32E230_Firmware_Library/GD32E230_standard_peripheral/Source/gd32e230_rcu.c:364:18
	ldr	r1, [r0]
	movw	r2, #256
	orrs	r1, r2
	str	r1, [r0]
	.loc	4 365 9                 @ ../GD32E230_Firmware_Library/GD32E230_standard_peripheral/Source/gd32e230_rcu.c:365:9
	b	.LBB14_14
.LBB14_11:
	.loc	4 0 9 is_stmt 0         @ ../GD32E230_Firmware_Library/GD32E230_standard_peripheral/Source/gd32e230_rcu.c:0:9
	ldr	r0, __arm_cp.14_0
	.loc	4 367 18 is_stmt 1      @ ../GD32E230_Firmware_Library/GD32E230_standard_peripheral/Source/gd32e230_rcu.c:367:18
	ldr	r1, [r0]
	movw	r2, #49152
	orrs	r1, r2
	str	r1, [r0]
	ldr	r0, __arm_cp.14_1
	.loc	4 368 18                @ ../GD32E230_Firmware_Library/GD32E230_standard_peripheral/Source/gd32e230_rcu.c:368:18
	ldr	r1, [r0]
	movw	r2, #256
	orrs	r1, r2
	str	r1, [r0]
	.loc	4 369 9                 @ ../GD32E230_Firmware_Library/GD32E230_standard_peripheral/Source/gd32e230_rcu.c:369:9
	b	.LBB14_14
.LBB14_12:
	.loc	4 0 9 is_stmt 0         @ ../GD32E230_Firmware_Library/GD32E230_standard_peripheral/Source/gd32e230_rcu.c:0:9
	ldr	r0, __arm_cp.14_0
	.loc	4 371 18 is_stmt 1      @ ../GD32E230_Firmware_Library/GD32E230_standard_peripheral/Source/gd32e230_rcu.c:371:18
	ldr	r1, [r0]
	movw	r2, #49152
	orrs	r1, r2
	str	r1, [r0]
	ldr	r0, __arm_cp.14_1
	.loc	4 372 18                @ ../GD32E230_Firmware_Library/GD32E230_standard_peripheral/Source/gd32e230_rcu.c:372:18
	ldr	r1, [r0]
	movs	r2, #1
	lsls	r2, r2, #31
	orrs	r1, r2
	str	r1, [r0]
	.loc	4 373 18                @ ../GD32E230_Firmware_Library/GD32E230_standard_peripheral/Source/gd32e230_rcu.c:373:18
	ldr	r1, [r0]
	movw	r2, #256
	orrs	r1, r2
	str	r1, [r0]
	.loc	4 374 9                 @ ../GD32E230_Firmware_Library/GD32E230_standard_peripheral/Source/gd32e230_rcu.c:374:9
	b	.LBB14_14
.LBB14_13:
	.loc	4 376 9                 @ ../GD32E230_Firmware_Library/GD32E230_standard_peripheral/Source/gd32e230_rcu.c:376:9
	b	.LBB14_14
.Ltmp30:
.LBB14_14:
	.loc	4 378 1                 @ ../GD32E230_Firmware_Library/GD32E230_standard_peripheral/Source/gd32e230_rcu.c:378:1
	add	sp, #8
	pop	{r4, pc}
.Ltmp31:
	.p2align	2
@ %bb.15:
	.loc	4 0 1 is_stmt 0         @ ../GD32E230_Firmware_Library/GD32E230_standard_peripheral/Source/gd32e230_rcu.c:0:1
__arm_cp.14_0:
	.long	1073876996              @ 0x40021004
.Lcpi_end22:
	.size	__arm_cp.14_0, .Lcpi_end22-__arm_cp.14_0
__arm_cp.14_1:
	.long	1073877040              @ 0x40021030
.Lcpi_end23:
	.size	__arm_cp.14_1, .Lcpi_end23-__arm_cp.14_1
__arm_cp.14_2:
	.long	2147417855              @ 0x7ffefeff
.Lcpi_end24:
	.size	__arm_cp.14_2, .Lcpi_end24-__arm_cp.14_2
.Lfunc_end14:
	.size	rcu_adc_clock_config, .Lfunc_end14-rcu_adc_clock_config
	.cfi_endproc
	.cantunwind
	.fnend
                                        @ -- End function
	.section	.text.rcu_ckout_config,"ax",%progbits
	.hidden	rcu_ckout_config        @ -- Begin function rcu_ckout_config
	.globl	rcu_ckout_config
	.p2align	2
	.type	rcu_ckout_config,%function
	.code	16                      @ @rcu_ckout_config
	.thumb_func
rcu_ckout_config:
.Lfunc_begin15:
	.loc	4 399 0 is_stmt 1       @ ../GD32E230_Firmware_Library/GD32E230_standard_peripheral/Source/gd32e230_rcu.c:399:0
	.fnstart
	.cfi_startproc
@ %bb.0:
	.pad	#12
	sub	sp, #12
	.cfi_def_cfa_offset 12
	str	r0, [sp, #8]
	str	r1, [sp, #4]
	movs	r0, #0
.Ltmp32:
	.loc	4 400 14 prologue_end   @ ../GD32E230_Firmware_Library/GD32E230_standard_peripheral/Source/gd32e230_rcu.c:400:14
	str	r0, [sp]
	ldr	r0, __arm_cp.15_0
	.loc	4 401 13                @ ../GD32E230_Firmware_Library/GD32E230_standard_peripheral/Source/gd32e230_rcu.c:401:13
	ldr	r1, [r0]
	.loc	4 401 11 is_stmt 0      @ ../GD32E230_Firmware_Library/GD32E230_standard_peripheral/Source/gd32e230_rcu.c:401:11
	str	r1, [sp]
	.loc	4 403 11 is_stmt 1      @ ../GD32E230_Firmware_Library/GD32E230_standard_peripheral/Source/gd32e230_rcu.c:403:11
	ldr	r1, [sp]
	movs	r2, #247
	lsls	r2, r2, #24
	bics	r1, r2
	str	r1, [sp]
	.loc	4 404 17                @ ../GD32E230_Firmware_Library/GD32E230_standard_peripheral/Source/gd32e230_rcu.c:404:17
	ldr	r1, [sp]
	.loc	4 404 25 is_stmt 0      @ ../GD32E230_Firmware_Library/GD32E230_standard_peripheral/Source/gd32e230_rcu.c:404:25
	ldr	r2, [sp, #8]
	.loc	4 404 23                @ ../GD32E230_Firmware_Library/GD32E230_standard_peripheral/Source/gd32e230_rcu.c:404:23
	orrs	r1, r2
	.loc	4 404 37                @ ../GD32E230_Firmware_Library/GD32E230_standard_peripheral/Source/gd32e230_rcu.c:404:37
	ldr	r2, [sp, #4]
	.loc	4 404 35                @ ../GD32E230_Firmware_Library/GD32E230_standard_peripheral/Source/gd32e230_rcu.c:404:35
	orrs	r1, r2
	.loc	4 404 14                @ ../GD32E230_Firmware_Library/GD32E230_standard_peripheral/Source/gd32e230_rcu.c:404:14
	str	r1, [r0]
	.loc	4 405 1 is_stmt 1       @ ../GD32E230_Firmware_Library/GD32E230_standard_peripheral/Source/gd32e230_rcu.c:405:1
	add	sp, #12
	bx	lr
.Ltmp33:
	.p2align	2
@ %bb.1:
	.loc	4 0 1 is_stmt 0         @ ../GD32E230_Firmware_Library/GD32E230_standard_peripheral/Source/gd32e230_rcu.c:0:1
__arm_cp.15_0:
	.long	1073876996              @ 0x40021004
.Lcpi_end25:
	.size	__arm_cp.15_0, .Lcpi_end25-__arm_cp.15_0
.Lfunc_end15:
	.size	rcu_ckout_config, .Lfunc_end15-rcu_ckout_config
	.cfi_endproc
	.cantunwind
	.fnend
                                        @ -- End function
	.section	.text.rcu_pll_config,"ax",%progbits
	.hidden	rcu_pll_config          @ -- Begin function rcu_pll_config
	.globl	rcu_pll_config
	.p2align	2
	.type	rcu_pll_config,%function
	.code	16                      @ @rcu_pll_config
	.thumb_func
rcu_pll_config:
.Lfunc_begin16:
	.loc	4 420 0 is_stmt 1       @ ../GD32E230_Firmware_Library/GD32E230_standard_peripheral/Source/gd32e230_rcu.c:420:0
	.fnstart
	.cfi_startproc
@ %bb.0:
	.pad	#8
	sub	sp, #8
	.cfi_def_cfa_offset 8
	str	r0, [sp, #4]
	str	r1, [sp]
	ldr	r0, __arm_cp.16_0
.Ltmp34:
	.loc	4 421 14 prologue_end   @ ../GD32E230_Firmware_Library/GD32E230_standard_peripheral/Source/gd32e230_rcu.c:421:14
	ldr	r1, [r0]
	ldr	r2, __arm_cp.16_1
	ands	r1, r2
	str	r1, [r0]
	.loc	4 422 18                @ ../GD32E230_Firmware_Library/GD32E230_standard_peripheral/Source/gd32e230_rcu.c:422:18
	ldr	r1, [sp, #4]
	.loc	4 422 28 is_stmt 0      @ ../GD32E230_Firmware_Library/GD32E230_standard_peripheral/Source/gd32e230_rcu.c:422:28
	ldr	r2, [sp]
	.loc	4 422 26                @ ../GD32E230_Firmware_Library/GD32E230_standard_peripheral/Source/gd32e230_rcu.c:422:26
	orrs	r1, r2
	.loc	4 422 14                @ ../GD32E230_Firmware_Library/GD32E230_standard_peripheral/Source/gd32e230_rcu.c:422:14
	ldr	r2, [r0]
	orrs	r2, r1
	str	r2, [r0]
	.loc	4 423 1 is_stmt 1       @ ../GD32E230_Firmware_Library/GD32E230_standard_peripheral/Source/gd32e230_rcu.c:423:1
	add	sp, #8
	bx	lr
.Ltmp35:
	.p2align	2
@ %bb.1:
	.loc	4 0 1 is_stmt 0         @ ../GD32E230_Firmware_Library/GD32E230_standard_peripheral/Source/gd32e230_rcu.c:0:1
__arm_cp.16_0:
	.long	1073876996              @ 0x40021004
.Lcpi_end26:
	.size	__arm_cp.16_0, .Lcpi_end26-__arm_cp.16_0
__arm_cp.16_1:
	.long	4156751871              @ 0xf7c2ffff
.Lcpi_end27:
	.size	__arm_cp.16_1, .Lcpi_end27-__arm_cp.16_1
.Lfunc_end16:
	.size	rcu_pll_config, .Lfunc_end16-rcu_pll_config
	.cfi_endproc
	.cantunwind
	.fnend
                                        @ -- End function
	.section	.text.rcu_usart_clock_config,"ax",%progbits
	.hidden	rcu_usart_clock_config  @ -- Begin function rcu_usart_clock_config
	.globl	rcu_usart_clock_config
	.p2align	2
	.type	rcu_usart_clock_config,%function
	.code	16                      @ @rcu_usart_clock_config
	.thumb_func
rcu_usart_clock_config:
.Lfunc_begin17:
	.loc	4 437 0 is_stmt 1       @ ../GD32E230_Firmware_Library/GD32E230_standard_peripheral/Source/gd32e230_rcu.c:437:0
	.fnstart
	.cfi_startproc
@ %bb.0:
	.pad	#4
	sub	sp, #4
	.cfi_def_cfa_offset 4
	str	r0, [sp]
	ldr	r0, __arm_cp.17_0
.Ltmp36:
	.loc	4 439 14 prologue_end   @ ../GD32E230_Firmware_Library/GD32E230_standard_peripheral/Source/gd32e230_rcu.c:439:14
	ldr	r1, [r0]
	movs	r2, #3
	bics	r1, r2
	str	r1, [r0]
	.loc	4 440 17                @ ../GD32E230_Firmware_Library/GD32E230_standard_peripheral/Source/gd32e230_rcu.c:440:17
	ldr	r1, [sp]
	.loc	4 440 14 is_stmt 0      @ ../GD32E230_Firmware_Library/GD32E230_standard_peripheral/Source/gd32e230_rcu.c:440:14
	ldr	r2, [r0]
	orrs	r2, r1
	str	r2, [r0]
	.loc	4 441 1 is_stmt 1       @ ../GD32E230_Firmware_Library/GD32E230_standard_peripheral/Source/gd32e230_rcu.c:441:1
	add	sp, #4
	bx	lr
.Ltmp37:
	.p2align	2
@ %bb.1:
	.loc	4 0 1 is_stmt 0         @ ../GD32E230_Firmware_Library/GD32E230_standard_peripheral/Source/gd32e230_rcu.c:0:1
__arm_cp.17_0:
	.long	1073877040              @ 0x40021030
.Lcpi_end28:
	.size	__arm_cp.17_0, .Lcpi_end28-__arm_cp.17_0
.Lfunc_end17:
	.size	rcu_usart_clock_config, .Lfunc_end17-rcu_usart_clock_config
	.cfi_endproc
	.cantunwind
	.fnend
                                        @ -- End function
	.section	.text.rcu_rtc_clock_config,"ax",%progbits
	.hidden	rcu_rtc_clock_config    @ -- Begin function rcu_rtc_clock_config
	.globl	rcu_rtc_clock_config
	.p2align	2
	.type	rcu_rtc_clock_config,%function
	.code	16                      @ @rcu_rtc_clock_config
	.thumb_func
rcu_rtc_clock_config:
.Lfunc_begin18:
	.loc	4 455 0 is_stmt 1       @ ../GD32E230_Firmware_Library/GD32E230_standard_peripheral/Source/gd32e230_rcu.c:455:0
	.fnstart
	.cfi_startproc
@ %bb.0:
	.pad	#4
	sub	sp, #4
	.cfi_def_cfa_offset 4
	str	r0, [sp]
	ldr	r0, __arm_cp.18_0
.Ltmp38:
	.loc	4 457 15 prologue_end   @ ../GD32E230_Firmware_Library/GD32E230_standard_peripheral/Source/gd32e230_rcu.c:457:15
	ldr	r1, [r0]
	movw	r2, #768
	bics	r1, r2
	str	r1, [r0]
	.loc	4 458 18                @ ../GD32E230_Firmware_Library/GD32E230_standard_peripheral/Source/gd32e230_rcu.c:458:18
	ldr	r1, [sp]
	.loc	4 458 15 is_stmt 0      @ ../GD32E230_Firmware_Library/GD32E230_standard_peripheral/Source/gd32e230_rcu.c:458:15
	ldr	r2, [r0]
	orrs	r2, r1
	str	r2, [r0]
	.loc	4 459 1 is_stmt 1       @ ../GD32E230_Firmware_Library/GD32E230_standard_peripheral/Source/gd32e230_rcu.c:459:1
	add	sp, #4
	bx	lr
.Ltmp39:
	.p2align	2
@ %bb.1:
	.loc	4 0 1 is_stmt 0         @ ../GD32E230_Firmware_Library/GD32E230_standard_peripheral/Source/gd32e230_rcu.c:0:1
__arm_cp.18_0:
	.long	1073877024              @ 0x40021020
.Lcpi_end29:
	.size	__arm_cp.18_0, .Lcpi_end29-__arm_cp.18_0
.Lfunc_end18:
	.size	rcu_rtc_clock_config, .Lfunc_end18-rcu_rtc_clock_config
	.cfi_endproc
	.cantunwind
	.fnend
                                        @ -- End function
	.section	.text.rcu_hxtal_prediv_config,"ax",%progbits
	.hidden	rcu_hxtal_prediv_config @ -- Begin function rcu_hxtal_prediv_config
	.globl	rcu_hxtal_prediv_config
	.p2align	2
	.type	rcu_hxtal_prediv_config,%function
	.code	16                      @ @rcu_hxtal_prediv_config
	.thumb_func
rcu_hxtal_prediv_config:
.Lfunc_begin19:
	.loc	4 470 0 is_stmt 1       @ ../GD32E230_Firmware_Library/GD32E230_standard_peripheral/Source/gd32e230_rcu.c:470:0
	.fnstart
	.cfi_startproc
@ %bb.0:
	.pad	#8
	sub	sp, #8
	.cfi_def_cfa_offset 8
	str	r0, [sp, #4]
	movs	r0, #0
.Ltmp40:
	.loc	4 471 14 prologue_end   @ ../GD32E230_Firmware_Library/GD32E230_standard_peripheral/Source/gd32e230_rcu.c:471:14
	str	r0, [sp]
	ldr	r0, __arm_cp.19_0
	.loc	4 472 14                @ ../GD32E230_Firmware_Library/GD32E230_standard_peripheral/Source/gd32e230_rcu.c:472:14
	ldr	r1, [r0]
	.loc	4 472 12 is_stmt 0      @ ../GD32E230_Firmware_Library/GD32E230_standard_peripheral/Source/gd32e230_rcu.c:472:12
	str	r1, [sp]
	.loc	4 474 12 is_stmt 1      @ ../GD32E230_Firmware_Library/GD32E230_standard_peripheral/Source/gd32e230_rcu.c:474:12
	ldr	r1, [sp]
	movs	r2, #15
	bics	r1, r2
	str	r1, [sp]
	.loc	4 475 17                @ ../GD32E230_Firmware_Library/GD32E230_standard_peripheral/Source/gd32e230_rcu.c:475:17
	ldr	r1, [sp]
	.loc	4 475 26 is_stmt 0      @ ../GD32E230_Firmware_Library/GD32E230_standard_peripheral/Source/gd32e230_rcu.c:475:26
	ldr	r2, [sp, #4]
	.loc	4 475 24                @ ../GD32E230_Firmware_Library/GD32E230_standard_peripheral/Source/gd32e230_rcu.c:475:24
	orrs	r1, r2
	.loc	4 475 14                @ ../GD32E230_Firmware_Library/GD32E230_standard_peripheral/Source/gd32e230_rcu.c:475:14
	str	r1, [r0]
	.loc	4 476 1 is_stmt 1       @ ../GD32E230_Firmware_Library/GD32E230_standard_peripheral/Source/gd32e230_rcu.c:476:1
	add	sp, #8
	bx	lr
.Ltmp41:
	.p2align	2
@ %bb.1:
	.loc	4 0 1 is_stmt 0         @ ../GD32E230_Firmware_Library/GD32E230_standard_peripheral/Source/gd32e230_rcu.c:0:1
__arm_cp.19_0:
	.long	1073877036              @ 0x4002102c
.Lcpi_end30:
	.size	__arm_cp.19_0, .Lcpi_end30-__arm_cp.19_0
.Lfunc_end19:
	.size	rcu_hxtal_prediv_config, .Lfunc_end19-rcu_hxtal_prediv_config
	.cfi_endproc
	.cantunwind
	.fnend
                                        @ -- End function
	.section	.text.rcu_lxtal_drive_capability_config,"ax",%progbits
	.hidden	rcu_lxtal_drive_capability_config @ -- Begin function rcu_lxtal_drive_capability_config
	.globl	rcu_lxtal_drive_capability_config
	.p2align	2
	.type	rcu_lxtal_drive_capability_config,%function
	.code	16                      @ @rcu_lxtal_drive_capability_config
	.thumb_func
rcu_lxtal_drive_capability_config:
.Lfunc_begin20:
	.loc	4 490 0 is_stmt 1       @ ../GD32E230_Firmware_Library/GD32E230_standard_peripheral/Source/gd32e230_rcu.c:490:0
	.fnstart
	.cfi_startproc
@ %bb.0:
	.pad	#4
	sub	sp, #4
	.cfi_def_cfa_offset 4
	str	r0, [sp]
	ldr	r0, __arm_cp.20_0
.Ltmp42:
	.loc	4 492 15 prologue_end   @ ../GD32E230_Firmware_Library/GD32E230_standard_peripheral/Source/gd32e230_rcu.c:492:15
	ldr	r1, [r0]
	movs	r2, #24
	bics	r1, r2
	str	r1, [r0]
	.loc	4 493 18                @ ../GD32E230_Firmware_Library/GD32E230_standard_peripheral/Source/gd32e230_rcu.c:493:18
	ldr	r1, [sp]
	.loc	4 493 15 is_stmt 0      @ ../GD32E230_Firmware_Library/GD32E230_standard_peripheral/Source/gd32e230_rcu.c:493:15
	ldr	r2, [r0]
	orrs	r2, r1
	str	r2, [r0]
	.loc	4 494 1 is_stmt 1       @ ../GD32E230_Firmware_Library/GD32E230_standard_peripheral/Source/gd32e230_rcu.c:494:1
	add	sp, #4
	bx	lr
.Ltmp43:
	.p2align	2
@ %bb.1:
	.loc	4 0 1 is_stmt 0         @ ../GD32E230_Firmware_Library/GD32E230_standard_peripheral/Source/gd32e230_rcu.c:0:1
__arm_cp.20_0:
	.long	1073877024              @ 0x40021020
.Lcpi_end31:
	.size	__arm_cp.20_0, .Lcpi_end31-__arm_cp.20_0
.Lfunc_end20:
	.size	rcu_lxtal_drive_capability_config, .Lfunc_end20-rcu_lxtal_drive_capability_config
	.cfi_endproc
	.cantunwind
	.fnend
                                        @ -- End function
	.section	.text.rcu_flag_get,"ax",%progbits
	.hidden	rcu_flag_get            @ -- Begin function rcu_flag_get
	.globl	rcu_flag_get
	.p2align	2
	.type	rcu_flag_get,%function
	.code	16                      @ @rcu_flag_get
	.thumb_func
rcu_flag_get:
.Lfunc_begin21:
	.loc	4 518 0 is_stmt 1       @ ../GD32E230_Firmware_Library/GD32E230_standard_peripheral/Source/gd32e230_rcu.c:518:0
	.fnstart
	.cfi_startproc
@ %bb.0:
	.pad	#8
	sub	sp, #8
	.cfi_def_cfa_offset 8
	mov	r1, r0
	mov	r2, sp
	strh	r0, [r2]
.Ltmp44:
	.loc	4 519 18 prologue_end   @ ../GD32E230_Firmware_Library/GD32E230_standard_peripheral/Source/gd32e230_rcu.c:519:18
	ldrh	r0, [r2]
	lsrs	r0, r0, #6
	ldr	r3, __arm_cp.21_0
	ldr	r0, [r0, r3]
	.loc	4 519 38 is_stmt 0      @ ../GD32E230_Firmware_Library/GD32E230_standard_peripheral/Source/gd32e230_rcu.c:519:38
	ldrh	r2, [r2]
	movs	r3, #31
	ands	r2, r3
.Ltmp45:
	.loc	4 519 8                 @ ../GD32E230_Firmware_Library/GD32E230_standard_peripheral/Source/gd32e230_rcu.c:519:8
	lsrs	r0, r2
	lsls	r0, r0, #31
	cmp	r0, #0
	beq	.LBB21_2
	b	.LBB21_1
.LBB21_1:
	.loc	4 0 8                   @ ../GD32E230_Firmware_Library/GD32E230_standard_peripheral/Source/gd32e230_rcu.c:0:8
	add	r0, sp, #4
	movs	r1, #1
.Ltmp46:
	.loc	4 520 9 is_stmt 1       @ ../GD32E230_Firmware_Library/GD32E230_standard_peripheral/Source/gd32e230_rcu.c:520:9
	strb	r1, [r0]
	b	.LBB21_3
.Ltmp47:
.LBB21_2:
	.loc	4 0 9 is_stmt 0         @ ../GD32E230_Firmware_Library/GD32E230_standard_peripheral/Source/gd32e230_rcu.c:0:9
	add	r0, sp, #4
	movs	r1, #0
.Ltmp48:
	.loc	4 522 9 is_stmt 1       @ ../GD32E230_Firmware_Library/GD32E230_standard_peripheral/Source/gd32e230_rcu.c:522:9
	strb	r1, [r0]
	b	.LBB21_3
.Ltmp49:
.LBB21_3:
	.loc	4 0 9 is_stmt 0         @ ../GD32E230_Firmware_Library/GD32E230_standard_peripheral/Source/gd32e230_rcu.c:0:9
	add	r0, sp, #4
	.loc	4 524 1 is_stmt 1       @ ../GD32E230_Firmware_Library/GD32E230_standard_peripheral/Source/gd32e230_rcu.c:524:1
	ldrb	r0, [r0]
	add	sp, #8
	bx	lr
.Ltmp50:
	.p2align	2
@ %bb.4:
	.loc	4 0 1 is_stmt 0         @ ../GD32E230_Firmware_Library/GD32E230_standard_peripheral/Source/gd32e230_rcu.c:0:1
__arm_cp.21_0:
	.long	1073876992              @ 0x40021000
.Lcpi_end32:
	.size	__arm_cp.21_0, .Lcpi_end32-__arm_cp.21_0
.Lfunc_end21:
	.size	rcu_flag_get, .Lfunc_end21-rcu_flag_get
	.cfi_endproc
	.cantunwind
	.fnend
                                        @ -- End function
	.section	.text.rcu_all_reset_flag_clear,"ax",%progbits
	.hidden	rcu_all_reset_flag_clear @ -- Begin function rcu_all_reset_flag_clear
	.globl	rcu_all_reset_flag_clear
	.p2align	2
	.type	rcu_all_reset_flag_clear,%function
	.code	16                      @ @rcu_all_reset_flag_clear
	.thumb_func
rcu_all_reset_flag_clear:
.Lfunc_begin22:
	.loc	4 533 0 is_stmt 1       @ ../GD32E230_Firmware_Library/GD32E230_standard_peripheral/Source/gd32e230_rcu.c:533:0
	.fnstart
	.cfi_startproc
@ %bb.0:
	ldr	r0, __arm_cp.22_0
.Ltmp51:
	.loc	4 534 16 prologue_end   @ ../GD32E230_Firmware_Library/GD32E230_standard_peripheral/Source/gd32e230_rcu.c:534:16
	ldr	r1, [r0]
	movs	r2, #1
	lsls	r2, r2, #24
	orrs	r1, r2
	str	r1, [r0]
	.loc	4 535 1                 @ ../GD32E230_Firmware_Library/GD32E230_standard_peripheral/Source/gd32e230_rcu.c:535:1
	bx	lr
.Ltmp52:
	.p2align	2
@ %bb.1:
	.loc	4 0 1 is_stmt 0         @ ../GD32E230_Firmware_Library/GD32E230_standard_peripheral/Source/gd32e230_rcu.c:0:1
__arm_cp.22_0:
	.long	1073877028              @ 0x40021024
.Lcpi_end33:
	.size	__arm_cp.22_0, .Lcpi_end33-__arm_cp.22_0
.Lfunc_end22:
	.size	rcu_all_reset_flag_clear, .Lfunc_end22-rcu_all_reset_flag_clear
	.cfi_endproc
	.cantunwind
	.fnend
                                        @ -- End function
	.section	.text.rcu_interrupt_flag_get,"ax",%progbits
	.hidden	rcu_interrupt_flag_get  @ -- Begin function rcu_interrupt_flag_get
	.globl	rcu_interrupt_flag_get
	.p2align	2
	.type	rcu_interrupt_flag_get,%function
	.code	16                      @ @rcu_interrupt_flag_get
	.thumb_func
rcu_interrupt_flag_get:
.Lfunc_begin23:
	.loc	4 552 0 is_stmt 1       @ ../GD32E230_Firmware_Library/GD32E230_standard_peripheral/Source/gd32e230_rcu.c:552:0
	.fnstart
	.cfi_startproc
@ %bb.0:
	.pad	#8
	sub	sp, #8
	.cfi_def_cfa_offset 8
	mov	r1, r0
	mov	r2, sp
	strh	r0, [r2]
.Ltmp53:
	.loc	4 553 18 prologue_end   @ ../GD32E230_Firmware_Library/GD32E230_standard_peripheral/Source/gd32e230_rcu.c:553:18
	ldrh	r0, [r2]
	lsrs	r0, r0, #6
	ldr	r3, __arm_cp.23_0
	ldr	r0, [r0, r3]
	.loc	4 553 42 is_stmt 0      @ ../GD32E230_Firmware_Library/GD32E230_standard_peripheral/Source/gd32e230_rcu.c:553:42
	ldrh	r2, [r2]
	movs	r3, #31
	ands	r2, r3
.Ltmp54:
	.loc	4 553 8                 @ ../GD32E230_Firmware_Library/GD32E230_standard_peripheral/Source/gd32e230_rcu.c:553:8
	lsrs	r0, r2
	lsls	r0, r0, #31
	cmp	r0, #0
	beq	.LBB23_2
	b	.LBB23_1
.LBB23_1:
	.loc	4 0 8                   @ ../GD32E230_Firmware_Library/GD32E230_standard_peripheral/Source/gd32e230_rcu.c:0:8
	add	r0, sp, #4
	movs	r1, #1
.Ltmp55:
	.loc	4 554 9 is_stmt 1       @ ../GD32E230_Firmware_Library/GD32E230_standard_peripheral/Source/gd32e230_rcu.c:554:9
	strb	r1, [r0]
	b	.LBB23_3
.Ltmp56:
.LBB23_2:
	.loc	4 0 9 is_stmt 0         @ ../GD32E230_Firmware_Library/GD32E230_standard_peripheral/Source/gd32e230_rcu.c:0:9
	add	r0, sp, #4
	movs	r1, #0
.Ltmp57:
	.loc	4 556 9 is_stmt 1       @ ../GD32E230_Firmware_Library/GD32E230_standard_peripheral/Source/gd32e230_rcu.c:556:9
	strb	r1, [r0]
	b	.LBB23_3
.Ltmp58:
.LBB23_3:
	.loc	4 0 9 is_stmt 0         @ ../GD32E230_Firmware_Library/GD32E230_standard_peripheral/Source/gd32e230_rcu.c:0:9
	add	r0, sp, #4
	.loc	4 558 1 is_stmt 1       @ ../GD32E230_Firmware_Library/GD32E230_standard_peripheral/Source/gd32e230_rcu.c:558:1
	ldrb	r0, [r0]
	add	sp, #8
	bx	lr
.Ltmp59:
	.p2align	2
@ %bb.4:
	.loc	4 0 1 is_stmt 0         @ ../GD32E230_Firmware_Library/GD32E230_standard_peripheral/Source/gd32e230_rcu.c:0:1
__arm_cp.23_0:
	.long	1073876992              @ 0x40021000
.Lcpi_end34:
	.size	__arm_cp.23_0, .Lcpi_end34-__arm_cp.23_0
.Lfunc_end23:
	.size	rcu_interrupt_flag_get, .Lfunc_end23-rcu_interrupt_flag_get
	.cfi_endproc
	.cantunwind
	.fnend
                                        @ -- End function
	.section	.text.rcu_interrupt_flag_clear,"ax",%progbits
	.hidden	rcu_interrupt_flag_clear @ -- Begin function rcu_interrupt_flag_clear
	.globl	rcu_interrupt_flag_clear
	.p2align	2
	.type	rcu_interrupt_flag_clear,%function
	.code	16                      @ @rcu_interrupt_flag_clear
	.thumb_func
rcu_interrupt_flag_clear:
.Lfunc_begin24:
	.loc	4 575 0 is_stmt 1       @ ../GD32E230_Firmware_Library/GD32E230_standard_peripheral/Source/gd32e230_rcu.c:575:0
	.fnstart
	.cfi_startproc
@ %bb.0:
	.save	{r4, lr}
	push	{r4, lr}
	.cfi_def_cfa_offset 8
	.cfi_offset lr, -4
	.cfi_offset r4, -8
	.pad	#4
	sub	sp, #4
	.cfi_def_cfa_offset 12
	mov	r1, r0
	mov	r2, sp
	strh	r0, [r2]
.Ltmp60:
	.loc	4 576 36 prologue_end   @ ../GD32E230_Firmware_Library/GD32E230_standard_peripheral/Source/gd32e230_rcu.c:576:36
	ldrh	r0, [r2]
	movs	r2, #31
	mov	r3, r0
	ands	r3, r2
	movs	r2, #1
	lsls	r2, r3
	.loc	4 576 5 is_stmt 0       @ ../GD32E230_Firmware_Library/GD32E230_standard_peripheral/Source/gd32e230_rcu.c:576:5
	lsrs	r0, r0, #6
	ldr	r3, __arm_cp.24_0
	.loc	4 576 33                @ ../GD32E230_Firmware_Library/GD32E230_standard_peripheral/Source/gd32e230_rcu.c:576:33
	ldr	r4, [r0, r3]
	orrs	r4, r2
	str	r4, [r0, r3]
	.loc	4 577 1 is_stmt 1       @ ../GD32E230_Firmware_Library/GD32E230_standard_peripheral/Source/gd32e230_rcu.c:577:1
	add	sp, #4
	pop	{r4, pc}
.Ltmp61:
	.p2align	2
@ %bb.1:
	.loc	4 0 1 is_stmt 0         @ ../GD32E230_Firmware_Library/GD32E230_standard_peripheral/Source/gd32e230_rcu.c:0:1
__arm_cp.24_0:
	.long	1073876992              @ 0x40021000
.Lcpi_end35:
	.size	__arm_cp.24_0, .Lcpi_end35-__arm_cp.24_0
.Lfunc_end24:
	.size	rcu_interrupt_flag_clear, .Lfunc_end24-rcu_interrupt_flag_clear
	.cfi_endproc
	.cantunwind
	.fnend
                                        @ -- End function
	.section	.text.rcu_interrupt_enable,"ax",%progbits
	.hidden	rcu_interrupt_enable    @ -- Begin function rcu_interrupt_enable
	.globl	rcu_interrupt_enable
	.p2align	2
	.type	rcu_interrupt_enable,%function
	.code	16                      @ @rcu_interrupt_enable
	.thumb_func
rcu_interrupt_enable:
.Lfunc_begin25:
	.loc	4 593 0 is_stmt 1       @ ../GD32E230_Firmware_Library/GD32E230_standard_peripheral/Source/gd32e230_rcu.c:593:0
	.fnstart
	.cfi_startproc
@ %bb.0:
	.save	{r4, lr}
	push	{r4, lr}
	.cfi_def_cfa_offset 8
	.cfi_offset lr, -4
	.cfi_offset r4, -8
	.pad	#4
	sub	sp, #4
	.cfi_def_cfa_offset 12
	mov	r1, r0
	mov	r2, sp
	strh	r0, [r2]
.Ltmp62:
	.loc	4 594 30 prologue_end   @ ../GD32E230_Firmware_Library/GD32E230_standard_peripheral/Source/gd32e230_rcu.c:594:30
	ldrh	r0, [r2]
	movs	r2, #31
	mov	r3, r0
	ands	r3, r2
	movs	r2, #1
	lsls	r2, r3
	.loc	4 594 5 is_stmt 0       @ ../GD32E230_Firmware_Library/GD32E230_standard_peripheral/Source/gd32e230_rcu.c:594:5
	lsrs	r0, r0, #6
	ldr	r3, __arm_cp.25_0
	.loc	4 594 27                @ ../GD32E230_Firmware_Library/GD32E230_standard_peripheral/Source/gd32e230_rcu.c:594:27
	ldr	r4, [r0, r3]
	orrs	r4, r2
	str	r4, [r0, r3]
	.loc	4 595 1 is_stmt 1       @ ../GD32E230_Firmware_Library/GD32E230_standard_peripheral/Source/gd32e230_rcu.c:595:1
	add	sp, #4
	pop	{r4, pc}
.Ltmp63:
	.p2align	2
@ %bb.1:
	.loc	4 0 1 is_stmt 0         @ ../GD32E230_Firmware_Library/GD32E230_standard_peripheral/Source/gd32e230_rcu.c:0:1
__arm_cp.25_0:
	.long	1073876992              @ 0x40021000
.Lcpi_end36:
	.size	__arm_cp.25_0, .Lcpi_end36-__arm_cp.25_0
.Lfunc_end25:
	.size	rcu_interrupt_enable, .Lfunc_end25-rcu_interrupt_enable
	.cfi_endproc
	.cantunwind
	.fnend
                                        @ -- End function
	.section	.text.rcu_interrupt_disable,"ax",%progbits
	.hidden	rcu_interrupt_disable   @ -- Begin function rcu_interrupt_disable
	.globl	rcu_interrupt_disable
	.p2align	2
	.type	rcu_interrupt_disable,%function
	.code	16                      @ @rcu_interrupt_disable
	.thumb_func
rcu_interrupt_disable:
.Lfunc_begin26:
	.loc	4 612 0 is_stmt 1       @ ../GD32E230_Firmware_Library/GD32E230_standard_peripheral/Source/gd32e230_rcu.c:612:0
	.fnstart
	.cfi_startproc
@ %bb.0:
	.save	{r4, lr}
	push	{r4, lr}
	.cfi_def_cfa_offset 8
	.cfi_offset lr, -4
	.cfi_offset r4, -8
	.pad	#4
	sub	sp, #4
	.cfi_def_cfa_offset 12
	mov	r1, r0
	mov	r2, sp
	strh	r0, [r2]
.Ltmp64:
	.loc	4 613 31 prologue_end   @ ../GD32E230_Firmware_Library/GD32E230_standard_peripheral/Source/gd32e230_rcu.c:613:31
	ldrh	r0, [r2]
	movs	r2, #31
	mov	r3, r0
	ands	r3, r2
	movs	r2, #1
	lsls	r2, r3
	.loc	4 613 5 is_stmt 0       @ ../GD32E230_Firmware_Library/GD32E230_standard_peripheral/Source/gd32e230_rcu.c:613:5
	lsrs	r0, r0, #6
	ldr	r3, __arm_cp.26_0
	.loc	4 613 27                @ ../GD32E230_Firmware_Library/GD32E230_standard_peripheral/Source/gd32e230_rcu.c:613:27
	ldr	r4, [r0, r3]
	bics	r4, r2
	str	r4, [r0, r3]
	.loc	4 614 1 is_stmt 1       @ ../GD32E230_Firmware_Library/GD32E230_standard_peripheral/Source/gd32e230_rcu.c:614:1
	add	sp, #4
	pop	{r4, pc}
.Ltmp65:
	.p2align	2
@ %bb.1:
	.loc	4 0 1 is_stmt 0         @ ../GD32E230_Firmware_Library/GD32E230_standard_peripheral/Source/gd32e230_rcu.c:0:1
__arm_cp.26_0:
	.long	1073876992              @ 0x40021000
.Lcpi_end37:
	.size	__arm_cp.26_0, .Lcpi_end37-__arm_cp.26_0
.Lfunc_end26:
	.size	rcu_interrupt_disable, .Lfunc_end26-rcu_interrupt_disable
	.cfi_endproc
	.cantunwind
	.fnend
                                        @ -- End function
	.section	.text.rcu_osci_stab_wait,"ax",%progbits
	.hidden	rcu_osci_stab_wait      @ -- Begin function rcu_osci_stab_wait
	.globl	rcu_osci_stab_wait
	.p2align	2
	.type	rcu_osci_stab_wait,%function
	.code	16                      @ @rcu_osci_stab_wait
	.thumb_func
rcu_osci_stab_wait:
.Lfunc_begin27:
	.loc	4 630 0 is_stmt 1       @ ../GD32E230_Firmware_Library/GD32E230_standard_peripheral/Source/gd32e230_rcu.c:630:0
	.fnstart
	.cfi_startproc
@ %bb.0:
	.save	{r7, lr}
	push	{r7, lr}
	.cfi_def_cfa_offset 8
	.cfi_offset lr, -4
	.cfi_offset r7, -8
	.pad	#48
	sub	sp, #48
	.cfi_def_cfa_offset 56
	mov	r1, r0
	add	r2, sp, #44
	strh	r0, [r2]
	movs	r0, #0
.Ltmp66:
	.loc	4 631 14 prologue_end   @ ../GD32E230_Firmware_Library/GD32E230_standard_peripheral/Source/gd32e230_rcu.c:631:14
	str	r0, [sp, #40]
	add	r3, sp, #36
	.loc	4 632 15                @ ../GD32E230_Firmware_Library/GD32E230_standard_peripheral/Source/gd32e230_rcu.c:632:15
	strb	r0, [r3]
	add	r3, sp, #32
	.loc	4 633 16                @ ../GD32E230_Firmware_Library/GD32E230_standard_peripheral/Source/gd32e230_rcu.c:633:16
	strb	r0, [r3]
	.loc	4 634 12                @ ../GD32E230_Firmware_Library/GD32E230_standard_peripheral/Source/gd32e230_rcu.c:634:12
	ldrh	r0, [r2]
	.loc	4 634 5 is_stmt 0       @ ../GD32E230_Firmware_Library/GD32E230_standard_peripheral/Source/gd32e230_rcu.c:634:5
	cmp	r0, #0
	str	r0, [sp, #28]           @ 4-byte Spill
	beq	.LBB27_22
	b	.LBB27_1
.LBB27_1:
	ldr	r0, [sp, #28]           @ 4-byte Reload
	cmp	r0, #16
	beq	.LBB27_6
	b	.LBB27_2
.LBB27_2:
	ldr	r0, [sp, #28]           @ 4-byte Reload
	cmp	r0, #24
	bne	.LBB27_3
	b	.LBB27_46
.LBB27_3:
	.loc	4 0 5                   @ ../GD32E230_Firmware_Library/GD32E230_standard_peripheral/Source/gd32e230_rcu.c:0:5
	movw	r0, #2048
	.loc	4 634 5                 @ ../GD32E230_Firmware_Library/GD32E230_standard_peripheral/Source/gd32e230_rcu.c:634:5
	ldr	r1, [sp, #28]           @ 4-byte Reload
	cmp	r1, r0
	beq	.LBB27_14
	b	.LBB27_4
.LBB27_4:
	.loc	4 0 5                   @ ../GD32E230_Firmware_Library/GD32E230_standard_peripheral/Source/gd32e230_rcu.c:0:5
	movw	r0, #2304
	.loc	4 634 5                 @ ../GD32E230_Firmware_Library/GD32E230_standard_peripheral/Source/gd32e230_rcu.c:634:5
	ldr	r1, [sp, #28]           @ 4-byte Reload
	cmp	r1, r0
	bne	.LBB27_5
	b	.LBB27_38
.LBB27_5:
	.loc	4 0 5                   @ ../GD32E230_Firmware_Library/GD32E230_standard_peripheral/Source/gd32e230_rcu.c:0:5
	movw	r0, #3328
	.loc	4 634 5                 @ ../GD32E230_Firmware_Library/GD32E230_standard_peripheral/Source/gd32e230_rcu.c:634:5
	ldr	r1, [sp, #28]           @ 4-byte Reload
	cmp	r1, r0
	beq	.LBB27_30
	b	.LBB27_54
.LBB27_6:
.Ltmp67:
	.loc	4 637 9 is_stmt 1       @ ../GD32E230_Firmware_Library/GD32E230_standard_peripheral/Source/gd32e230_rcu.c:637:9
	b	.LBB27_7
.LBB27_7:                               @ =>This Inner Loop Header: Depth=1
	.loc	4 0 9 is_stmt 0         @ ../GD32E230_Firmware_Library/GD32E230_standard_peripheral/Source/gd32e230_rcu.c:0:9
	add	r0, sp, #32
	.loc	4 637 25                @ ../GD32E230_Firmware_Library/GD32E230_standard_peripheral/Source/gd32e230_rcu.c:637:25
	ldrb	r0, [r0]
	movs	r1, #0
	.loc	4 637 36                @ ../GD32E230_Firmware_Library/GD32E230_standard_peripheral/Source/gd32e230_rcu.c:637:36
	cmp	r0, #0
	str	r1, [sp, #24]           @ 4-byte Spill
	bne	.LBB27_9
	b	.LBB27_8
.LBB27_8:                               @   in Loop: Header=BB27_7 Depth=1
	.loc	4 637 65                @ ../GD32E230_Firmware_Library/GD32E230_standard_peripheral/Source/gd32e230_rcu.c:637:65
	ldr	r0, [sp, #40]
	movw	r1, #2048
	.loc	4 637 62                @ ../GD32E230_Firmware_Library/GD32E230_standard_peripheral/Source/gd32e230_rcu.c:637:62
	subs	r0, r0, r1
	subs	r1, r0, #1
	sbcs	r0, r1
	str	r0, [sp, #24]           @ 4-byte Spill
	b	.LBB27_9
.LBB27_9:                               @   in Loop: Header=BB27_7 Depth=1
	.loc	4 0 0                   @ ../GD32E230_Firmware_Library/GD32E230_standard_peripheral/Source/gd32e230_rcu.c:0:0
	ldr	r0, [sp, #24]           @ 4-byte Reload
	.loc	4 637 9                 @ ../GD32E230_Firmware_Library/GD32E230_standard_peripheral/Source/gd32e230_rcu.c:637:9
	lsls	r0, r0, #31
	cmp	r0, #0
	beq	.LBB27_11
	b	.LBB27_10
.LBB27_10:                              @   in Loop: Header=BB27_7 Depth=1
	.loc	4 0 9                   @ ../GD32E230_Firmware_Library/GD32E230_standard_peripheral/Source/gd32e230_rcu.c:0:9
	movs	r0, #17
.Ltmp68:
	.loc	4 638 25 is_stmt 1      @ ../GD32E230_Firmware_Library/GD32E230_standard_peripheral/Source/gd32e230_rcu.c:638:25
	bl	rcu_flag_get
	add	r1, sp, #32
	.loc	4 638 23 is_stmt 0      @ ../GD32E230_Firmware_Library/GD32E230_standard_peripheral/Source/gd32e230_rcu.c:638:23
	strb	r0, [r1]
	.loc	4 639 20 is_stmt 1      @ ../GD32E230_Firmware_Library/GD32E230_standard_peripheral/Source/gd32e230_rcu.c:639:20
	ldr	r0, [sp, #40]
	adds	r0, r0, #1
	str	r0, [sp, #40]
.Ltmp69:
	.loc	4 637 9                 @ ../GD32E230_Firmware_Library/GD32E230_standard_peripheral/Source/gd32e230_rcu.c:637:9
	b	.LBB27_7
.LBB27_11:
	.loc	4 0 9 is_stmt 0         @ ../GD32E230_Firmware_Library/GD32E230_standard_peripheral/Source/gd32e230_rcu.c:0:9
	movs	r0, #17
.Ltmp70:
	.loc	4 642 21 is_stmt 1      @ ../GD32E230_Firmware_Library/GD32E230_standard_peripheral/Source/gd32e230_rcu.c:642:21
	bl	rcu_flag_get
.Ltmp71:
	.loc	4 642 12 is_stmt 0      @ ../GD32E230_Firmware_Library/GD32E230_standard_peripheral/Source/gd32e230_rcu.c:642:12
	cmp	r0, #0
	beq	.LBB27_13
	b	.LBB27_12
.LBB27_12:
	.loc	4 0 12                  @ ../GD32E230_Firmware_Library/GD32E230_standard_peripheral/Source/gd32e230_rcu.c:0:12
	add	r0, sp, #36
	movs	r1, #1
.Ltmp72:
	.loc	4 643 19 is_stmt 1      @ ../GD32E230_Firmware_Library/GD32E230_standard_peripheral/Source/gd32e230_rcu.c:643:19
	strb	r1, [r0]
	.loc	4 644 9                 @ ../GD32E230_Firmware_Library/GD32E230_standard_peripheral/Source/gd32e230_rcu.c:644:9
	b	.LBB27_13
.Ltmp73:
.LBB27_13:
	.loc	4 645 9                 @ ../GD32E230_Firmware_Library/GD32E230_standard_peripheral/Source/gd32e230_rcu.c:645:9
	b	.LBB27_55
.LBB27_14:
	.loc	4 649 9                 @ ../GD32E230_Firmware_Library/GD32E230_standard_peripheral/Source/gd32e230_rcu.c:649:9
	b	.LBB27_15
.LBB27_15:                              @ =>This Inner Loop Header: Depth=1
	.loc	4 0 9 is_stmt 0         @ ../GD32E230_Firmware_Library/GD32E230_standard_peripheral/Source/gd32e230_rcu.c:0:9
	add	r0, sp, #32
	.loc	4 649 25                @ ../GD32E230_Firmware_Library/GD32E230_standard_peripheral/Source/gd32e230_rcu.c:649:25
	ldrb	r0, [r0]
	movs	r1, #0
	.loc	4 649 36                @ ../GD32E230_Firmware_Library/GD32E230_standard_peripheral/Source/gd32e230_rcu.c:649:36
	cmp	r0, #0
	str	r1, [sp, #20]           @ 4-byte Spill
	bne	.LBB27_17
	b	.LBB27_16
.LBB27_16:                              @   in Loop: Header=BB27_15 Depth=1
	.loc	4 649 65                @ ../GD32E230_Firmware_Library/GD32E230_standard_peripheral/Source/gd32e230_rcu.c:649:65
	ldr	r0, [sp, #40]
	ldr	r1, __arm_cp.27_3
	.loc	4 649 62                @ ../GD32E230_Firmware_Library/GD32E230_standard_peripheral/Source/gd32e230_rcu.c:649:62
	subs	r0, r0, r1
	subs	r1, r0, #1
	sbcs	r0, r1
	str	r0, [sp, #20]           @ 4-byte Spill
	b	.LBB27_17
.LBB27_17:                              @   in Loop: Header=BB27_15 Depth=1
	.loc	4 0 0                   @ ../GD32E230_Firmware_Library/GD32E230_standard_peripheral/Source/gd32e230_rcu.c:0:0
	ldr	r0, [sp, #20]           @ 4-byte Reload
	.loc	4 649 9                 @ ../GD32E230_Firmware_Library/GD32E230_standard_peripheral/Source/gd32e230_rcu.c:649:9
	lsls	r0, r0, #31
	cmp	r0, #0
	beq	.LBB27_19
	b	.LBB27_18
.LBB27_18:                              @   in Loop: Header=BB27_15 Depth=1
	.loc	4 0 9                   @ ../GD32E230_Firmware_Library/GD32E230_standard_peripheral/Source/gd32e230_rcu.c:0:9
	ldr	r0, __arm_cp.27_4
.Ltmp74:
	.loc	4 650 25 is_stmt 1      @ ../GD32E230_Firmware_Library/GD32E230_standard_peripheral/Source/gd32e230_rcu.c:650:25
	bl	rcu_flag_get
	add	r1, sp, #32
	.loc	4 650 23 is_stmt 0      @ ../GD32E230_Firmware_Library/GD32E230_standard_peripheral/Source/gd32e230_rcu.c:650:23
	strb	r0, [r1]
	.loc	4 651 20 is_stmt 1      @ ../GD32E230_Firmware_Library/GD32E230_standard_peripheral/Source/gd32e230_rcu.c:651:20
	ldr	r0, [sp, #40]
	adds	r0, r0, #1
	str	r0, [sp, #40]
.Ltmp75:
	.loc	4 649 9                 @ ../GD32E230_Firmware_Library/GD32E230_standard_peripheral/Source/gd32e230_rcu.c:649:9
	b	.LBB27_15
.LBB27_19:
	.loc	4 0 9 is_stmt 0         @ ../GD32E230_Firmware_Library/GD32E230_standard_peripheral/Source/gd32e230_rcu.c:0:9
	ldr	r0, __arm_cp.27_4
.Ltmp76:
	.loc	4 654 21 is_stmt 1      @ ../GD32E230_Firmware_Library/GD32E230_standard_peripheral/Source/gd32e230_rcu.c:654:21
	bl	rcu_flag_get
.Ltmp77:
	.loc	4 654 12 is_stmt 0      @ ../GD32E230_Firmware_Library/GD32E230_standard_peripheral/Source/gd32e230_rcu.c:654:12
	cmp	r0, #0
	beq	.LBB27_21
	b	.LBB27_20
.LBB27_20:
	.loc	4 0 12                  @ ../GD32E230_Firmware_Library/GD32E230_standard_peripheral/Source/gd32e230_rcu.c:0:12
	add	r0, sp, #36
	movs	r1, #1
.Ltmp78:
	.loc	4 655 19 is_stmt 1      @ ../GD32E230_Firmware_Library/GD32E230_standard_peripheral/Source/gd32e230_rcu.c:655:19
	strb	r1, [r0]
	.loc	4 656 9                 @ ../GD32E230_Firmware_Library/GD32E230_standard_peripheral/Source/gd32e230_rcu.c:656:9
	b	.LBB27_21
.Ltmp79:
.LBB27_21:
	.loc	4 657 9                 @ ../GD32E230_Firmware_Library/GD32E230_standard_peripheral/Source/gd32e230_rcu.c:657:9
	b	.LBB27_55
.LBB27_22:
	.loc	4 661 9                 @ ../GD32E230_Firmware_Library/GD32E230_standard_peripheral/Source/gd32e230_rcu.c:661:9
	b	.LBB27_23
.LBB27_23:                              @ =>This Inner Loop Header: Depth=1
	.loc	4 0 9 is_stmt 0         @ ../GD32E230_Firmware_Library/GD32E230_standard_peripheral/Source/gd32e230_rcu.c:0:9
	add	r0, sp, #32
	.loc	4 661 25                @ ../GD32E230_Firmware_Library/GD32E230_standard_peripheral/Source/gd32e230_rcu.c:661:25
	ldrb	r0, [r0]
	movs	r1, #0
	.loc	4 661 36                @ ../GD32E230_Firmware_Library/GD32E230_standard_peripheral/Source/gd32e230_rcu.c:661:36
	cmp	r0, #0
	str	r1, [sp, #16]           @ 4-byte Spill
	bne	.LBB27_25
	b	.LBB27_24
.LBB27_24:                              @   in Loop: Header=BB27_23 Depth=1
	.loc	4 661 65                @ ../GD32E230_Firmware_Library/GD32E230_standard_peripheral/Source/gd32e230_rcu.c:661:65
	ldr	r0, [sp, #40]
	movw	r1, #1280
	.loc	4 661 62                @ ../GD32E230_Firmware_Library/GD32E230_standard_peripheral/Source/gd32e230_rcu.c:661:62
	subs	r0, r0, r1
	subs	r1, r0, #1
	sbcs	r0, r1
	str	r0, [sp, #16]           @ 4-byte Spill
	b	.LBB27_25
.LBB27_25:                              @   in Loop: Header=BB27_23 Depth=1
	.loc	4 0 0                   @ ../GD32E230_Firmware_Library/GD32E230_standard_peripheral/Source/gd32e230_rcu.c:0:0
	ldr	r0, [sp, #16]           @ 4-byte Reload
	.loc	4 661 9                 @ ../GD32E230_Firmware_Library/GD32E230_standard_peripheral/Source/gd32e230_rcu.c:661:9
	lsls	r0, r0, #31
	cmp	r0, #0
	beq	.LBB27_27
	b	.LBB27_26
.LBB27_26:                              @   in Loop: Header=BB27_23 Depth=1
	.loc	4 0 9                   @ ../GD32E230_Firmware_Library/GD32E230_standard_peripheral/Source/gd32e230_rcu.c:0:9
	movs	r0, #1
.Ltmp80:
	.loc	4 662 25 is_stmt 1      @ ../GD32E230_Firmware_Library/GD32E230_standard_peripheral/Source/gd32e230_rcu.c:662:25
	bl	rcu_flag_get
	add	r1, sp, #32
	.loc	4 662 23 is_stmt 0      @ ../GD32E230_Firmware_Library/GD32E230_standard_peripheral/Source/gd32e230_rcu.c:662:23
	strb	r0, [r1]
	.loc	4 663 20 is_stmt 1      @ ../GD32E230_Firmware_Library/GD32E230_standard_peripheral/Source/gd32e230_rcu.c:663:20
	ldr	r0, [sp, #40]
	adds	r0, r0, #1
	str	r0, [sp, #40]
.Ltmp81:
	.loc	4 661 9                 @ ../GD32E230_Firmware_Library/GD32E230_standard_peripheral/Source/gd32e230_rcu.c:661:9
	b	.LBB27_23
.LBB27_27:
	.loc	4 0 9 is_stmt 0         @ ../GD32E230_Firmware_Library/GD32E230_standard_peripheral/Source/gd32e230_rcu.c:0:9
	movs	r0, #1
.Ltmp82:
	.loc	4 666 21 is_stmt 1      @ ../GD32E230_Firmware_Library/GD32E230_standard_peripheral/Source/gd32e230_rcu.c:666:21
	bl	rcu_flag_get
.Ltmp83:
	.loc	4 666 12 is_stmt 0      @ ../GD32E230_Firmware_Library/GD32E230_standard_peripheral/Source/gd32e230_rcu.c:666:12
	cmp	r0, #0
	beq	.LBB27_29
	b	.LBB27_28
.LBB27_28:
	.loc	4 0 12                  @ ../GD32E230_Firmware_Library/GD32E230_standard_peripheral/Source/gd32e230_rcu.c:0:12
	add	r0, sp, #36
	movs	r1, #1
.Ltmp84:
	.loc	4 667 19 is_stmt 1      @ ../GD32E230_Firmware_Library/GD32E230_standard_peripheral/Source/gd32e230_rcu.c:667:19
	strb	r1, [r0]
	.loc	4 668 9                 @ ../GD32E230_Firmware_Library/GD32E230_standard_peripheral/Source/gd32e230_rcu.c:668:9
	b	.LBB27_29
.Ltmp85:
.LBB27_29:
	.loc	4 669 9                 @ ../GD32E230_Firmware_Library/GD32E230_standard_peripheral/Source/gd32e230_rcu.c:669:9
	b	.LBB27_55
.LBB27_30:
	.loc	4 673 9                 @ ../GD32E230_Firmware_Library/GD32E230_standard_peripheral/Source/gd32e230_rcu.c:673:9
	b	.LBB27_31
.LBB27_31:                              @ =>This Inner Loop Header: Depth=1
	.loc	4 0 9 is_stmt 0         @ ../GD32E230_Firmware_Library/GD32E230_standard_peripheral/Source/gd32e230_rcu.c:0:9
	add	r0, sp, #32
	.loc	4 673 25                @ ../GD32E230_Firmware_Library/GD32E230_standard_peripheral/Source/gd32e230_rcu.c:673:25
	ldrb	r0, [r0]
	movs	r1, #0
	.loc	4 673 36                @ ../GD32E230_Firmware_Library/GD32E230_standard_peripheral/Source/gd32e230_rcu.c:673:36
	cmp	r0, #0
	str	r1, [sp, #12]           @ 4-byte Spill
	bne	.LBB27_33
	b	.LBB27_32
.LBB27_32:                              @   in Loop: Header=BB27_31 Depth=1
	.loc	4 673 63                @ ../GD32E230_Firmware_Library/GD32E230_standard_peripheral/Source/gd32e230_rcu.c:673:63
	ldr	r0, [sp, #40]
	ldr	r1, __arm_cp.27_0
	.loc	4 673 60                @ ../GD32E230_Firmware_Library/GD32E230_standard_peripheral/Source/gd32e230_rcu.c:673:60
	subs	r0, r0, r1
	subs	r1, r0, #1
	sbcs	r0, r1
	str	r0, [sp, #12]           @ 4-byte Spill
	b	.LBB27_33
.LBB27_33:                              @   in Loop: Header=BB27_31 Depth=1
	.loc	4 0 0                   @ ../GD32E230_Firmware_Library/GD32E230_standard_peripheral/Source/gd32e230_rcu.c:0:0
	ldr	r0, [sp, #12]           @ 4-byte Reload
	.loc	4 673 9                 @ ../GD32E230_Firmware_Library/GD32E230_standard_peripheral/Source/gd32e230_rcu.c:673:9
	lsls	r0, r0, #31
	cmp	r0, #0
	beq	.LBB27_35
	b	.LBB27_34
.LBB27_34:                              @   in Loop: Header=BB27_31 Depth=1
	.loc	4 0 9                   @ ../GD32E230_Firmware_Library/GD32E230_standard_peripheral/Source/gd32e230_rcu.c:0:9
	ldr	r0, __arm_cp.27_2
.Ltmp86:
	.loc	4 674 25 is_stmt 1      @ ../GD32E230_Firmware_Library/GD32E230_standard_peripheral/Source/gd32e230_rcu.c:674:25
	bl	rcu_flag_get
	add	r1, sp, #32
	.loc	4 674 23 is_stmt 0      @ ../GD32E230_Firmware_Library/GD32E230_standard_peripheral/Source/gd32e230_rcu.c:674:23
	strb	r0, [r1]
	.loc	4 675 20 is_stmt 1      @ ../GD32E230_Firmware_Library/GD32E230_standard_peripheral/Source/gd32e230_rcu.c:675:20
	ldr	r0, [sp, #40]
	adds	r0, r0, #1
	str	r0, [sp, #40]
.Ltmp87:
	.loc	4 673 9                 @ ../GD32E230_Firmware_Library/GD32E230_standard_peripheral/Source/gd32e230_rcu.c:673:9
	b	.LBB27_31
.LBB27_35:
	.loc	4 0 9 is_stmt 0         @ ../GD32E230_Firmware_Library/GD32E230_standard_peripheral/Source/gd32e230_rcu.c:0:9
	ldr	r0, __arm_cp.27_2
.Ltmp88:
	.loc	4 678 21 is_stmt 1      @ ../GD32E230_Firmware_Library/GD32E230_standard_peripheral/Source/gd32e230_rcu.c:678:21
	bl	rcu_flag_get
.Ltmp89:
	.loc	4 678 12 is_stmt 0      @ ../GD32E230_Firmware_Library/GD32E230_standard_peripheral/Source/gd32e230_rcu.c:678:12
	cmp	r0, #0
	beq	.LBB27_37
	b	.LBB27_36
.LBB27_36:
	.loc	4 0 12                  @ ../GD32E230_Firmware_Library/GD32E230_standard_peripheral/Source/gd32e230_rcu.c:0:12
	add	r0, sp, #36
	movs	r1, #1
.Ltmp90:
	.loc	4 679 19 is_stmt 1      @ ../GD32E230_Firmware_Library/GD32E230_standard_peripheral/Source/gd32e230_rcu.c:679:19
	strb	r1, [r0]
	.loc	4 680 9                 @ ../GD32E230_Firmware_Library/GD32E230_standard_peripheral/Source/gd32e230_rcu.c:680:9
	b	.LBB27_37
.Ltmp91:
.LBB27_37:
	.loc	4 681 9                 @ ../GD32E230_Firmware_Library/GD32E230_standard_peripheral/Source/gd32e230_rcu.c:681:9
	b	.LBB27_55
.LBB27_38:
	.loc	4 685 9                 @ ../GD32E230_Firmware_Library/GD32E230_standard_peripheral/Source/gd32e230_rcu.c:685:9
	b	.LBB27_39
.LBB27_39:                              @ =>This Inner Loop Header: Depth=1
	.loc	4 0 9 is_stmt 0         @ ../GD32E230_Firmware_Library/GD32E230_standard_peripheral/Source/gd32e230_rcu.c:0:9
	add	r0, sp, #32
	.loc	4 685 25                @ ../GD32E230_Firmware_Library/GD32E230_standard_peripheral/Source/gd32e230_rcu.c:685:25
	ldrb	r0, [r0]
	movs	r1, #0
	.loc	4 685 36                @ ../GD32E230_Firmware_Library/GD32E230_standard_peripheral/Source/gd32e230_rcu.c:685:36
	cmp	r0, #0
	str	r1, [sp, #8]            @ 4-byte Spill
	bne	.LBB27_41
	b	.LBB27_40
.LBB27_40:                              @   in Loop: Header=BB27_39 Depth=1
	.loc	4 685 63                @ ../GD32E230_Firmware_Library/GD32E230_standard_peripheral/Source/gd32e230_rcu.c:685:63
	ldr	r0, [sp, #40]
	ldr	r1, __arm_cp.27_0
	.loc	4 685 60                @ ../GD32E230_Firmware_Library/GD32E230_standard_peripheral/Source/gd32e230_rcu.c:685:60
	subs	r0, r0, r1
	subs	r1, r0, #1
	sbcs	r0, r1
	str	r0, [sp, #8]            @ 4-byte Spill
	b	.LBB27_41
.LBB27_41:                              @   in Loop: Header=BB27_39 Depth=1
	.loc	4 0 0                   @ ../GD32E230_Firmware_Library/GD32E230_standard_peripheral/Source/gd32e230_rcu.c:0:0
	ldr	r0, [sp, #8]            @ 4-byte Reload
	.loc	4 685 9                 @ ../GD32E230_Firmware_Library/GD32E230_standard_peripheral/Source/gd32e230_rcu.c:685:9
	lsls	r0, r0, #31
	cmp	r0, #0
	beq	.LBB27_43
	b	.LBB27_42
.LBB27_42:                              @   in Loop: Header=BB27_39 Depth=1
	.loc	4 0 9                   @ ../GD32E230_Firmware_Library/GD32E230_standard_peripheral/Source/gd32e230_rcu.c:0:9
	ldr	r0, __arm_cp.27_1
.Ltmp92:
	.loc	4 686 25 is_stmt 1      @ ../GD32E230_Firmware_Library/GD32E230_standard_peripheral/Source/gd32e230_rcu.c:686:25
	bl	rcu_flag_get
	add	r1, sp, #32
	.loc	4 686 23 is_stmt 0      @ ../GD32E230_Firmware_Library/GD32E230_standard_peripheral/Source/gd32e230_rcu.c:686:23
	strb	r0, [r1]
	.loc	4 687 20 is_stmt 1      @ ../GD32E230_Firmware_Library/GD32E230_standard_peripheral/Source/gd32e230_rcu.c:687:20
	ldr	r0, [sp, #40]
	adds	r0, r0, #1
	str	r0, [sp, #40]
.Ltmp93:
	.loc	4 685 9                 @ ../GD32E230_Firmware_Library/GD32E230_standard_peripheral/Source/gd32e230_rcu.c:685:9
	b	.LBB27_39
.LBB27_43:
	.loc	4 0 9 is_stmt 0         @ ../GD32E230_Firmware_Library/GD32E230_standard_peripheral/Source/gd32e230_rcu.c:0:9
	ldr	r0, __arm_cp.27_1
.Ltmp94:
	.loc	4 690 21 is_stmt 1      @ ../GD32E230_Firmware_Library/GD32E230_standard_peripheral/Source/gd32e230_rcu.c:690:21
	bl	rcu_flag_get
.Ltmp95:
	.loc	4 690 12 is_stmt 0      @ ../GD32E230_Firmware_Library/GD32E230_standard_peripheral/Source/gd32e230_rcu.c:690:12
	cmp	r0, #0
	beq	.LBB27_45
	b	.LBB27_44
.LBB27_44:
	.loc	4 0 12                  @ ../GD32E230_Firmware_Library/GD32E230_standard_peripheral/Source/gd32e230_rcu.c:0:12
	add	r0, sp, #36
	movs	r1, #1
.Ltmp96:
	.loc	4 691 19 is_stmt 1      @ ../GD32E230_Firmware_Library/GD32E230_standard_peripheral/Source/gd32e230_rcu.c:691:19
	strb	r1, [r0]
	.loc	4 692 9                 @ ../GD32E230_Firmware_Library/GD32E230_standard_peripheral/Source/gd32e230_rcu.c:692:9
	b	.LBB27_45
.Ltmp97:
.LBB27_45:
	.loc	4 693 9                 @ ../GD32E230_Firmware_Library/GD32E230_standard_peripheral/Source/gd32e230_rcu.c:693:9
	b	.LBB27_55
.LBB27_46:
	.loc	4 697 9                 @ ../GD32E230_Firmware_Library/GD32E230_standard_peripheral/Source/gd32e230_rcu.c:697:9
	b	.LBB27_47
.LBB27_47:                              @ =>This Inner Loop Header: Depth=1
	.loc	4 0 9 is_stmt 0         @ ../GD32E230_Firmware_Library/GD32E230_standard_peripheral/Source/gd32e230_rcu.c:0:9
	add	r0, sp, #32
	.loc	4 697 25                @ ../GD32E230_Firmware_Library/GD32E230_standard_peripheral/Source/gd32e230_rcu.c:697:25
	ldrb	r0, [r0]
	movs	r1, #0
	.loc	4 697 36                @ ../GD32E230_Firmware_Library/GD32E230_standard_peripheral/Source/gd32e230_rcu.c:697:36
	cmp	r0, #0
	str	r1, [sp, #4]            @ 4-byte Spill
	bne	.LBB27_49
	b	.LBB27_48
.LBB27_48:                              @   in Loop: Header=BB27_47 Depth=1
	.loc	4 697 63                @ ../GD32E230_Firmware_Library/GD32E230_standard_peripheral/Source/gd32e230_rcu.c:697:63
	ldr	r0, [sp, #40]
	ldr	r1, __arm_cp.27_0
	.loc	4 697 60                @ ../GD32E230_Firmware_Library/GD32E230_standard_peripheral/Source/gd32e230_rcu.c:697:60
	subs	r0, r0, r1
	subs	r1, r0, #1
	sbcs	r0, r1
	str	r0, [sp, #4]            @ 4-byte Spill
	b	.LBB27_49
.LBB27_49:                              @   in Loop: Header=BB27_47 Depth=1
	.loc	4 0 0                   @ ../GD32E230_Firmware_Library/GD32E230_standard_peripheral/Source/gd32e230_rcu.c:0:0
	ldr	r0, [sp, #4]            @ 4-byte Reload
	.loc	4 697 9                 @ ../GD32E230_Firmware_Library/GD32E230_standard_peripheral/Source/gd32e230_rcu.c:697:9
	lsls	r0, r0, #31
	cmp	r0, #0
	beq	.LBB27_51
	b	.LBB27_50
.LBB27_50:                              @   in Loop: Header=BB27_47 Depth=1
	.loc	4 0 9                   @ ../GD32E230_Firmware_Library/GD32E230_standard_peripheral/Source/gd32e230_rcu.c:0:9
	movs	r0, #25
.Ltmp98:
	.loc	4 698 25 is_stmt 1      @ ../GD32E230_Firmware_Library/GD32E230_standard_peripheral/Source/gd32e230_rcu.c:698:25
	bl	rcu_flag_get
	add	r1, sp, #32
	.loc	4 698 23 is_stmt 0      @ ../GD32E230_Firmware_Library/GD32E230_standard_peripheral/Source/gd32e230_rcu.c:698:23
	strb	r0, [r1]
	.loc	4 699 20 is_stmt 1      @ ../GD32E230_Firmware_Library/GD32E230_standard_peripheral/Source/gd32e230_rcu.c:699:20
	ldr	r0, [sp, #40]
	adds	r0, r0, #1
	str	r0, [sp, #40]
.Ltmp99:
	.loc	4 697 9                 @ ../GD32E230_Firmware_Library/GD32E230_standard_peripheral/Source/gd32e230_rcu.c:697:9
	b	.LBB27_47
.LBB27_51:
	.loc	4 0 9 is_stmt 0         @ ../GD32E230_Firmware_Library/GD32E230_standard_peripheral/Source/gd32e230_rcu.c:0:9
	movs	r0, #25
.Ltmp100:
	.loc	4 702 21 is_stmt 1      @ ../GD32E230_Firmware_Library/GD32E230_standard_peripheral/Source/gd32e230_rcu.c:702:21
	bl	rcu_flag_get
.Ltmp101:
	.loc	4 702 12 is_stmt 0      @ ../GD32E230_Firmware_Library/GD32E230_standard_peripheral/Source/gd32e230_rcu.c:702:12
	cmp	r0, #0
	beq	.LBB27_53
	b	.LBB27_52
.LBB27_52:
	.loc	4 0 12                  @ ../GD32E230_Firmware_Library/GD32E230_standard_peripheral/Source/gd32e230_rcu.c:0:12
	add	r0, sp, #36
	movs	r1, #1
.Ltmp102:
	.loc	4 703 19 is_stmt 1      @ ../GD32E230_Firmware_Library/GD32E230_standard_peripheral/Source/gd32e230_rcu.c:703:19
	strb	r1, [r0]
	.loc	4 704 9                 @ ../GD32E230_Firmware_Library/GD32E230_standard_peripheral/Source/gd32e230_rcu.c:704:9
	b	.LBB27_53
.Ltmp103:
.LBB27_53:
	.loc	4 705 9                 @ ../GD32E230_Firmware_Library/GD32E230_standard_peripheral/Source/gd32e230_rcu.c:705:9
	b	.LBB27_55
.LBB27_54:
	.loc	4 708 9                 @ ../GD32E230_Firmware_Library/GD32E230_standard_peripheral/Source/gd32e230_rcu.c:708:9
	b	.LBB27_55
.Ltmp104:
.LBB27_55:
	.loc	4 0 9 is_stmt 0         @ ../GD32E230_Firmware_Library/GD32E230_standard_peripheral/Source/gd32e230_rcu.c:0:9
	add	r0, sp, #36
	.loc	4 711 12 is_stmt 1      @ ../GD32E230_Firmware_Library/GD32E230_standard_peripheral/Source/gd32e230_rcu.c:711:12
	ldrb	r0, [r0]
	.loc	4 711 5 is_stmt 0       @ ../GD32E230_Firmware_Library/GD32E230_standard_peripheral/Source/gd32e230_rcu.c:711:5
	add	sp, #48
	pop	{r7, pc}
.Ltmp105:
	.p2align	2
@ %bb.56:
	.loc	4 0 5                   @ ../GD32E230_Firmware_Library/GD32E230_standard_peripheral/Source/gd32e230_rcu.c:0:5
__arm_cp.27_0:
	.long	1048575                 @ 0xfffff
.Lcpi_end38:
	.size	__arm_cp.27_0, .Lcpi_end38-__arm_cp.27_0
__arm_cp.27_1:
	.long	2305                    @ 0x901
.Lcpi_end39:
	.size	__arm_cp.27_1, .Lcpi_end39-__arm_cp.27_1
__arm_cp.27_2:
	.long	3329                    @ 0xd01
.Lcpi_end40:
	.size	__arm_cp.27_2, .Lcpi_end40-__arm_cp.27_2
__arm_cp.27_3:
	.long	67108863                @ 0x3ffffff
.Lcpi_end41:
	.size	__arm_cp.27_3, .Lcpi_end41-__arm_cp.27_3
__arm_cp.27_4:
	.long	2049                    @ 0x801
.Lcpi_end42:
	.size	__arm_cp.27_4, .Lcpi_end42-__arm_cp.27_4
.Lfunc_end27:
	.size	rcu_osci_stab_wait, .Lfunc_end27-rcu_osci_stab_wait
	.cfi_endproc
	.cantunwind
	.fnend
                                        @ -- End function
	.section	.text.rcu_osci_on,"ax",%progbits
	.hidden	rcu_osci_on             @ -- Begin function rcu_osci_on
	.globl	rcu_osci_on
	.p2align	2
	.type	rcu_osci_on,%function
	.code	16                      @ @rcu_osci_on
	.thumb_func
rcu_osci_on:
.Lfunc_begin28:
	.loc	4 728 0 is_stmt 1       @ ../GD32E230_Firmware_Library/GD32E230_standard_peripheral/Source/gd32e230_rcu.c:728:0
	.fnstart
	.cfi_startproc
@ %bb.0:
	.save	{r4, lr}
	push	{r4, lr}
	.cfi_def_cfa_offset 8
	.cfi_offset lr, -4
	.cfi_offset r4, -8
	.pad	#4
	sub	sp, #4
	.cfi_def_cfa_offset 12
	mov	r1, r0
	mov	r2, sp
	strh	r0, [r2]
.Ltmp106:
	.loc	4 729 26 prologue_end   @ ../GD32E230_Firmware_Library/GD32E230_standard_peripheral/Source/gd32e230_rcu.c:729:26
	ldrh	r0, [r2]
	movs	r2, #31
	mov	r3, r0
	ands	r3, r2
	movs	r2, #1
	lsls	r2, r3
	.loc	4 729 5 is_stmt 0       @ ../GD32E230_Firmware_Library/GD32E230_standard_peripheral/Source/gd32e230_rcu.c:729:5
	lsrs	r0, r0, #6
	ldr	r3, __arm_cp.28_0
	.loc	4 729 23                @ ../GD32E230_Firmware_Library/GD32E230_standard_peripheral/Source/gd32e230_rcu.c:729:23
	ldr	r4, [r0, r3]
	orrs	r4, r2
	str	r4, [r0, r3]
	.loc	4 730 1 is_stmt 1       @ ../GD32E230_Firmware_Library/GD32E230_standard_peripheral/Source/gd32e230_rcu.c:730:1
	add	sp, #4
	pop	{r4, pc}
.Ltmp107:
	.p2align	2
@ %bb.1:
	.loc	4 0 1 is_stmt 0         @ ../GD32E230_Firmware_Library/GD32E230_standard_peripheral/Source/gd32e230_rcu.c:0:1
__arm_cp.28_0:
	.long	1073876992              @ 0x40021000
.Lcpi_end43:
	.size	__arm_cp.28_0, .Lcpi_end43-__arm_cp.28_0
.Lfunc_end28:
	.size	rcu_osci_on, .Lfunc_end28-rcu_osci_on
	.cfi_endproc
	.cantunwind
	.fnend
                                        @ -- End function
	.section	.text.rcu_osci_off,"ax",%progbits
	.hidden	rcu_osci_off            @ -- Begin function rcu_osci_off
	.globl	rcu_osci_off
	.p2align	2
	.type	rcu_osci_off,%function
	.code	16                      @ @rcu_osci_off
	.thumb_func
rcu_osci_off:
.Lfunc_begin29:
	.loc	4 746 0 is_stmt 1       @ ../GD32E230_Firmware_Library/GD32E230_standard_peripheral/Source/gd32e230_rcu.c:746:0
	.fnstart
	.cfi_startproc
@ %bb.0:
	.save	{r4, lr}
	push	{r4, lr}
	.cfi_def_cfa_offset 8
	.cfi_offset lr, -4
	.cfi_offset r4, -8
	.pad	#4
	sub	sp, #4
	.cfi_def_cfa_offset 12
	mov	r1, r0
	mov	r2, sp
	strh	r0, [r2]
.Ltmp108:
	.loc	4 747 27 prologue_end   @ ../GD32E230_Firmware_Library/GD32E230_standard_peripheral/Source/gd32e230_rcu.c:747:27
	ldrh	r0, [r2]
	movs	r2, #31
	mov	r3, r0
	ands	r3, r2
	movs	r2, #1
	lsls	r2, r3
	.loc	4 747 5 is_stmt 0       @ ../GD32E230_Firmware_Library/GD32E230_standard_peripheral/Source/gd32e230_rcu.c:747:5
	lsrs	r0, r0, #6
	ldr	r3, __arm_cp.29_0
	.loc	4 747 23                @ ../GD32E230_Firmware_Library/GD32E230_standard_peripheral/Source/gd32e230_rcu.c:747:23
	ldr	r4, [r0, r3]
	bics	r4, r2
	str	r4, [r0, r3]
	.loc	4 748 1 is_stmt 1       @ ../GD32E230_Firmware_Library/GD32E230_standard_peripheral/Source/gd32e230_rcu.c:748:1
	add	sp, #4
	pop	{r4, pc}
.Ltmp109:
	.p2align	2
@ %bb.1:
	.loc	4 0 1 is_stmt 0         @ ../GD32E230_Firmware_Library/GD32E230_standard_peripheral/Source/gd32e230_rcu.c:0:1
__arm_cp.29_0:
	.long	1073876992              @ 0x40021000
.Lcpi_end44:
	.size	__arm_cp.29_0, .Lcpi_end44-__arm_cp.29_0
.Lfunc_end29:
	.size	rcu_osci_off, .Lfunc_end29-rcu_osci_off
	.cfi_endproc
	.cantunwind
	.fnend
                                        @ -- End function
	.section	.text.rcu_osci_bypass_mode_enable,"ax",%progbits
	.hidden	rcu_osci_bypass_mode_enable @ -- Begin function rcu_osci_bypass_mode_enable
	.globl	rcu_osci_bypass_mode_enable
	.p2align	2
	.type	rcu_osci_bypass_mode_enable,%function
	.code	16                      @ @rcu_osci_bypass_mode_enable
	.thumb_func
rcu_osci_bypass_mode_enable:
.Lfunc_begin30:
	.loc	4 760 0 is_stmt 1       @ ../GD32E230_Firmware_Library/GD32E230_standard_peripheral/Source/gd32e230_rcu.c:760:0
	.fnstart
	.cfi_startproc
@ %bb.0:
	.pad	#12
	sub	sp, #12
	.cfi_def_cfa_offset 12
	mov	r1, r0
	add	r2, sp, #8
	strh	r0, [r2]
.Ltmp110:
	.loc	4 762 12 prologue_end   @ ../GD32E230_Firmware_Library/GD32E230_standard_peripheral/Source/gd32e230_rcu.c:762:12
	ldrh	r0, [r2]
	.loc	4 762 5 is_stmt 0       @ ../GD32E230_Firmware_Library/GD32E230_standard_peripheral/Source/gd32e230_rcu.c:762:5
	cmp	r0, #0
	str	r0, [sp]                @ 4-byte Spill
	beq	.LBB30_8
	b	.LBB30_1
.LBB30_1:
	ldr	r0, [sp]                @ 4-byte Reload
	cmp	r0, #16
	beq	.LBB30_6
	b	.LBB30_2
.LBB30_2:
	ldr	r0, [sp]                @ 4-byte Reload
	cmp	r0, #24
	beq	.LBB30_8
	b	.LBB30_3
.LBB30_3:
	.loc	4 0 5                   @ ../GD32E230_Firmware_Library/GD32E230_standard_peripheral/Source/gd32e230_rcu.c:0:5
	movw	r0, #2048
	.loc	4 762 5                 @ ../GD32E230_Firmware_Library/GD32E230_standard_peripheral/Source/gd32e230_rcu.c:762:5
	ldr	r1, [sp]                @ 4-byte Reload
	cmp	r1, r0
	beq	.LBB30_7
	b	.LBB30_4
.LBB30_4:
	.loc	4 0 5                   @ ../GD32E230_Firmware_Library/GD32E230_standard_peripheral/Source/gd32e230_rcu.c:0:5
	movw	r0, #2304
	.loc	4 762 5                 @ ../GD32E230_Firmware_Library/GD32E230_standard_peripheral/Source/gd32e230_rcu.c:762:5
	ldr	r1, [sp]                @ 4-byte Reload
	cmp	r1, r0
	beq	.LBB30_8
	b	.LBB30_5
.LBB30_5:
	.loc	4 0 5                   @ ../GD32E230_Firmware_Library/GD32E230_standard_peripheral/Source/gd32e230_rcu.c:0:5
	movw	r0, #3328
	.loc	4 762 5                 @ ../GD32E230_Firmware_Library/GD32E230_standard_peripheral/Source/gd32e230_rcu.c:762:5
	ldr	r1, [sp]                @ 4-byte Reload
	cmp	r1, r0
	beq	.LBB30_8
	b	.LBB30_9
.LBB30_6:
	.loc	4 0 5                   @ ../GD32E230_Firmware_Library/GD32E230_standard_peripheral/Source/gd32e230_rcu.c:0:5
	ldr	r0, __arm_cp.30_1
.Ltmp111:
	.loc	4 765 15 is_stmt 1      @ ../GD32E230_Firmware_Library/GD32E230_standard_peripheral/Source/gd32e230_rcu.c:765:15
	ldr	r1, [r0]
	.loc	4 765 13 is_stmt 0      @ ../GD32E230_Firmware_Library/GD32E230_standard_peripheral/Source/gd32e230_rcu.c:765:13
	str	r1, [sp, #4]
	.loc	4 766 18 is_stmt 1      @ ../GD32E230_Firmware_Library/GD32E230_standard_peripheral/Source/gd32e230_rcu.c:766:18
	ldr	r1, [r0]
	movs	r2, #1
	lsls	r3, r2, #16
	bics	r1, r3
	str	r1, [r0]
	.loc	4 767 21                @ ../GD32E230_Firmware_Library/GD32E230_standard_peripheral/Source/gd32e230_rcu.c:767:21
	ldr	r1, [sp, #4]
	lsls	r2, r2, #18
	.loc	4 767 25 is_stmt 0      @ ../GD32E230_Firmware_Library/GD32E230_standard_peripheral/Source/gd32e230_rcu.c:767:25
	orrs	r1, r2
	.loc	4 767 18                @ ../GD32E230_Firmware_Library/GD32E230_standard_peripheral/Source/gd32e230_rcu.c:767:18
	str	r1, [r0]
	.loc	4 768 9 is_stmt 1       @ ../GD32E230_Firmware_Library/GD32E230_standard_peripheral/Source/gd32e230_rcu.c:768:9
	b	.LBB30_10
.LBB30_7:
	.loc	4 0 9 is_stmt 0         @ ../GD32E230_Firmware_Library/GD32E230_standard_peripheral/Source/gd32e230_rcu.c:0:9
	ldr	r0, __arm_cp.30_0
	.loc	4 771 15 is_stmt 1      @ ../GD32E230_Firmware_Library/GD32E230_standard_peripheral/Source/gd32e230_rcu.c:771:15
	ldr	r1, [r0]
	.loc	4 771 13 is_stmt 0      @ ../GD32E230_Firmware_Library/GD32E230_standard_peripheral/Source/gd32e230_rcu.c:771:13
	str	r1, [sp, #4]
	.loc	4 772 19 is_stmt 1      @ ../GD32E230_Firmware_Library/GD32E230_standard_peripheral/Source/gd32e230_rcu.c:772:19
	ldr	r1, [r0]
	movs	r2, #1
	bics	r1, r2
	str	r1, [r0]
	.loc	4 773 22                @ ../GD32E230_Firmware_Library/GD32E230_standard_peripheral/Source/gd32e230_rcu.c:773:22
	ldr	r1, [sp, #4]
	movs	r2, #4
	.loc	4 773 26 is_stmt 0      @ ../GD32E230_Firmware_Library/GD32E230_standard_peripheral/Source/gd32e230_rcu.c:773:26
	orrs	r1, r2
	.loc	4 773 19                @ ../GD32E230_Firmware_Library/GD32E230_standard_peripheral/Source/gd32e230_rcu.c:773:19
	str	r1, [r0]
	.loc	4 774 9 is_stmt 1       @ ../GD32E230_Firmware_Library/GD32E230_standard_peripheral/Source/gd32e230_rcu.c:774:9
	b	.LBB30_10
.LBB30_8:
	.loc	4 779 9                 @ ../GD32E230_Firmware_Library/GD32E230_standard_peripheral/Source/gd32e230_rcu.c:779:9
	b	.LBB30_10
.LBB30_9:
	.loc	4 781 9                 @ ../GD32E230_Firmware_Library/GD32E230_standard_peripheral/Source/gd32e230_rcu.c:781:9
	b	.LBB30_10
.Ltmp112:
.LBB30_10:
	.loc	4 783 1                 @ ../GD32E230_Firmware_Library/GD32E230_standard_peripheral/Source/gd32e230_rcu.c:783:1
	add	sp, #12
	bx	lr
.Ltmp113:
	.p2align	2
@ %bb.11:
	.loc	4 0 1 is_stmt 0         @ ../GD32E230_Firmware_Library/GD32E230_standard_peripheral/Source/gd32e230_rcu.c:0:1
__arm_cp.30_0:
	.long	1073877024              @ 0x40021020
.Lcpi_end45:
	.size	__arm_cp.30_0, .Lcpi_end45-__arm_cp.30_0
__arm_cp.30_1:
	.long	1073876992              @ 0x40021000
.Lcpi_end46:
	.size	__arm_cp.30_1, .Lcpi_end46-__arm_cp.30_1
.Lfunc_end30:
	.size	rcu_osci_bypass_mode_enable, .Lfunc_end30-rcu_osci_bypass_mode_enable
	.cfi_endproc
	.cantunwind
	.fnend
                                        @ -- End function
	.section	.text.rcu_osci_bypass_mode_disable,"ax",%progbits
	.hidden	rcu_osci_bypass_mode_disable @ -- Begin function rcu_osci_bypass_mode_disable
	.globl	rcu_osci_bypass_mode_disable
	.p2align	2
	.type	rcu_osci_bypass_mode_disable,%function
	.code	16                      @ @rcu_osci_bypass_mode_disable
	.thumb_func
rcu_osci_bypass_mode_disable:
.Lfunc_begin31:
	.loc	4 795 0 is_stmt 1       @ ../GD32E230_Firmware_Library/GD32E230_standard_peripheral/Source/gd32e230_rcu.c:795:0
	.fnstart
	.cfi_startproc
@ %bb.0:
	.pad	#12
	sub	sp, #12
	.cfi_def_cfa_offset 12
	mov	r1, r0
	add	r2, sp, #8
	strh	r0, [r2]
.Ltmp114:
	.loc	4 797 12 prologue_end   @ ../GD32E230_Firmware_Library/GD32E230_standard_peripheral/Source/gd32e230_rcu.c:797:12
	ldrh	r0, [r2]
	.loc	4 797 5 is_stmt 0       @ ../GD32E230_Firmware_Library/GD32E230_standard_peripheral/Source/gd32e230_rcu.c:797:5
	cmp	r0, #0
	str	r0, [sp]                @ 4-byte Spill
	beq	.LBB31_8
	b	.LBB31_1
.LBB31_1:
	ldr	r0, [sp]                @ 4-byte Reload
	cmp	r0, #16
	beq	.LBB31_6
	b	.LBB31_2
.LBB31_2:
	ldr	r0, [sp]                @ 4-byte Reload
	cmp	r0, #24
	beq	.LBB31_8
	b	.LBB31_3
.LBB31_3:
	.loc	4 0 5                   @ ../GD32E230_Firmware_Library/GD32E230_standard_peripheral/Source/gd32e230_rcu.c:0:5
	movw	r0, #2048
	.loc	4 797 5                 @ ../GD32E230_Firmware_Library/GD32E230_standard_peripheral/Source/gd32e230_rcu.c:797:5
	ldr	r1, [sp]                @ 4-byte Reload
	cmp	r1, r0
	beq	.LBB31_7
	b	.LBB31_4
.LBB31_4:
	.loc	4 0 5                   @ ../GD32E230_Firmware_Library/GD32E230_standard_peripheral/Source/gd32e230_rcu.c:0:5
	movw	r0, #2304
	.loc	4 797 5                 @ ../GD32E230_Firmware_Library/GD32E230_standard_peripheral/Source/gd32e230_rcu.c:797:5
	ldr	r1, [sp]                @ 4-byte Reload
	cmp	r1, r0
	beq	.LBB31_8
	b	.LBB31_5
.LBB31_5:
	.loc	4 0 5                   @ ../GD32E230_Firmware_Library/GD32E230_standard_peripheral/Source/gd32e230_rcu.c:0:5
	movw	r0, #3328
	.loc	4 797 5                 @ ../GD32E230_Firmware_Library/GD32E230_standard_peripheral/Source/gd32e230_rcu.c:797:5
	ldr	r1, [sp]                @ 4-byte Reload
	cmp	r1, r0
	beq	.LBB31_8
	b	.LBB31_9
.LBB31_6:
	.loc	4 0 5                   @ ../GD32E230_Firmware_Library/GD32E230_standard_peripheral/Source/gd32e230_rcu.c:0:5
	ldr	r0, __arm_cp.31_1
.Ltmp115:
	.loc	4 800 15 is_stmt 1      @ ../GD32E230_Firmware_Library/GD32E230_standard_peripheral/Source/gd32e230_rcu.c:800:15
	ldr	r1, [r0]
	.loc	4 800 13 is_stmt 0      @ ../GD32E230_Firmware_Library/GD32E230_standard_peripheral/Source/gd32e230_rcu.c:800:13
	str	r1, [sp, #4]
	.loc	4 801 18 is_stmt 1      @ ../GD32E230_Firmware_Library/GD32E230_standard_peripheral/Source/gd32e230_rcu.c:801:18
	ldr	r1, [r0]
	movs	r2, #1
	lsls	r3, r2, #16
	bics	r1, r3
	str	r1, [r0]
	.loc	4 802 21                @ ../GD32E230_Firmware_Library/GD32E230_standard_peripheral/Source/gd32e230_rcu.c:802:21
	ldr	r1, [sp, #4]
	lsls	r2, r2, #18
	.loc	4 802 25 is_stmt 0      @ ../GD32E230_Firmware_Library/GD32E230_standard_peripheral/Source/gd32e230_rcu.c:802:25
	bics	r1, r2
	.loc	4 802 18                @ ../GD32E230_Firmware_Library/GD32E230_standard_peripheral/Source/gd32e230_rcu.c:802:18
	str	r1, [r0]
	.loc	4 803 9 is_stmt 1       @ ../GD32E230_Firmware_Library/GD32E230_standard_peripheral/Source/gd32e230_rcu.c:803:9
	b	.LBB31_10
.LBB31_7:
	.loc	4 0 9 is_stmt 0         @ ../GD32E230_Firmware_Library/GD32E230_standard_peripheral/Source/gd32e230_rcu.c:0:9
	ldr	r0, __arm_cp.31_0
	.loc	4 806 15 is_stmt 1      @ ../GD32E230_Firmware_Library/GD32E230_standard_peripheral/Source/gd32e230_rcu.c:806:15
	ldr	r1, [r0]
	.loc	4 806 13 is_stmt 0      @ ../GD32E230_Firmware_Library/GD32E230_standard_peripheral/Source/gd32e230_rcu.c:806:13
	str	r1, [sp, #4]
	.loc	4 807 19 is_stmt 1      @ ../GD32E230_Firmware_Library/GD32E230_standard_peripheral/Source/gd32e230_rcu.c:807:19
	ldr	r1, [r0]
	movs	r2, #1
	bics	r1, r2
	str	r1, [r0]
	.loc	4 808 22                @ ../GD32E230_Firmware_Library/GD32E230_standard_peripheral/Source/gd32e230_rcu.c:808:22
	ldr	r1, [sp, #4]
	movs	r2, #4
	.loc	4 808 26 is_stmt 0      @ ../GD32E230_Firmware_Library/GD32E230_standard_peripheral/Source/gd32e230_rcu.c:808:26
	bics	r1, r2
	.loc	4 808 19                @ ../GD32E230_Firmware_Library/GD32E230_standard_peripheral/Source/gd32e230_rcu.c:808:19
	str	r1, [r0]
	.loc	4 809 9 is_stmt 1       @ ../GD32E230_Firmware_Library/GD32E230_standard_peripheral/Source/gd32e230_rcu.c:809:9
	b	.LBB31_10
.LBB31_8:
	.loc	4 814 9                 @ ../GD32E230_Firmware_Library/GD32E230_standard_peripheral/Source/gd32e230_rcu.c:814:9
	b	.LBB31_10
.LBB31_9:
	.loc	4 816 9                 @ ../GD32E230_Firmware_Library/GD32E230_standard_peripheral/Source/gd32e230_rcu.c:816:9
	b	.LBB31_10
.Ltmp116:
.LBB31_10:
	.loc	4 818 1                 @ ../GD32E230_Firmware_Library/GD32E230_standard_peripheral/Source/gd32e230_rcu.c:818:1
	add	sp, #12
	bx	lr
.Ltmp117:
	.p2align	2
@ %bb.11:
	.loc	4 0 1 is_stmt 0         @ ../GD32E230_Firmware_Library/GD32E230_standard_peripheral/Source/gd32e230_rcu.c:0:1
__arm_cp.31_0:
	.long	1073877024              @ 0x40021020
.Lcpi_end47:
	.size	__arm_cp.31_0, .Lcpi_end47-__arm_cp.31_0
__arm_cp.31_1:
	.long	1073876992              @ 0x40021000
.Lcpi_end48:
	.size	__arm_cp.31_1, .Lcpi_end48-__arm_cp.31_1
.Lfunc_end31:
	.size	rcu_osci_bypass_mode_disable, .Lfunc_end31-rcu_osci_bypass_mode_disable
	.cfi_endproc
	.cantunwind
	.fnend
                                        @ -- End function
	.section	.text.rcu_hxtal_clock_monitor_enable,"ax",%progbits
	.hidden	rcu_hxtal_clock_monitor_enable @ -- Begin function rcu_hxtal_clock_monitor_enable
	.globl	rcu_hxtal_clock_monitor_enable
	.p2align	2
	.type	rcu_hxtal_clock_monitor_enable,%function
	.code	16                      @ @rcu_hxtal_clock_monitor_enable
	.thumb_func
rcu_hxtal_clock_monitor_enable:
.Lfunc_begin32:
	.loc	4 827 0 is_stmt 1       @ ../GD32E230_Firmware_Library/GD32E230_standard_peripheral/Source/gd32e230_rcu.c:827:0
	.fnstart
	.cfi_startproc
@ %bb.0:
	ldr	r0, __arm_cp.32_0
.Ltmp118:
	.loc	4 828 14 prologue_end   @ ../GD32E230_Firmware_Library/GD32E230_standard_peripheral/Source/gd32e230_rcu.c:828:14
	ldr	r1, [r0]
	movs	r2, #1
	lsls	r2, r2, #19
	orrs	r1, r2
	str	r1, [r0]
	.loc	4 829 1                 @ ../GD32E230_Firmware_Library/GD32E230_standard_peripheral/Source/gd32e230_rcu.c:829:1
	bx	lr
.Ltmp119:
	.p2align	2
@ %bb.1:
	.loc	4 0 1 is_stmt 0         @ ../GD32E230_Firmware_Library/GD32E230_standard_peripheral/Source/gd32e230_rcu.c:0:1
__arm_cp.32_0:
	.long	1073876992              @ 0x40021000
.Lcpi_end49:
	.size	__arm_cp.32_0, .Lcpi_end49-__arm_cp.32_0
.Lfunc_end32:
	.size	rcu_hxtal_clock_monitor_enable, .Lfunc_end32-rcu_hxtal_clock_monitor_enable
	.cfi_endproc
	.cantunwind
	.fnend
                                        @ -- End function
	.section	.text.rcu_hxtal_clock_monitor_disable,"ax",%progbits
	.hidden	rcu_hxtal_clock_monitor_disable @ -- Begin function rcu_hxtal_clock_monitor_disable
	.globl	rcu_hxtal_clock_monitor_disable
	.p2align	2
	.type	rcu_hxtal_clock_monitor_disable,%function
	.code	16                      @ @rcu_hxtal_clock_monitor_disable
	.thumb_func
rcu_hxtal_clock_monitor_disable:
.Lfunc_begin33:
	.loc	4 838 0 is_stmt 1       @ ../GD32E230_Firmware_Library/GD32E230_standard_peripheral/Source/gd32e230_rcu.c:838:0
	.fnstart
	.cfi_startproc
@ %bb.0:
	ldr	r0, __arm_cp.33_0
.Ltmp120:
	.loc	4 839 14 prologue_end   @ ../GD32E230_Firmware_Library/GD32E230_standard_peripheral/Source/gd32e230_rcu.c:839:14
	ldr	r1, [r0]
	movs	r2, #1
	lsls	r2, r2, #19
	bics	r1, r2
	str	r1, [r0]
	.loc	4 840 1                 @ ../GD32E230_Firmware_Library/GD32E230_standard_peripheral/Source/gd32e230_rcu.c:840:1
	bx	lr
.Ltmp121:
	.p2align	2
@ %bb.1:
	.loc	4 0 1 is_stmt 0         @ ../GD32E230_Firmware_Library/GD32E230_standard_peripheral/Source/gd32e230_rcu.c:0:1
__arm_cp.33_0:
	.long	1073876992              @ 0x40021000
.Lcpi_end50:
	.size	__arm_cp.33_0, .Lcpi_end50-__arm_cp.33_0
.Lfunc_end33:
	.size	rcu_hxtal_clock_monitor_disable, .Lfunc_end33-rcu_hxtal_clock_monitor_disable
	.cfi_endproc
	.cantunwind
	.fnend
                                        @ -- End function
	.section	.text.rcu_irc8m_adjust_value_set,"ax",%progbits
	.hidden	rcu_irc8m_adjust_value_set @ -- Begin function rcu_irc8m_adjust_value_set
	.globl	rcu_irc8m_adjust_value_set
	.p2align	2
	.type	rcu_irc8m_adjust_value_set,%function
	.code	16                      @ @rcu_irc8m_adjust_value_set
	.thumb_func
rcu_irc8m_adjust_value_set:
.Lfunc_begin34:
	.loc	4 849 0 is_stmt 1       @ ../GD32E230_Firmware_Library/GD32E230_standard_peripheral/Source/gd32e230_rcu.c:849:0
	.fnstart
	.cfi_startproc
@ %bb.0:
	.save	{r4, lr}
	push	{r4, lr}
	.cfi_def_cfa_offset 8
	.cfi_offset lr, -4
	.cfi_offset r4, -8
	.pad	#8
	sub	sp, #8
	.cfi_def_cfa_offset 16
	mov	r1, r0
	add	r2, sp, #4
	strb	r0, [r2]
	movs	r0, #0
.Ltmp122:
	.loc	4 850 14 prologue_end   @ ../GD32E230_Firmware_Library/GD32E230_standard_peripheral/Source/gd32e230_rcu.c:850:14
	str	r0, [sp]
	ldr	r0, __arm_cp.34_0
	.loc	4 851 14                @ ../GD32E230_Firmware_Library/GD32E230_standard_peripheral/Source/gd32e230_rcu.c:851:14
	ldr	r3, [r0]
	.loc	4 851 12 is_stmt 0      @ ../GD32E230_Firmware_Library/GD32E230_standard_peripheral/Source/gd32e230_rcu.c:851:12
	str	r3, [sp]
	.loc	4 853 12 is_stmt 1      @ ../GD32E230_Firmware_Library/GD32E230_standard_peripheral/Source/gd32e230_rcu.c:853:12
	ldr	r3, [sp]
	movs	r4, #248
	bics	r3, r4
	str	r3, [sp]
	.loc	4 854 17                @ ../GD32E230_Firmware_Library/GD32E230_standard_peripheral/Source/gd32e230_rcu.c:854:17
	ldr	r3, [sp]
	.loc	4 854 38 is_stmt 0      @ ../GD32E230_Firmware_Library/GD32E230_standard_peripheral/Source/gd32e230_rcu.c:854:38
	ldrb	r2, [r2]
	.loc	4 854 51                @ ../GD32E230_Firmware_Library/GD32E230_standard_peripheral/Source/gd32e230_rcu.c:854:51
	lsls	r2, r2, #3
	.loc	4 854 24                @ ../GD32E230_Firmware_Library/GD32E230_standard_peripheral/Source/gd32e230_rcu.c:854:24
	orrs	r3, r2
	.loc	4 854 14                @ ../GD32E230_Firmware_Library/GD32E230_standard_peripheral/Source/gd32e230_rcu.c:854:14
	str	r3, [r0]
	.loc	4 855 1 is_stmt 1       @ ../GD32E230_Firmware_Library/GD32E230_standard_peripheral/Source/gd32e230_rcu.c:855:1
	add	sp, #8
	pop	{r4, pc}
.Ltmp123:
	.p2align	2
@ %bb.1:
	.loc	4 0 1 is_stmt 0         @ ../GD32E230_Firmware_Library/GD32E230_standard_peripheral/Source/gd32e230_rcu.c:0:1
__arm_cp.34_0:
	.long	1073876992              @ 0x40021000
.Lcpi_end51:
	.size	__arm_cp.34_0, .Lcpi_end51-__arm_cp.34_0
.Lfunc_end34:
	.size	rcu_irc8m_adjust_value_set, .Lfunc_end34-rcu_irc8m_adjust_value_set
	.cfi_endproc
	.cantunwind
	.fnend
                                        @ -- End function
	.section	.text.rcu_irc28m_adjust_value_set,"ax",%progbits
	.hidden	rcu_irc28m_adjust_value_set @ -- Begin function rcu_irc28m_adjust_value_set
	.globl	rcu_irc28m_adjust_value_set
	.p2align	2
	.type	rcu_irc28m_adjust_value_set,%function
	.code	16                      @ @rcu_irc28m_adjust_value_set
	.thumb_func
rcu_irc28m_adjust_value_set:
.Lfunc_begin35:
	.loc	4 864 0 is_stmt 1       @ ../GD32E230_Firmware_Library/GD32E230_standard_peripheral/Source/gd32e230_rcu.c:864:0
	.fnstart
	.cfi_startproc
@ %bb.0:
	.save	{r4, lr}
	push	{r4, lr}
	.cfi_def_cfa_offset 8
	.cfi_offset lr, -4
	.cfi_offset r4, -8
	.pad	#8
	sub	sp, #8
	.cfi_def_cfa_offset 16
	mov	r1, r0
	add	r2, sp, #4
	strb	r0, [r2]
	movs	r0, #0
.Ltmp124:
	.loc	4 865 14 prologue_end   @ ../GD32E230_Firmware_Library/GD32E230_standard_peripheral/Source/gd32e230_rcu.c:865:14
	str	r0, [sp]
	ldr	r0, __arm_cp.35_0
	.loc	4 866 14                @ ../GD32E230_Firmware_Library/GD32E230_standard_peripheral/Source/gd32e230_rcu.c:866:14
	ldr	r3, [r0]
	.loc	4 866 12 is_stmt 0      @ ../GD32E230_Firmware_Library/GD32E230_standard_peripheral/Source/gd32e230_rcu.c:866:12
	str	r3, [sp]
	.loc	4 868 12 is_stmt 1      @ ../GD32E230_Firmware_Library/GD32E230_standard_peripheral/Source/gd32e230_rcu.c:868:12
	ldr	r3, [sp]
	movs	r4, #248
	bics	r3, r4
	str	r3, [sp]
	.loc	4 869 17                @ ../GD32E230_Firmware_Library/GD32E230_standard_peripheral/Source/gd32e230_rcu.c:869:17
	ldr	r3, [sp]
	.loc	4 869 38 is_stmt 0      @ ../GD32E230_Firmware_Library/GD32E230_standard_peripheral/Source/gd32e230_rcu.c:869:38
	ldrb	r2, [r2]
	.loc	4 869 52                @ ../GD32E230_Firmware_Library/GD32E230_standard_peripheral/Source/gd32e230_rcu.c:869:52
	lsls	r2, r2, #3
	.loc	4 869 24                @ ../GD32E230_Firmware_Library/GD32E230_standard_peripheral/Source/gd32e230_rcu.c:869:24
	orrs	r3, r2
	.loc	4 869 14                @ ../GD32E230_Firmware_Library/GD32E230_standard_peripheral/Source/gd32e230_rcu.c:869:14
	str	r3, [r0]
	.loc	4 870 1 is_stmt 1       @ ../GD32E230_Firmware_Library/GD32E230_standard_peripheral/Source/gd32e230_rcu.c:870:1
	add	sp, #8
	pop	{r4, pc}
.Ltmp125:
	.p2align	2
@ %bb.1:
	.loc	4 0 1 is_stmt 0         @ ../GD32E230_Firmware_Library/GD32E230_standard_peripheral/Source/gd32e230_rcu.c:0:1
__arm_cp.35_0:
	.long	1073877044              @ 0x40021034
.Lcpi_end52:
	.size	__arm_cp.35_0, .Lcpi_end52-__arm_cp.35_0
.Lfunc_end35:
	.size	rcu_irc28m_adjust_value_set, .Lfunc_end35-rcu_irc28m_adjust_value_set
	.cfi_endproc
	.cantunwind
	.fnend
                                        @ -- End function
	.section	.text.rcu_voltage_key_unlock,"ax",%progbits
	.hidden	rcu_voltage_key_unlock  @ -- Begin function rcu_voltage_key_unlock
	.globl	rcu_voltage_key_unlock
	.p2align	2
	.type	rcu_voltage_key_unlock,%function
	.code	16                      @ @rcu_voltage_key_unlock
	.thumb_func
rcu_voltage_key_unlock:
.Lfunc_begin36:
	.loc	4 879 0 is_stmt 1       @ ../GD32E230_Firmware_Library/GD32E230_standard_peripheral/Source/gd32e230_rcu.c:879:0
	.fnstart
	.cfi_startproc
@ %bb.0:
	ldr	r0, __arm_cp.36_0
.Ltmp126:
	.loc	4 881 14 prologue_end   @ ../GD32E230_Firmware_Library/GD32E230_standard_peripheral/Source/gd32e230_rcu.c:881:14
	ldr	r1, [r0]
	movs	r2, #0
	str	r2, [r0]
	.loc	4 882 14                @ ../GD32E230_Firmware_Library/GD32E230_standard_peripheral/Source/gd32e230_rcu.c:882:14
	ldr	r2, [r0]
	ldr	r3, __arm_cp.36_1
	orrs	r2, r3
	str	r2, [r0]
	.loc	4 883 1                 @ ../GD32E230_Firmware_Library/GD32E230_standard_peripheral/Source/gd32e230_rcu.c:883:1
	bx	lr
.Ltmp127:
	.p2align	2
@ %bb.1:
	.loc	4 0 1 is_stmt 0         @ ../GD32E230_Firmware_Library/GD32E230_standard_peripheral/Source/gd32e230_rcu.c:0:1
__arm_cp.36_0:
	.long	1073877248              @ 0x40021100
.Lcpi_end53:
	.size	__arm_cp.36_0, .Lcpi_end53-__arm_cp.36_0
__arm_cp.36_1:
	.long	439041101               @ 0x1a2b3c4d
.Lcpi_end54:
	.size	__arm_cp.36_1, .Lcpi_end54-__arm_cp.36_1
.Lfunc_end36:
	.size	rcu_voltage_key_unlock, .Lfunc_end36-rcu_voltage_key_unlock
	.cfi_endproc
	.cantunwind
	.fnend
                                        @ -- End function
	.section	.text.rcu_deepsleep_voltage_set,"ax",%progbits
	.hidden	rcu_deepsleep_voltage_set @ -- Begin function rcu_deepsleep_voltage_set
	.globl	rcu_deepsleep_voltage_set
	.p2align	2
	.type	rcu_deepsleep_voltage_set,%function
	.code	16                      @ @rcu_deepsleep_voltage_set
	.thumb_func
rcu_deepsleep_voltage_set:
.Lfunc_begin37:
	.loc	4 897 0 is_stmt 1       @ ../GD32E230_Firmware_Library/GD32E230_standard_peripheral/Source/gd32e230_rcu.c:897:0
	.fnstart
	.cfi_startproc
@ %bb.0:
	.pad	#4
	sub	sp, #4
	.cfi_def_cfa_offset 4
	str	r0, [sp]
	ldr	r0, __arm_cp.37_0
.Ltmp128:
	.loc	4 899 13 prologue_end   @ ../GD32E230_Firmware_Library/GD32E230_standard_peripheral/Source/gd32e230_rcu.c:899:13
	ldr	r1, [r0]
	movs	r2, #3
	bics	r1, r2
	str	r1, [r0]
	.loc	4 900 16                @ ../GD32E230_Firmware_Library/GD32E230_standard_peripheral/Source/gd32e230_rcu.c:900:16
	ldr	r1, [sp]
	.loc	4 900 13 is_stmt 0      @ ../GD32E230_Firmware_Library/GD32E230_standard_peripheral/Source/gd32e230_rcu.c:900:13
	ldr	r2, [r0]
	orrs	r2, r1
	str	r2, [r0]
	.loc	4 901 1 is_stmt 1       @ ../GD32E230_Firmware_Library/GD32E230_standard_peripheral/Source/gd32e230_rcu.c:901:1
	add	sp, #4
	bx	lr
.Ltmp129:
	.p2align	2
@ %bb.1:
	.loc	4 0 1 is_stmt 0         @ ../GD32E230_Firmware_Library/GD32E230_standard_peripheral/Source/gd32e230_rcu.c:0:1
__arm_cp.37_0:
	.long	1073877300              @ 0x40021134
.Lcpi_end55:
	.size	__arm_cp.37_0, .Lcpi_end55-__arm_cp.37_0
.Lfunc_end37:
	.size	rcu_deepsleep_voltage_set, .Lfunc_end37-rcu_deepsleep_voltage_set
	.cfi_endproc
	.cantunwind
	.fnend
                                        @ -- End function
	.section	.text.rcu_clock_freq_get,"ax",%progbits
	.hidden	rcu_clock_freq_get      @ -- Begin function rcu_clock_freq_get
	.globl	rcu_clock_freq_get
	.p2align	2
	.type	rcu_clock_freq_get,%function
	.code	16                      @ @rcu_clock_freq_get
	.thumb_func
rcu_clock_freq_get:
.Lfunc_begin38:
	.loc	4 917 0 is_stmt 1       @ ../GD32E230_Firmware_Library/GD32E230_standard_peripheral/Source/gd32e230_rcu.c:917:0
	.fnstart
	.cfi_startproc
@ %bb.0:
	.pad	#108
	sub	sp, #108
	.cfi_def_cfa_offset 108
	mov	r1, r0
	add	r2, sp, #104
	strb	r0, [r2]
	movs	r0, #0
.Ltmp130:
	.loc	4 918 14 prologue_end   @ ../GD32E230_Firmware_Library/GD32E230_standard_peripheral/Source/gd32e230_rcu.c:918:14
	str	r0, [sp, #100]
	.loc	4 918 24 is_stmt 0      @ ../GD32E230_Firmware_Library/GD32E230_standard_peripheral/Source/gd32e230_rcu.c:918:24
	str	r0, [sp, #96]
	.loc	4 918 36                @ ../GD32E230_Firmware_Library/GD32E230_standard_peripheral/Source/gd32e230_rcu.c:918:36
	str	r0, [sp, #92]
	.loc	4 918 49                @ ../GD32E230_Firmware_Library/GD32E230_standard_peripheral/Source/gd32e230_rcu.c:918:49
	str	r0, [sp, #88]
	.loc	4 919 14 is_stmt 1      @ ../GD32E230_Firmware_Library/GD32E230_standard_peripheral/Source/gd32e230_rcu.c:919:14
	str	r0, [sp, #84]
	.loc	4 919 31 is_stmt 0      @ ../GD32E230_Firmware_Library/GD32E230_standard_peripheral/Source/gd32e230_rcu.c:919:31
	str	r0, [sp, #80]
	.loc	4 919 46                @ ../GD32E230_Firmware_Library/GD32E230_standard_peripheral/Source/gd32e230_rcu.c:919:46
	str	r0, [sp, #76]
	.loc	4 919 62                @ ../GD32E230_Firmware_Library/GD32E230_standard_peripheral/Source/gd32e230_rcu.c:919:62
	str	r0, [sp, #72]
	.loc	4 920 14 is_stmt 1      @ ../GD32E230_Firmware_Library/GD32E230_standard_peripheral/Source/gd32e230_rcu.c:920:14
	str	r0, [sp, #68]
	.loc	4 920 29 is_stmt 0      @ ../GD32E230_Firmware_Library/GD32E230_standard_peripheral/Source/gd32e230_rcu.c:920:29
	str	r0, [sp, #64]
	.loc	4 921 14 is_stmt 1      @ ../GD32E230_Firmware_Library/GD32E230_standard_peripheral/Source/gd32e230_rcu.c:921:14
	str	r0, [sp, #60]
	.loc	4 921 26 is_stmt 0      @ ../GD32E230_Firmware_Library/GD32E230_standard_peripheral/Source/gd32e230_rcu.c:921:26
	str	r0, [sp, #56]
	.loc	4 921 39                @ ../GD32E230_Firmware_Library/GD32E230_standard_peripheral/Source/gd32e230_rcu.c:921:39
	str	r0, [sp, #52]
	.loc	4 921 52                @ ../GD32E230_Firmware_Library/GD32E230_standard_peripheral/Source/gd32e230_rcu.c:921:52
	str	r0, [sp, #48]
	.loc	4 921 65                @ ../GD32E230_Firmware_Library/GD32E230_standard_peripheral/Source/gd32e230_rcu.c:921:65
	str	r0, [sp, #44]
	.loc	4 921 75                @ ../GD32E230_Firmware_Library/GD32E230_standard_peripheral/Source/gd32e230_rcu.c:921:75
	str	r0, [sp, #40]
	ldr	r2, __arm_cp.38_0
	.loc	4 923 19 is_stmt 1      @ ../GD32E230_Firmware_Library/GD32E230_standard_peripheral/Source/gd32e230_rcu.c:923:19
	str	r2, [sp, #36]
	ldr	r2, __arm_cp.38_1
	str	r2, [sp, #32]
	str	r0, [sp, #28]
	str	r0, [sp, #24]
	.loc	4 924 19                @ ../GD32E230_Firmware_Library/GD32E230_standard_peripheral/Source/gd32e230_rcu.c:924:19
	str	r2, [sp, #20]
	str	r0, [sp, #16]
	.loc	4 925 19                @ ../GD32E230_Firmware_Library/GD32E230_standard_peripheral/Source/gd32e230_rcu.c:925:19
	str	r2, [sp, #12]
	str	r0, [sp, #8]
	ldr	r0, __arm_cp.38_2
	.loc	4 927 11                @ ../GD32E230_Firmware_Library/GD32E230_standard_peripheral/Source/gd32e230_rcu.c:927:11
	ldr	r0, [r0]
	movs	r2, #12
	ands	r0, r2
	lsrs	r0, r0, #2
	.loc	4 927 9 is_stmt 0       @ ../GD32E230_Firmware_Library/GD32E230_standard_peripheral/Source/gd32e230_rcu.c:927:9
	str	r0, [sp, #100]
	.loc	4 928 12 is_stmt 1      @ ../GD32E230_Firmware_Library/GD32E230_standard_peripheral/Source/gd32e230_rcu.c:928:12
	ldr	r0, [sp, #100]
	.loc	4 928 5 is_stmt 0       @ ../GD32E230_Firmware_Library/GD32E230_standard_peripheral/Source/gd32e230_rcu.c:928:5
	cmp	r0, #0
	str	r0, [sp, #4]            @ 4-byte Spill
	beq	.LBB38_3
	b	.LBB38_1
.LBB38_1:
	ldr	r0, [sp, #4]            @ 4-byte Reload
	cmp	r0, #1
	beq	.LBB38_4
	b	.LBB38_2
.LBB38_2:
	ldr	r0, [sp, #4]            @ 4-byte Reload
	cmp	r0, #2
	beq	.LBB38_5
	b	.LBB38_15
.LBB38_3:
	.loc	4 0 5                   @ ../GD32E230_Firmware_Library/GD32E230_standard_peripheral/Source/gd32e230_rcu.c:0:5
	ldr	r0, __arm_cp.38_5
.Ltmp131:
	.loc	4 931 20 is_stmt 1      @ ../GD32E230_Firmware_Library/GD32E230_standard_peripheral/Source/gd32e230_rcu.c:931:20
	str	r0, [sp, #84]
	.loc	4 932 9                 @ ../GD32E230_Firmware_Library/GD32E230_standard_peripheral/Source/gd32e230_rcu.c:932:9
	b	.LBB38_16
.LBB38_4:
	.loc	4 0 9 is_stmt 0         @ ../GD32E230_Firmware_Library/GD32E230_standard_peripheral/Source/gd32e230_rcu.c:0:9
	ldr	r0, __arm_cp.38_5
	.loc	4 935 20 is_stmt 1      @ ../GD32E230_Firmware_Library/GD32E230_standard_peripheral/Source/gd32e230_rcu.c:935:20
	str	r0, [sp, #84]
	.loc	4 936 9                 @ ../GD32E230_Firmware_Library/GD32E230_standard_peripheral/Source/gd32e230_rcu.c:936:9
	b	.LBB38_16
.LBB38_5:
	.loc	4 0 9 is_stmt 0         @ ../GD32E230_Firmware_Library/GD32E230_standard_peripheral/Source/gd32e230_rcu.c:0:9
	ldr	r0, __arm_cp.38_2
	.loc	4 940 17 is_stmt 1      @ ../GD32E230_Firmware_Library/GD32E230_standard_peripheral/Source/gd32e230_rcu.c:940:17
	ldr	r1, [r0]
	movs	r2, #15
	lsls	r2, r2, #18
	ands	r1, r2
	lsrs	r1, r1, #18
	.loc	4 940 15 is_stmt 0      @ ../GD32E230_Firmware_Library/GD32E230_standard_peripheral/Source/gd32e230_rcu.c:940:15
	str	r1, [sp, #60]
	.loc	4 941 18 is_stmt 1      @ ../GD32E230_Firmware_Library/GD32E230_standard_peripheral/Source/gd32e230_rcu.c:941:18
	ldr	r0, [r0]
	movs	r1, #1
	lsls	r1, r1, #27
	ands	r0, r1
	lsrs	r0, r0, #27
	.loc	4 941 16 is_stmt 0      @ ../GD32E230_Firmware_Library/GD32E230_standard_peripheral/Source/gd32e230_rcu.c:941:16
	str	r0, [sp, #56]
.Ltmp132:
	.loc	4 943 18 is_stmt 1      @ ../GD32E230_Firmware_Library/GD32E230_standard_peripheral/Source/gd32e230_rcu.c:943:18
	ldr	r0, [sp, #56]
.Ltmp133:
	.loc	4 943 12 is_stmt 0      @ ../GD32E230_Firmware_Library/GD32E230_standard_peripheral/Source/gd32e230_rcu.c:943:12
	cmp	r0, #1
	bne	.LBB38_7
	b	.LBB38_6
.LBB38_6:
.Ltmp134:
	.loc	4 944 19 is_stmt 1      @ ../GD32E230_Firmware_Library/GD32E230_standard_peripheral/Source/gd32e230_rcu.c:944:19
	ldr	r0, [sp, #60]
	adds	r0, #17
	str	r0, [sp, #60]
	.loc	4 945 9                 @ ../GD32E230_Firmware_Library/GD32E230_standard_peripheral/Source/gd32e230_rcu.c:945:9
	b	.LBB38_11
.Ltmp135:
.LBB38_7:
	.loc	4 945 25 is_stmt 0      @ ../GD32E230_Firmware_Library/GD32E230_standard_peripheral/Source/gd32e230_rcu.c:945:25
	ldr	r0, [sp, #60]
.Ltmp136:
	.loc	4 945 18                @ ../GD32E230_Firmware_Library/GD32E230_standard_peripheral/Source/gd32e230_rcu.c:945:18
	cmp	r0, #15
	bne	.LBB38_9
	b	.LBB38_8
.LBB38_8:
	.loc	4 0 18                  @ ../GD32E230_Firmware_Library/GD32E230_standard_peripheral/Source/gd32e230_rcu.c:0:18
	movs	r0, #16
.Ltmp137:
	.loc	4 946 19 is_stmt 1      @ ../GD32E230_Firmware_Library/GD32E230_standard_peripheral/Source/gd32e230_rcu.c:946:19
	str	r0, [sp, #60]
	.loc	4 947 9                 @ ../GD32E230_Firmware_Library/GD32E230_standard_peripheral/Source/gd32e230_rcu.c:947:9
	b	.LBB38_10
.Ltmp138:
.LBB38_9:
	.loc	4 948 19                @ ../GD32E230_Firmware_Library/GD32E230_standard_peripheral/Source/gd32e230_rcu.c:948:19
	ldr	r0, [sp, #60]
	adds	r0, r0, #2
	str	r0, [sp, #60]
	b	.LBB38_10
.Ltmp139:
.LBB38_10:
	.loc	4 0 19 is_stmt 0        @ ../GD32E230_Firmware_Library/GD32E230_standard_peripheral/Source/gd32e230_rcu.c:0:19
	b	.LBB38_11
.LBB38_11:
	ldr	r0, __arm_cp.38_2
	.loc	4 952 18 is_stmt 1      @ ../GD32E230_Firmware_Library/GD32E230_standard_peripheral/Source/gd32e230_rcu.c:952:18
	ldr	r0, [r0]
	movs	r1, #1
	lsls	r1, r1, #16
	ands	r0, r1
	lsrs	r0, r0, #16
	.loc	4 952 16 is_stmt 0      @ ../GD32E230_Firmware_Library/GD32E230_standard_peripheral/Source/gd32e230_rcu.c:952:16
	str	r0, [sp, #52]
.Ltmp140:
	.loc	4 953 18 is_stmt 1      @ ../GD32E230_Firmware_Library/GD32E230_standard_peripheral/Source/gd32e230_rcu.c:953:18
	ldr	r0, [sp, #52]
.Ltmp141:
	.loc	4 953 12 is_stmt 0      @ ../GD32E230_Firmware_Library/GD32E230_standard_peripheral/Source/gd32e230_rcu.c:953:12
	cmp	r0, #0
	beq	.LBB38_13
	b	.LBB38_12
.LBB38_12:
	.loc	4 0 12                  @ ../GD32E230_Firmware_Library/GD32E230_standard_peripheral/Source/gd32e230_rcu.c:0:12
	ldr	r0, __arm_cp.38_4
.Ltmp142:
	.loc	4 954 23 is_stmt 1      @ ../GD32E230_Firmware_Library/GD32E230_standard_peripheral/Source/gd32e230_rcu.c:954:23
	ldr	r0, [r0]
	movs	r1, #15
	ands	r0, r1
	.loc	4 954 48 is_stmt 0      @ ../GD32E230_Firmware_Library/GD32E230_standard_peripheral/Source/gd32e230_rcu.c:954:48
	adds	r0, r0, #1
	.loc	4 954 20                @ ../GD32E230_Firmware_Library/GD32E230_standard_peripheral/Source/gd32e230_rcu.c:954:20
	str	r0, [sp, #48]
	.loc	4 955 41 is_stmt 1      @ ../GD32E230_Firmware_Library/GD32E230_standard_peripheral/Source/gd32e230_rcu.c:955:41
	ldr	r0, [sp, #48]
	ldr	r1, __arm_cp.38_5
	.loc	4 955 39 is_stmt 0      @ ../GD32E230_Firmware_Library/GD32E230_standard_peripheral/Source/gd32e230_rcu.c:955:39
	udiv	r0, r1, r0
	.loc	4 955 51                @ ../GD32E230_Firmware_Library/GD32E230_standard_peripheral/Source/gd32e230_rcu.c:955:51
	ldr	r1, [sp, #60]
	.loc	4 955 49                @ ../GD32E230_Firmware_Library/GD32E230_standard_peripheral/Source/gd32e230_rcu.c:955:49
	muls	r1, r0, r1
	.loc	4 955 24                @ ../GD32E230_Firmware_Library/GD32E230_standard_peripheral/Source/gd32e230_rcu.c:955:24
	str	r1, [sp, #84]
	.loc	4 956 9 is_stmt 1       @ ../GD32E230_Firmware_Library/GD32E230_standard_peripheral/Source/gd32e230_rcu.c:956:9
	b	.LBB38_14
.Ltmp143:
.LBB38_13:
	.loc	4 957 47                @ ../GD32E230_Firmware_Library/GD32E230_standard_peripheral/Source/gd32e230_rcu.c:957:47
	ldr	r0, [sp, #60]
	ldr	r1, __arm_cp.38_3
	.loc	4 957 45 is_stmt 0      @ ../GD32E230_Firmware_Library/GD32E230_standard_peripheral/Source/gd32e230_rcu.c:957:45
	muls	r1, r0, r1
	.loc	4 957 24                @ ../GD32E230_Firmware_Library/GD32E230_standard_peripheral/Source/gd32e230_rcu.c:957:24
	str	r1, [sp, #84]
	b	.LBB38_14
.Ltmp144:
.LBB38_14:
	.loc	4 959 9 is_stmt 1       @ ../GD32E230_Firmware_Library/GD32E230_standard_peripheral/Source/gd32e230_rcu.c:959:9
	b	.LBB38_16
.LBB38_15:
	.loc	4 0 9 is_stmt 0         @ ../GD32E230_Firmware_Library/GD32E230_standard_peripheral/Source/gd32e230_rcu.c:0:9
	ldr	r0, __arm_cp.38_5
	.loc	4 962 20 is_stmt 1      @ ../GD32E230_Firmware_Library/GD32E230_standard_peripheral/Source/gd32e230_rcu.c:962:20
	str	r0, [sp, #84]
	.loc	4 963 9                 @ ../GD32E230_Firmware_Library/GD32E230_standard_peripheral/Source/gd32e230_rcu.c:963:9
	b	.LBB38_16
.Ltmp145:
.LBB38_16:
	.loc	4 0 9 is_stmt 0         @ ../GD32E230_Firmware_Library/GD32E230_standard_peripheral/Source/gd32e230_rcu.c:0:9
	ldr	r0, __arm_cp.38_2
	.loc	4 966 11 is_stmt 1      @ ../GD32E230_Firmware_Library/GD32E230_standard_peripheral/Source/gd32e230_rcu.c:966:11
	ldr	r1, [r0]
	uxtb	r1, r1
	lsrs	r1, r1, #4
	.loc	4 966 9 is_stmt 0       @ ../GD32E230_Firmware_Library/GD32E230_standard_peripheral/Source/gd32e230_rcu.c:966:9
	str	r1, [sp, #44]
	.loc	4 967 23 is_stmt 1      @ ../GD32E230_Firmware_Library/GD32E230_standard_peripheral/Source/gd32e230_rcu.c:967:23
	ldr	r1, [sp, #44]
	add	r2, sp, #24
	.loc	4 967 15 is_stmt 0      @ ../GD32E230_Firmware_Library/GD32E230_standard_peripheral/Source/gd32e230_rcu.c:967:15
	ldrb	r1, [r2, r1]
	.loc	4 967 13                @ ../GD32E230_Firmware_Library/GD32E230_standard_peripheral/Source/gd32e230_rcu.c:967:13
	str	r1, [sp, #40]
	.loc	4 968 16 is_stmt 1      @ ../GD32E230_Firmware_Library/GD32E230_standard_peripheral/Source/gd32e230_rcu.c:968:16
	ldr	r1, [sp, #84]
	.loc	4 968 30 is_stmt 0      @ ../GD32E230_Firmware_Library/GD32E230_standard_peripheral/Source/gd32e230_rcu.c:968:30
	ldr	r2, [sp, #40]
	.loc	4 968 27                @ ../GD32E230_Firmware_Library/GD32E230_standard_peripheral/Source/gd32e230_rcu.c:968:27
	lsrs	r1, r2
	.loc	4 968 14                @ ../GD32E230_Firmware_Library/GD32E230_standard_peripheral/Source/gd32e230_rcu.c:968:14
	str	r1, [sp, #80]
	.loc	4 971 11 is_stmt 1      @ ../GD32E230_Firmware_Library/GD32E230_standard_peripheral/Source/gd32e230_rcu.c:971:11
	ldr	r1, [r0]
	movw	r2, #1792
	ands	r1, r2
	lsrs	r1, r1, #8
	.loc	4 971 9 is_stmt 0       @ ../GD32E230_Firmware_Library/GD32E230_standard_peripheral/Source/gd32e230_rcu.c:971:9
	str	r1, [sp, #44]
	.loc	4 972 24 is_stmt 1      @ ../GD32E230_Firmware_Library/GD32E230_standard_peripheral/Source/gd32e230_rcu.c:972:24
	ldr	r1, [sp, #44]
	add	r2, sp, #16
	.loc	4 972 15 is_stmt 0      @ ../GD32E230_Firmware_Library/GD32E230_standard_peripheral/Source/gd32e230_rcu.c:972:15
	ldrb	r1, [r2, r1]
	.loc	4 972 13                @ ../GD32E230_Firmware_Library/GD32E230_standard_peripheral/Source/gd32e230_rcu.c:972:13
	str	r1, [sp, #40]
	.loc	4 973 17 is_stmt 1      @ ../GD32E230_Firmware_Library/GD32E230_standard_peripheral/Source/gd32e230_rcu.c:973:17
	ldr	r1, [sp, #80]
	.loc	4 973 29 is_stmt 0      @ ../GD32E230_Firmware_Library/GD32E230_standard_peripheral/Source/gd32e230_rcu.c:973:29
	ldr	r2, [sp, #40]
	.loc	4 973 26                @ ../GD32E230_Firmware_Library/GD32E230_standard_peripheral/Source/gd32e230_rcu.c:973:26
	lsrs	r1, r2
	.loc	4 973 15                @ ../GD32E230_Firmware_Library/GD32E230_standard_peripheral/Source/gd32e230_rcu.c:973:15
	str	r1, [sp, #76]
	.loc	4 976 11 is_stmt 1      @ ../GD32E230_Firmware_Library/GD32E230_standard_peripheral/Source/gd32e230_rcu.c:976:11
	ldr	r0, [r0]
	movw	r1, #14336
	ands	r0, r1
	lsrs	r0, r0, #11
	.loc	4 976 9 is_stmt 0       @ ../GD32E230_Firmware_Library/GD32E230_standard_peripheral/Source/gd32e230_rcu.c:976:9
	str	r0, [sp, #44]
	.loc	4 977 24 is_stmt 1      @ ../GD32E230_Firmware_Library/GD32E230_standard_peripheral/Source/gd32e230_rcu.c:977:24
	ldr	r0, [sp, #44]
	add	r1, sp, #8
	.loc	4 977 15 is_stmt 0      @ ../GD32E230_Firmware_Library/GD32E230_standard_peripheral/Source/gd32e230_rcu.c:977:15
	ldrb	r0, [r1, r0]
	.loc	4 977 13                @ ../GD32E230_Firmware_Library/GD32E230_standard_peripheral/Source/gd32e230_rcu.c:977:13
	str	r0, [sp, #40]
	.loc	4 978 17 is_stmt 1      @ ../GD32E230_Firmware_Library/GD32E230_standard_peripheral/Source/gd32e230_rcu.c:978:17
	ldr	r0, [sp, #80]
	.loc	4 978 29 is_stmt 0      @ ../GD32E230_Firmware_Library/GD32E230_standard_peripheral/Source/gd32e230_rcu.c:978:29
	ldr	r1, [sp, #40]
	.loc	4 978 26                @ ../GD32E230_Firmware_Library/GD32E230_standard_peripheral/Source/gd32e230_rcu.c:978:26
	lsrs	r0, r1
	.loc	4 978 15                @ ../GD32E230_Firmware_Library/GD32E230_standard_peripheral/Source/gd32e230_rcu.c:978:15
	str	r0, [sp, #72]
	add	r0, sp, #104
	.loc	4 981 12 is_stmt 1      @ ../GD32E230_Firmware_Library/GD32E230_standard_peripheral/Source/gd32e230_rcu.c:981:12
	ldrb	r0, [r0]
	.loc	4 981 5 is_stmt 0       @ ../GD32E230_Firmware_Library/GD32E230_standard_peripheral/Source/gd32e230_rcu.c:981:5
	cmp	r0, #5
	str	r0, [sp]                @ 4-byte Spill
	bls	.LBB38_17
	b	.LBB38_46
.LBB38_17:
	.loc	4 0 5                   @ ../GD32E230_Firmware_Library/GD32E230_standard_peripheral/Source/gd32e230_rcu.c:0:5
	ldr	r0, [sp]                @ 4-byte Reload
	lsls	r1, r0, #2
	adr	r2, .LJTI38_0
	adds	r1, r2, r1
	mov	pc, r1
@ %bb.18:
	.p2align	2
.LJTI38_0:
	b.w	.LBB38_19
	b.w	.LBB38_20
	b.w	.LBB38_21
	b.w	.LBB38_22
	b.w	.LBB38_23
	b.w	.LBB38_33
.LBB38_19:
.Ltmp146:
	.loc	4 983 19 is_stmt 1      @ ../GD32E230_Firmware_Library/GD32E230_standard_peripheral/Source/gd32e230_rcu.c:983:19
	ldr	r0, [sp, #84]
	.loc	4 983 17 is_stmt 0      @ ../GD32E230_Firmware_Library/GD32E230_standard_peripheral/Source/gd32e230_rcu.c:983:17
	str	r0, [sp, #88]
	.loc	4 984 9 is_stmt 1       @ ../GD32E230_Firmware_Library/GD32E230_standard_peripheral/Source/gd32e230_rcu.c:984:9
	b	.LBB38_47
.LBB38_20:
	.loc	4 986 19                @ ../GD32E230_Firmware_Library/GD32E230_standard_peripheral/Source/gd32e230_rcu.c:986:19
	ldr	r0, [sp, #80]
	.loc	4 986 17 is_stmt 0      @ ../GD32E230_Firmware_Library/GD32E230_standard_peripheral/Source/gd32e230_rcu.c:986:17
	str	r0, [sp, #88]
	.loc	4 987 9 is_stmt 1       @ ../GD32E230_Firmware_Library/GD32E230_standard_peripheral/Source/gd32e230_rcu.c:987:9
	b	.LBB38_47
.LBB38_21:
	.loc	4 989 19                @ ../GD32E230_Firmware_Library/GD32E230_standard_peripheral/Source/gd32e230_rcu.c:989:19
	ldr	r0, [sp, #76]
	.loc	4 989 17 is_stmt 0      @ ../GD32E230_Firmware_Library/GD32E230_standard_peripheral/Source/gd32e230_rcu.c:989:17
	str	r0, [sp, #88]
	.loc	4 990 9 is_stmt 1       @ ../GD32E230_Firmware_Library/GD32E230_standard_peripheral/Source/gd32e230_rcu.c:990:9
	b	.LBB38_47
.LBB38_22:
	.loc	4 992 19                @ ../GD32E230_Firmware_Library/GD32E230_standard_peripheral/Source/gd32e230_rcu.c:992:19
	ldr	r0, [sp, #72]
	.loc	4 992 17 is_stmt 0      @ ../GD32E230_Firmware_Library/GD32E230_standard_peripheral/Source/gd32e230_rcu.c:992:17
	str	r0, [sp, #88]
	.loc	4 993 9 is_stmt 1       @ ../GD32E230_Firmware_Library/GD32E230_standard_peripheral/Source/gd32e230_rcu.c:993:9
	b	.LBB38_47
.LBB38_23:
	.loc	4 0 9 is_stmt 0         @ ../GD32E230_Firmware_Library/GD32E230_standard_peripheral/Source/gd32e230_rcu.c:0:9
	ldr	r0, __arm_cp.38_6
.Ltmp147:
	.loc	4 996 39 is_stmt 1      @ ../GD32E230_Firmware_Library/GD32E230_standard_peripheral/Source/gd32e230_rcu.c:996:39
	ldr	r0, [r0]
	movw	r1, #256
	.loc	4 996 48 is_stmt 0      @ ../GD32E230_Firmware_Library/GD32E230_standard_peripheral/Source/gd32e230_rcu.c:996:48
	ands	r0, r1
.Ltmp148:
	.loc	4 996 12                @ ../GD32E230_Firmware_Library/GD32E230_standard_peripheral/Source/gd32e230_rcu.c:996:12
	cmp	r0, r1
	beq	.LBB38_28
	b	.LBB38_24
.LBB38_24:
	.loc	4 0 12                  @ ../GD32E230_Firmware_Library/GD32E230_standard_peripheral/Source/gd32e230_rcu.c:0:12
	ldr	r0, __arm_cp.38_6
.Ltmp149:
	.loc	4 997 40 is_stmt 1      @ ../GD32E230_Firmware_Library/GD32E230_standard_peripheral/Source/gd32e230_rcu.c:997:40
	ldr	r0, [r0]
	movs	r1, #1
	lsls	r1, r1, #16
	.loc	4 997 49 is_stmt 0      @ ../GD32E230_Firmware_Library/GD32E230_standard_peripheral/Source/gd32e230_rcu.c:997:49
	ands	r0, r1
.Ltmp150:
	.loc	4 997 16                @ ../GD32E230_Firmware_Library/GD32E230_standard_peripheral/Source/gd32e230_rcu.c:997:16
	cmp	r0, r1
	beq	.LBB38_26
	b	.LBB38_25
.LBB38_25:
	.loc	4 0 16                  @ ../GD32E230_Firmware_Library/GD32E230_standard_peripheral/Source/gd32e230_rcu.c:0:16
	ldr	r0, __arm_cp.38_8
.Ltmp151:
	.loc	4 998 26 is_stmt 1      @ ../GD32E230_Firmware_Library/GD32E230_standard_peripheral/Source/gd32e230_rcu.c:998:26
	str	r0, [sp, #68]
	.loc	4 999 13                @ ../GD32E230_Firmware_Library/GD32E230_standard_peripheral/Source/gd32e230_rcu.c:999:13
	b	.LBB38_27
.Ltmp152:
.LBB38_26:
	.loc	4 0 13 is_stmt 0        @ ../GD32E230_Firmware_Library/GD32E230_standard_peripheral/Source/gd32e230_rcu.c:0:13
	ldr	r0, __arm_cp.38_7
.Ltmp153:
	.loc	4 1000 26 is_stmt 1     @ ../GD32E230_Firmware_Library/GD32E230_standard_peripheral/Source/gd32e230_rcu.c:1000:26
	str	r0, [sp, #68]
	b	.LBB38_27
.Ltmp154:
.LBB38_27:
	.loc	4 1002 9                @ ../GD32E230_Firmware_Library/GD32E230_standard_peripheral/Source/gd32e230_rcu.c:1002:9
	b	.LBB38_32
.Ltmp155:
.LBB38_28:
	.loc	4 0 9 is_stmt 0         @ ../GD32E230_Firmware_Library/GD32E230_standard_peripheral/Source/gd32e230_rcu.c:0:9
	ldr	r0, __arm_cp.38_2
.Ltmp156:
	.loc	4 1004 21 is_stmt 1     @ ../GD32E230_Firmware_Library/GD32E230_standard_peripheral/Source/gd32e230_rcu.c:1004:21
	ldr	r0, [r0]
	uxth	r0, r0
	lsrs	r0, r0, #14
	.loc	4 1004 19 is_stmt 0     @ ../GD32E230_Firmware_Library/GD32E230_standard_peripheral/Source/gd32e230_rcu.c:1004:19
	str	r0, [sp, #96]
	ldr	r0, __arm_cp.38_6
	.loc	4 1005 22 is_stmt 1     @ ../GD32E230_Firmware_Library/GD32E230_standard_peripheral/Source/gd32e230_rcu.c:1005:22
	ldr	r0, [r0]
	lsrs	r0, r0, #31
	.loc	4 1005 20 is_stmt 0     @ ../GD32E230_Firmware_Library/GD32E230_standard_peripheral/Source/gd32e230_rcu.c:1005:20
	str	r0, [sp, #92]
.Ltmp157:
	.loc	4 1006 22 is_stmt 1     @ ../GD32E230_Firmware_Library/GD32E230_standard_peripheral/Source/gd32e230_rcu.c:1006:22
	ldr	r0, [sp, #92]
.Ltmp158:
	.loc	4 1006 16 is_stmt 0     @ ../GD32E230_Firmware_Library/GD32E230_standard_peripheral/Source/gd32e230_rcu.c:1006:16
	cmp	r0, #0
	beq	.LBB38_30
	b	.LBB38_29
.LBB38_29:
.Ltmp159:
	.loc	4 1008 28 is_stmt 1     @ ../GD32E230_Firmware_Library/GD32E230_standard_peripheral/Source/gd32e230_rcu.c:1008:28
	ldr	r0, [sp, #80]
	.loc	4 1008 40 is_stmt 0     @ ../GD32E230_Firmware_Library/GD32E230_standard_peripheral/Source/gd32e230_rcu.c:1008:40
	ldr	r1, [sp, #96]
	.loc	4 1008 46               @ ../GD32E230_Firmware_Library/GD32E230_standard_peripheral/Source/gd32e230_rcu.c:1008:46
	adds	r1, r1, #1
	.loc	4 1008 37               @ ../GD32E230_Firmware_Library/GD32E230_standard_peripheral/Source/gd32e230_rcu.c:1008:37
	udiv	r0, r0, r1
	.loc	4 1008 26               @ ../GD32E230_Firmware_Library/GD32E230_standard_peripheral/Source/gd32e230_rcu.c:1008:26
	str	r0, [sp, #68]
	.loc	4 1009 13 is_stmt 1     @ ../GD32E230_Firmware_Library/GD32E230_standard_peripheral/Source/gd32e230_rcu.c:1009:13
	b	.LBB38_31
.Ltmp160:
.LBB38_30:
	.loc	4 1011 28               @ ../GD32E230_Firmware_Library/GD32E230_standard_peripheral/Source/gd32e230_rcu.c:1011:28
	ldr	r0, [sp, #72]
	.loc	4 1011 40 is_stmt 0     @ ../GD32E230_Firmware_Library/GD32E230_standard_peripheral/Source/gd32e230_rcu.c:1011:40
	ldr	r1, [sp, #96]
	.loc	4 1011 38               @ ../GD32E230_Firmware_Library/GD32E230_standard_peripheral/Source/gd32e230_rcu.c:1011:38
	udiv	r0, r0, r1
	.loc	4 1011 26               @ ../GD32E230_Firmware_Library/GD32E230_standard_peripheral/Source/gd32e230_rcu.c:1011:26
	str	r0, [sp, #68]
	b	.LBB38_31
.Ltmp161:
.LBB38_31:
	.loc	4 0 26                  @ ../GD32E230_Firmware_Library/GD32E230_standard_peripheral/Source/gd32e230_rcu.c:0:26
	b	.LBB38_32
.LBB38_32:
	.loc	4 1014 19 is_stmt 1     @ ../GD32E230_Firmware_Library/GD32E230_standard_peripheral/Source/gd32e230_rcu.c:1014:19
	ldr	r0, [sp, #68]
	.loc	4 1014 17 is_stmt 0     @ ../GD32E230_Firmware_Library/GD32E230_standard_peripheral/Source/gd32e230_rcu.c:1014:17
	str	r0, [sp, #88]
	.loc	4 1015 9 is_stmt 1      @ ../GD32E230_Firmware_Library/GD32E230_standard_peripheral/Source/gd32e230_rcu.c:1015:9
	b	.LBB38_47
.LBB38_33:
	.loc	4 0 9 is_stmt 0         @ ../GD32E230_Firmware_Library/GD32E230_standard_peripheral/Source/gd32e230_rcu.c:0:9
	ldr	r0, __arm_cp.38_6
.Ltmp162:
	.loc	4 1018 37 is_stmt 1     @ ../GD32E230_Firmware_Library/GD32E230_standard_peripheral/Source/gd32e230_rcu.c:1018:37
	ldr	r0, [r0]
.Ltmp163:
	.loc	4 1018 12 is_stmt 0     @ ../GD32E230_Firmware_Library/GD32E230_standard_peripheral/Source/gd32e230_rcu.c:1018:12
	lsls	r0, r0, #30
	cmp	r0, #0
	bne	.LBB38_35
	b	.LBB38_34
.LBB38_34:
.Ltmp164:
	.loc	4 1019 26 is_stmt 1     @ ../GD32E230_Firmware_Library/GD32E230_standard_peripheral/Source/gd32e230_rcu.c:1019:26
	ldr	r0, [sp, #72]
	.loc	4 1019 24 is_stmt 0     @ ../GD32E230_Firmware_Library/GD32E230_standard_peripheral/Source/gd32e230_rcu.c:1019:24
	str	r0, [sp, #64]
	.loc	4 1020 9 is_stmt 1      @ ../GD32E230_Firmware_Library/GD32E230_standard_peripheral/Source/gd32e230_rcu.c:1020:9
	b	.LBB38_45
.Ltmp165:
.LBB38_35:
	.loc	4 0 9 is_stmt 0         @ ../GD32E230_Firmware_Library/GD32E230_standard_peripheral/Source/gd32e230_rcu.c:0:9
	ldr	r0, __arm_cp.38_6
.Ltmp166:
	.loc	4 1020 42               @ ../GD32E230_Firmware_Library/GD32E230_standard_peripheral/Source/gd32e230_rcu.c:1020:42
	ldr	r0, [r0]
	movs	r1, #3
	.loc	4 1020 51               @ ../GD32E230_Firmware_Library/GD32E230_standard_peripheral/Source/gd32e230_rcu.c:1020:51
	ands	r0, r1
.Ltmp167:
	.loc	4 1020 18               @ ../GD32E230_Firmware_Library/GD32E230_standard_peripheral/Source/gd32e230_rcu.c:1020:18
	cmp	r0, #1
	bne	.LBB38_37
	b	.LBB38_36
.LBB38_36:
.Ltmp168:
	.loc	4 1021 26 is_stmt 1     @ ../GD32E230_Firmware_Library/GD32E230_standard_peripheral/Source/gd32e230_rcu.c:1021:26
	ldr	r0, [sp, #84]
	.loc	4 1021 24 is_stmt 0     @ ../GD32E230_Firmware_Library/GD32E230_standard_peripheral/Source/gd32e230_rcu.c:1021:24
	str	r0, [sp, #64]
	.loc	4 1022 9 is_stmt 1      @ ../GD32E230_Firmware_Library/GD32E230_standard_peripheral/Source/gd32e230_rcu.c:1022:9
	b	.LBB38_44
.Ltmp169:
.LBB38_37:
	.loc	4 0 9 is_stmt 0         @ ../GD32E230_Firmware_Library/GD32E230_standard_peripheral/Source/gd32e230_rcu.c:0:9
	ldr	r0, __arm_cp.38_6
.Ltmp170:
	.loc	4 1022 42               @ ../GD32E230_Firmware_Library/GD32E230_standard_peripheral/Source/gd32e230_rcu.c:1022:42
	ldr	r0, [r0]
	movs	r1, #3
	.loc	4 1022 51               @ ../GD32E230_Firmware_Library/GD32E230_standard_peripheral/Source/gd32e230_rcu.c:1022:51
	ands	r0, r1
.Ltmp171:
	.loc	4 1022 18               @ ../GD32E230_Firmware_Library/GD32E230_standard_peripheral/Source/gd32e230_rcu.c:1022:18
	cmp	r0, #2
	bne	.LBB38_39
	b	.LBB38_38
.LBB38_38:
	.loc	4 0 18                  @ ../GD32E230_Firmware_Library/GD32E230_standard_peripheral/Source/gd32e230_rcu.c:0:18
	movw	r0, #32768
.Ltmp172:
	.loc	4 1023 24 is_stmt 1     @ ../GD32E230_Firmware_Library/GD32E230_standard_peripheral/Source/gd32e230_rcu.c:1023:24
	str	r0, [sp, #64]
	.loc	4 1024 9                @ ../GD32E230_Firmware_Library/GD32E230_standard_peripheral/Source/gd32e230_rcu.c:1024:9
	b	.LBB38_43
.Ltmp173:
.LBB38_39:
	.loc	4 0 9 is_stmt 0         @ ../GD32E230_Firmware_Library/GD32E230_standard_peripheral/Source/gd32e230_rcu.c:0:9
	ldr	r0, __arm_cp.38_6
.Ltmp174:
	.loc	4 1024 42               @ ../GD32E230_Firmware_Library/GD32E230_standard_peripheral/Source/gd32e230_rcu.c:1024:42
	ldr	r0, [r0]
	movs	r1, #3
	.loc	4 1024 51               @ ../GD32E230_Firmware_Library/GD32E230_standard_peripheral/Source/gd32e230_rcu.c:1024:51
	ands	r0, r1
.Ltmp175:
	.loc	4 1024 18               @ ../GD32E230_Firmware_Library/GD32E230_standard_peripheral/Source/gd32e230_rcu.c:1024:18
	cmp	r0, #3
	bne	.LBB38_41
	b	.LBB38_40
.LBB38_40:
	.loc	4 0 18                  @ ../GD32E230_Firmware_Library/GD32E230_standard_peripheral/Source/gd32e230_rcu.c:0:18
	ldr	r0, __arm_cp.38_5
.Ltmp176:
	.loc	4 1025 24 is_stmt 1     @ ../GD32E230_Firmware_Library/GD32E230_standard_peripheral/Source/gd32e230_rcu.c:1025:24
	str	r0, [sp, #64]
	.loc	4 1026 9                @ ../GD32E230_Firmware_Library/GD32E230_standard_peripheral/Source/gd32e230_rcu.c:1026:9
	b	.LBB38_42
.Ltmp177:
.LBB38_41:
	.loc	4 0 9 is_stmt 0         @ ../GD32E230_Firmware_Library/GD32E230_standard_peripheral/Source/gd32e230_rcu.c:0:9
	b	.LBB38_42
.LBB38_42:
	b	.LBB38_43
.LBB38_43:
	b	.LBB38_44
.LBB38_44:
	b	.LBB38_45
.LBB38_45:
	.loc	4 1028 19 is_stmt 1     @ ../GD32E230_Firmware_Library/GD32E230_standard_peripheral/Source/gd32e230_rcu.c:1028:19
	ldr	r0, [sp, #64]
	.loc	4 1028 17 is_stmt 0     @ ../GD32E230_Firmware_Library/GD32E230_standard_peripheral/Source/gd32e230_rcu.c:1028:17
	str	r0, [sp, #88]
	.loc	4 1029 9 is_stmt 1      @ ../GD32E230_Firmware_Library/GD32E230_standard_peripheral/Source/gd32e230_rcu.c:1029:9
	b	.LBB38_47
.LBB38_46:
	.loc	4 1031 9                @ ../GD32E230_Firmware_Library/GD32E230_standard_peripheral/Source/gd32e230_rcu.c:1031:9
	b	.LBB38_47
.Ltmp178:
.LBB38_47:
	.loc	4 1033 12               @ ../GD32E230_Firmware_Library/GD32E230_standard_peripheral/Source/gd32e230_rcu.c:1033:12
	ldr	r0, [sp, #88]
	.loc	4 1033 5 is_stmt 0      @ ../GD32E230_Firmware_Library/GD32E230_standard_peripheral/Source/gd32e230_rcu.c:1033:5
	add	sp, #108
	bx	lr
.Ltmp179:
	.p2align	2
@ %bb.48:
	.loc	4 0 5                   @ ../GD32E230_Firmware_Library/GD32E230_standard_peripheral/Source/gd32e230_rcu.c:0:5
__arm_cp.38_0:
	.long	151521030               @ 0x9080706
.Lcpi_end56:
	.size	__arm_cp.38_0, .Lcpi_end56-__arm_cp.38_0
__arm_cp.38_1:
	.long	67305985                @ 0x4030201
.Lcpi_end57:
	.size	__arm_cp.38_1, .Lcpi_end57-__arm_cp.38_1
__arm_cp.38_2:
	.long	1073876996              @ 0x40021004
.Lcpi_end58:
	.size	__arm_cp.38_2, .Lcpi_end58-__arm_cp.38_2
__arm_cp.38_3:
	.long	4000000                 @ 0x3d0900
.Lcpi_end59:
	.size	__arm_cp.38_3, .Lcpi_end59-__arm_cp.38_3
__arm_cp.38_4:
	.long	1073877036              @ 0x4002102c
.Lcpi_end60:
	.size	__arm_cp.38_4, .Lcpi_end60-__arm_cp.38_4
__arm_cp.38_5:
	.long	8000000                 @ 0x7a1200
.Lcpi_end61:
	.size	__arm_cp.38_5, .Lcpi_end61-__arm_cp.38_5
__arm_cp.38_6:
	.long	1073877040              @ 0x40021030
.Lcpi_end62:
	.size	__arm_cp.38_6, .Lcpi_end62-__arm_cp.38_6
__arm_cp.38_7:
	.long	28000000                @ 0x1ab3f00
.Lcpi_end63:
	.size	__arm_cp.38_7, .Lcpi_end63-__arm_cp.38_7
__arm_cp.38_8:
	.long	14000000                @ 0xd59f80
.Lcpi_end64:
	.size	__arm_cp.38_8, .Lcpi_end64-__arm_cp.38_8
.Lfunc_end38:
	.size	rcu_clock_freq_get, .Lfunc_end38-rcu_clock_freq_get
	.cfi_endproc
	.cantunwind
	.fnend
                                        @ -- End function
	.type	.L__const.rcu_clock_freq_get.ahb_exp,%object @ @__const.rcu_clock_freq_get.ahb_exp
	.section	.rodata.cst16,"aM",%progbits,16
.L__const.rcu_clock_freq_get.ahb_exp:
	.ascii	"\000\000\000\000\000\000\000\000\001\002\003\004\006\007\b\t"
	.size	.L__const.rcu_clock_freq_get.ahb_exp, 16

	.type	.L__const.rcu_clock_freq_get.apb1_exp,%object @ @__const.rcu_clock_freq_get.apb1_exp
	.section	.rodata.cst8,"aM",%progbits,8
.L__const.rcu_clock_freq_get.apb1_exp:
	.ascii	"\000\000\000\000\001\002\003\004"
	.size	.L__const.rcu_clock_freq_get.apb1_exp, 8

	.type	.L__const.rcu_clock_freq_get.apb2_exp,%object @ @__const.rcu_clock_freq_get.apb2_exp
.L__const.rcu_clock_freq_get.apb2_exp:
	.ascii	"\000\000\000\000\001\002\003\004"
	.size	.L__const.rcu_clock_freq_get.apb2_exp, 8

	.section	".note.GNU-stack","",%progbits
	.eabi_attribute	30, 6	@ Tag_ABI_optimization_goals
	.ARM_attribute	16, 1	@ Tag_AV_eba