	.text
	.syntax unified
	.eabi_attribute	67, "2.09"	@ Tag_conformance
	.cpu	cortex-m23
	.eabi_attribute	6, 16	@ Tag_CPU_arch
	.eabi_attribute	7, 77	@ Tag_CPU_arch_profile
	.eabi_attribute	8, 0	@ Tag_ARM_ISA_use
	.eabi_attribute	9, 3	@ Tag_THUMB_ISA_use
	.eabi_attribute	34, 0	@ Tag_CPU_unaligned_access
	.eabi_attribute	17, 1	@ Tag_ABI_PCS_GOT_use
	.eabi_attribute	20, 2	@ Tag_ABI_FP_denormal
	.eabi_attribute	21, 0	@ Tag_ABI_FP_exceptions
	.eabi_attribute	23, 1	@ Tag_ABI_FP_number_model
	.eabi_attribute	24, 1	@ Tag_ABI_align_needed
	.eabi_attribute	25, 1	@ Tag_ABI_align_preserved
	.eabi_attribute	38, 1	@ Tag_ABI_FP_16bit_format
	.eabi_attribute	18, 2	@ Tag_ABI_PCS_wchar_t
	.eabi_attribute	26, 1	@ Tag_ABI_enum_size
	.eabi_attribute	14, 0	@ Tag_ABI_PCS_R9_use
	.file	"gd32e230_dma.c"
	.file	1 "E:\\Soway\\Soway_product-soft\\105 - T119-GD\\E230 -  ds18b20-F8\\MDK-ARM" "../GD32E230_Firmware_Library/GD32E230_standard_peripheral/Include\\gd32e230_dma.h"
	.file	2 "E:\\Soway\\Soway_product-soft\\105 - T119-GD\\E230 -  ds18b20-F8\\MDK-ARM" "../GD32E230_Firmware_Library/CMSIS/GD/GD32E230/Include\\gd32e230.h"
	.file	3 "D:\\Keil_v5\\ARM\\ARMCLANG\\Bin\\..\\include" "stdint.h"
	.section	.text.dma_deinit,"ax",%progbits
	.hidden	dma_deinit              @ -- Begin function dma_deinit
	.globl	dma_deinit
	.p2align	2
	.type	dma_deinit,%function
	.code	16                      @ @dma_deinit
	.thumb_func
dma_deinit:
.Lfunc_begin0:
	.file	4 "E:\\Soway\\Soway_product-soft\\105 - T119-GD\\E230 -  ds18b20-F8\\MDK-ARM" "../GD32E230_Firmware_Library/GD32E230_standard_peripheral/Source/gd32e230_dma.c"
	.loc	4 48 0                  @ ../GD32E230_Firmware_Library/GD32E230_standard_peripheral/Source/gd32e230_dma.c:48:0
	.fnstart
	.cfi_sections .debug_frame
	.cfi_startproc
@ %bb.0:
	.save	{r4, r5, r6, lr}
	push	{r4, r5, r6, lr}
	.cfi_def_cfa_offset 16
	.cfi_offset lr, -4
	.cfi_offset r6, -8
	.cfi_offset r5, -12
	.cfi_offset r4, -16
	.pad	#4
	sub	sp, #4
	.cfi_def_cfa_offset 20
	mov	r1, r0
	mov	r2, sp
	strb	r0, [r2]
.Ltmp0:
	.loc	4 50 5 prologue_end     @ ../GD32E230_Firmware_Library/GD32E230_standard_peripheral/Source/gd32e230_dma.c:50:5
	ldrb	r0, [r2]
	movs	r3, #20
	mov	r4, r3
	muls	r4, r0, r4
	ldr	r0, __arm_cp.0_0
	.loc	4 50 25 is_stmt 0       @ ../GD32E230_Firmware_Library/GD32E230_standard_peripheral/Source/gd32e230_dma.c:50:25
	ldr	r5, [r4, r0]
	movs	r6, #1
	bics	r5, r6
	str	r5, [r4, r0]
	.loc	4 52 5 is_stmt 1        @ ../GD32E230_Firmware_Library/GD32E230_standard_peripheral/Source/gd32e230_dma.c:52:5
	ldrb	r4, [r2]
	mov	r5, r3
	muls	r5, r4, r5
	movs	r4, #0
	.loc	4 52 25 is_stmt 0       @ ../GD32E230_Firmware_Library/GD32E230_standard_peripheral/Source/gd32e230_dma.c:52:25
	str	r4, [r5, r0]
	.loc	4 53 5 is_stmt 1        @ ../GD32E230_Firmware_Library/GD32E230_standard_peripheral/Source/gd32e230_dma.c:53:5
	ldrb	r0, [r2]
	mov	r5, r3
	muls	r5, r0, r5
	ldr	r0, __arm_cp.0_1
	.loc	4 53 25 is_stmt 0       @ ../GD32E230_Firmware_Library/GD32E230_standard_peripheral/Source/gd32e230_dma.c:53:25
	str	r4, [r5, r0]
	.loc	4 54 5 is_stmt 1        @ ../GD32E230_Firmware_Library/GD32E230_standard_peripheral/Source/gd32e230_dma.c:54:5
	ldrb	r0, [r2]
	mov	r5, r3
	muls	r5, r0, r5
	ldr	r0, __arm_cp.0_2
	.loc	4 54 27 is_stmt 0       @ ../GD32E230_Firmware_Library/GD32E230_standard_peripheral/Source/gd32e230_dma.c:54:27
	str	r4, [r5, r0]
	.loc	4 55 5 is_stmt 1        @ ../GD32E230_Firmware_Library/GD32E230_standard_peripheral/Source/gd32e230_dma.c:55:5
	ldrb	r0, [r2]
	muls	r3, r0, r3
	ldr	r0, __arm_cp.0_3
	.loc	4 55 27 is_stmt 0       @ ../GD32E230_Firmware_Library/GD32E230_standard_peripheral/Source/gd32e230_dma.c:55:27
	str	r4, [r3, r0]
	.loc	4 56 17 is_stmt 1       @ ../GD32E230_Firmware_Library/GD32E230_standard_peripheral/Source/gd32e230_dma.c:56:17
	ldrb	r0, [r2]
	lsls	r0, r0, #2
	movs	r2, #15
	lsls	r2, r0
	ldr	r0, __arm_cp.0_4
	.loc	4 56 14 is_stmt 0       @ ../GD32E230_Firmware_Library/GD32E230_standard_peripheral/Source/gd32e230_dma.c:56:14
	ldr	r3, [r0]
	orrs	r3, r2
	str	r3, [r0]
	.loc	4 57 1 is_stmt 1        @ ../GD32E230_Firmware_Library/GD32E230_standard_peripheral/Source/gd32e230_dma.c:57:1
	add	sp, #4
	pop	{r4, r5, r6, pc}
.Ltmp1:
	.p2align	2
@ %bb.1:
	.loc	4 0 1 is_stmt 0         @ ../GD32E230_Firmware_Library/GD32E230_standard_peripheral/Source/gd32e230_dma.c:0:1
__arm_cp.0_0:
	.long	1073872904              @ 0x40020008
.Lcpi_end0:
	.size	__arm_cp.0_0, .Lcpi_end0-__arm_cp.0_0
__arm_cp.0_1:
	.long	1073872908              @ 0x4002000c
.Lcpi_end1:
	.size	__arm_cp.0_1, .Lcpi_end1-__arm_cp.0_1
__arm_cp.0_2:
	.long	1073872912              @ 0x40020010
.Lcpi_end2:
	.size	__arm_cp.0_2, .Lcpi_end2-__arm_cp.0_2
__arm_cp.0_3:
	.long	1073872916              @ 0x40020014
.Lcpi_end3:
	.size	__arm_cp.0_3, .Lcpi_end3-__arm_cp.0_3
__arm_cp.0_4:
	.long	1073872900              @ 0x40020004
.Lcpi_end4:
	.size	__arm_cp.0_4, .Lcpi_end4-__arm_cp.0_4
.Lfunc_end0:
	.size	dma_deinit, .Lfunc_end0-dma_deinit
	.cfi_endproc
	.cantunwind
	.fnend
                                        @ -- End function
	.section	.text.dma_struct_para_init,"ax",%progbits
	.hidden	dma_struct_para_init    @ -- Begin function dma_struct_para_init
	.globl	dma_struct_para_init
	.p2align	1
	.type	dma_struct_para_init,%function
	.code	16                      @ @dma_struct_para_init
	.thumb_func
dma_struct_para_init:
.Lfunc_begin1:
	.loc	4 66 0 is_stmt 1        @ ../GD32E230_Firmware_Library/GD32E230_standard_peripheral/Source/gd32e230_dma.c:66:0
	.fnstart
	.cfi_startproc
@ %bb.0:
	.pad	#4
	sub	sp, #4
	.cfi_def_cfa_offset 4
	str	r0, [sp]
.Ltmp2:
	.loc	4 68 5 prologue_end     @ ../GD32E230_Firmware_Library/GD32E230_standard_peripheral/Source/gd32e230_dma.c:68:5
	ldr	r0, [sp]
	movs	r1, #0
	.loc	4 68 31 is_stmt 0       @ ../GD32E230_Firmware_Library/GD32E230_standard_peripheral/Source/gd32e230_dma.c:68:31
	str	r1, [r0]
	.loc	4 69 5 is_stmt 1        @ ../GD32E230_Firmware_Library/GD32E230_standard_peripheral/Source/gd32e230_dma.c:69:5
	ldr	r0, [sp]
	.loc	4 69 31 is_stmt 0       @ ../GD32E230_Firmware_Library/GD32E230_standard_peripheral/Source/gd32e230_dma.c:69:31
	str	r1, [r0, #4]
	.loc	4 70 5 is_stmt 1        @ ../GD32E230_Firmware_Library/GD32E230_standard_peripheral/Source/gd32e230_dma.c:70:5
	ldr	r0, [sp]
	.loc	4 70 31 is_stmt 0       @ ../GD32E230_Firmware_Library/GD32E230_standard_peripheral/Source/gd32e230_dma.c:70:31
	strb	r1, [r0, #24]
	.loc	4 71 5 is_stmt 1        @ ../GD32E230_Firmware_Library/GD32E230_standard_peripheral/Source/gd32e230_dma.c:71:5
	ldr	r0, [sp]
	.loc	4 71 31 is_stmt 0       @ ../GD32E230_Firmware_Library/GD32E230_standard_peripheral/Source/gd32e230_dma.c:71:31
	str	r1, [r0, #8]
	.loc	4 72 5 is_stmt 1        @ ../GD32E230_Firmware_Library/GD32E230_standard_peripheral/Source/gd32e230_dma.c:72:5
	ldr	r0, [sp]
	.loc	4 72 31 is_stmt 0       @ ../GD32E230_Firmware_Library/GD32E230_standard_peripheral/Source/gd32e230_dma.c:72:31
	str	r1, [r0, #12]
	.loc	4 73 5 is_stmt 1        @ ../GD32E230_Firmware_Library/GD32E230_standard_peripheral/Source/gd32e230_dma.c:73:5
	ldr	r0, [sp]
	.loc	4 73 31 is_stmt 0       @ ../GD32E230_Firmware_Library/GD32E230_standard_peripheral/Source/gd32e230_dma.c:73:31
	strb	r1, [r0, #25]
	.loc	4 74 5 is_stmt 1        @ ../GD32E230_Firmware_Library/GD32E230_standard_peripheral/Source/gd32e230_dma.c:74:5
	ldr	r0, [sp]
	.loc	4 74 31 is_stmt 0       @ ../GD32E230_Firmware_Library/GD32E230_standard_peripheral/Source/gd32e230_dma.c:74:31
	str	r1, [r0, #16]
	.loc	4 75 5 is_stmt 1        @ ../GD32E230_Firmware_Library/GD32E230_standard_peripheral/Source/gd32e230_dma.c:75:5
	ldr	r0, [sp]
	.loc	4 75 31 is_stmt 0       @ ../GD32E230_Firmware_Library/GD32E230_standard_peripheral/Source/gd32e230_dma.c:75:31
	strb	r1, [r0, #26]
	.loc	4 76 5 is_stmt 1        @ ../GD32E230_Firmware_Library/GD32E230_standard_peripheral/Source/gd32e230_dma.c:76:5
	ldr	r0, [sp]
	.loc	4 76 31 is_stmt 0       @ ../GD32E230_Firmware_Library/GD32E230_standard_peripheral/Source/gd32e230_dma.c:76:31
	str	r1, [r0, #20]
	.loc	4 77 1 is_stmt 1        @ ../GD32E230_Firmware_Library/GD32E230_standard_peripheral/Source/gd32e230_dma.c:77:1
	add	sp, #4
	bx	lr
.Ltmp3:
.Lfunc_end1:
	.size	dma_struct_para_init, .Lfunc_end1-dma_struct_para_init
	.cfi_endproc
	.cantunwind
	.fnend
                                        @ -- End function
	.section	.text.dma_init,"ax",%progbits
	.hidden	dma_init                @ -- Begin function dma_init
	.globl	dma_init
	.p2align	2
	.type	dma_init,%function
	.code	16                      @ @dma_init
	.thumb_func
dma_init:
.Lfunc_begin2:
	.loc	4 98 0                  @ ../GD32E230_Firmware_Library/GD32E230_standard_peripheral/Source/gd32e230_dma.c:98:0
	.fnstart
	.cfi_startproc
@ %bb.0:
	.save	{r4, r5, r7, lr}
	push	{r4, r5, r7, lr}
	.cfi_def_cfa_offset 16
	.cfi_offset lr, -4
	.cfi_offset r7, -8
	.cfi_offset r5, -12
	.cfi_offset r4, -16
	.pad	#24
	sub	sp, #24
	.cfi_def_cfa_offset 40
	mov	r2, r0
	add	r3, sp, #20
	strb	r0, [r3]
	str	r1, [sp, #16]
.Ltmp4:
	.loc	4 101 25 prologue_end   @ ../GD32E230_Firmware_Library/GD32E230_standard_peripheral/Source/gd32e230_dma.c:101:25
	ldrb	r0, [r3]
	.loc	4 101 5 is_stmt 0       @ ../GD32E230_Firmware_Library/GD32E230_standard_peripheral/Source/gd32e230_dma.c:101:5
	str	r2, [sp, #8]            @ 4-byte Spill
	str	r3, [sp, #4]            @ 4-byte Spill
	bl	dma_channel_disable
	.loc	4 104 29 is_stmt 1      @ ../GD32E230_Firmware_Library/GD32E230_standard_peripheral/Source/gd32e230_dma.c:104:29
	ldr	r0, [sp, #16]
	.loc	4 104 42 is_stmt 0      @ ../GD32E230_Firmware_Library/GD32E230_standard_peripheral/Source/gd32e230_dma.c:104:42
	ldr	r0, [r0]
	.loc	4 104 5                 @ ../GD32E230_Firmware_Library/GD32E230_standard_peripheral/Source/gd32e230_dma.c:104:5
	ldr	r1, [sp, #4]            @ 4-byte Reload
	ldrb	r2, [r1]
	movs	r3, #20
	mov	r4, r3
	muls	r4, r2, r4
	ldr	r2, __arm_cp.2_0
	.loc	4 104 27                @ ../GD32E230_Firmware_Library/GD32E230_standard_peripheral/Source/gd32e230_dma.c:104:27
	str	r0, [r4, r2]
	.loc	4 107 29 is_stmt 1      @ ../GD32E230_Firmware_Library/GD32E230_standard_peripheral/Source/gd32e230_dma.c:107:29
	ldr	r0, [sp, #16]
	.loc	4 107 42 is_stmt 0      @ ../GD32E230_Firmware_Library/GD32E230_standard_peripheral/Source/gd32e230_dma.c:107:42
	ldr	r0, [r0, #8]
	.loc	4 107 5                 @ ../GD32E230_Firmware_Library/GD32E230_standard_peripheral/Source/gd32e230_dma.c:107:5
	ldrb	r2, [r1]
	mov	r4, r3
	muls	r4, r2, r4
	ldr	r2, __arm_cp.2_1
	.loc	4 107 27                @ ../GD32E230_Firmware_Library/GD32E230_standard_peripheral/Source/gd32e230_dma.c:107:27
	str	r0, [r4, r2]
	.loc	4 110 28 is_stmt 1      @ ../GD32E230_Firmware_Library/GD32E230_standard_peripheral/Source/gd32e230_dma.c:110:28
	ldr	r0, [sp, #16]
	.loc	4 110 41 is_stmt 0      @ ../GD32E230_Firmware_Library/GD32E230_standard_peripheral/Source/gd32e230_dma.c:110:41
	ldrh	r0, [r0, #16]
	.loc	4 110 5                 @ ../GD32E230_Firmware_Library/GD32E230_standard_peripheral/Source/gd32e230_dma.c:110:5
	ldrb	r2, [r1]
	mov	r4, r3
	muls	r4, r2, r4
	ldr	r2, __arm_cp.2_2
	.loc	4 110 25                @ ../GD32E230_Firmware_Library/GD32E230_standard_peripheral/Source/gd32e230_dma.c:110:25
	str	r0, [r4, r2]
	.loc	4 113 11 is_stmt 1      @ ../GD32E230_Firmware_Library/GD32E230_standard_peripheral/Source/gd32e230_dma.c:113:11
	ldrb	r0, [r1]
	mov	r2, r3
	muls	r2, r0, r2
	ldr	r0, __arm_cp.2_3
	ldr	r2, [r2, r0]
	.loc	4 113 9 is_stmt 0       @ ../GD32E230_Firmware_Library/GD32E230_standard_peripheral/Source/gd32e230_dma.c:113:9
	str	r2, [sp, #12]
	.loc	4 114 9 is_stmt 1       @ ../GD32E230_Firmware_Library/GD32E230_standard_peripheral/Source/gd32e230_dma.c:114:9
	ldr	r2, [sp, #12]
	movw	r4, #16128
	bics	r2, r4
	str	r2, [sp, #12]
	.loc	4 115 13                @ ../GD32E230_Firmware_Library/GD32E230_standard_peripheral/Source/gd32e230_dma.c:115:13
	ldr	r2, [sp, #16]
	.loc	4 115 26 is_stmt 0      @ ../GD32E230_Firmware_Library/GD32E230_standard_peripheral/Source/gd32e230_dma.c:115:26
	ldr	r4, [r2, #4]
	.loc	4 115 54                @ ../GD32E230_Firmware_Library/GD32E230_standard_peripheral/Source/gd32e230_dma.c:115:54
	ldr	r5, [r2, #12]
	.loc	4 115 39                @ ../GD32E230_Firmware_Library/GD32E230_standard_peripheral/Source/gd32e230_dma.c:115:39
	orrs	r4, r5
	.loc	4 115 82                @ ../GD32E230_Firmware_Library/GD32E230_standard_peripheral/Source/gd32e230_dma.c:115:82
	ldr	r2, [r2, #20]
	.loc	4 115 67                @ ../GD32E230_Firmware_Library/GD32E230_standard_peripheral/Source/gd32e230_dma.c:115:67
	orrs	r4, r2
	.loc	4 115 9                 @ ../GD32E230_Firmware_Library/GD32E230_standard_peripheral/Source/gd32e230_dma.c:115:9
	ldr	r2, [sp, #12]
	orrs	r2, r4
	str	r2, [sp, #12]
	.loc	4 116 27 is_stmt 1      @ ../GD32E230_Firmware_Library/GD32E230_standard_peripheral/Source/gd32e230_dma.c:116:27
	ldr	r2, [sp, #12]
	.loc	4 116 5 is_stmt 0       @ ../GD32E230_Firmware_Library/GD32E230_standard_peripheral/Source/gd32e230_dma.c:116:5
	ldrb	r4, [r1]
	muls	r3, r4, r3
	.loc	4 116 25                @ ../GD32E230_Firmware_Library/GD32E230_standard_peripheral/Source/gd32e230_dma.c:116:25
	str	r2, [r3, r0]
.Ltmp5:
	.loc	4 119 38 is_stmt 1      @ ../GD32E230_Firmware_Library/GD32E230_standard_peripheral/Source/gd32e230_dma.c:119:38
	ldr	r0, [sp, #16]
	.loc	4 119 51 is_stmt 0      @ ../GD32E230_Firmware_Library/GD32E230_standard_peripheral/Source/gd32e230_dma.c:119:51
	ldrb	r0, [r0, #24]
.Ltmp6:
	.loc	4 119 8                 @ ../GD32E230_Firmware_Library/GD32E230_standard_peripheral/Source/gd32e230_dma.c:119:8
	cmp	r0, #1
	bne	.LBB2_2
	b	.LBB2_1
.LBB2_1:
	.loc	4 0 8                   @ ../GD32E230_Firmware_Library/GD32E230_standard_peripheral/Source/gd32e230_dma.c:0:8
	add	r0, sp, #20
.Ltmp7:
	.loc	4 120 9 is_stmt 1       @ ../GD32E230_Firmware_Library/GD32E230_standard_peripheral/Source/gd32e230_dma.c:120:9
	ldrb	r0, [r0]
	movs	r1, #20
	muls	r1, r0, r1
	ldr	r0, __arm_cp.2_3
	.loc	4 120 29 is_stmt 0      @ ../GD32E230_Firmware_Library/GD32E230_standard_peripheral/Source/gd32e230_dma.c:120:29
	ldr	r2, [r1, r0]
	movs	r3, #64
	orrs	r2, r3
	str	r2, [r1, r0]
	.loc	4 121 5 is_stmt 1       @ ../GD32E230_Firmware_Library/GD32E230_standard_peripheral/Source/gd32e230_dma.c:121:5
	b	.LBB2_3
.Ltmp8:
.LBB2_2:
	.loc	4 0 5 is_stmt 0         @ ../GD32E230_Firmware_Library/GD32E230_standard_peripheral/Source/gd32e230_dma.c:0:5
	add	r0, sp, #20
.Ltmp9:
	.loc	4 122 9 is_stmt 1       @ ../GD32E230_Firmware_Library/GD32E230_standard_peripheral/Source/gd32e230_dma.c:122:9
	ldrb	r0, [r0]
	movs	r1, #20
	muls	r1, r0, r1
	ldr	r0, __arm_cp.2_3
	.loc	4 122 29 is_stmt 0      @ ../GD32E230_Firmware_Library/GD32E230_standard_peripheral/Source/gd32e230_dma.c:122:29
	ldr	r2, [r1, r0]
	movs	r3, #64
	bics	r2, r3
	str	r2, [r1, r0]
	b	.LBB2_3
.Ltmp10:
.LBB2_3:
	.loc	4 126 38 is_stmt 1      @ ../GD32E230_Firmware_Library/GD32E230_standard_peripheral/Source/gd32e230_dma.c:126:38
	ldr	r0, [sp, #16]
	.loc	4 126 51 is_stmt 0      @ ../GD32E230_Firmware_Library/GD32E230_standard_peripheral/Source/gd32e230_dma.c:126:51
	ldrb	r0, [r0, #25]
.Ltmp11:
	.loc	4 126 8                 @ ../GD32E230_Firmware_Library/GD32E230_standard_peripheral/Source/gd32e230_dma.c:126:8
	cmp	r0, #1
	bne	.LBB2_5
	b	.LBB2_4
.LBB2_4:
	.loc	4 0 8                   @ ../GD32E230_Firmware_Library/GD32E230_standard_peripheral/Source/gd32e230_dma.c:0:8
	add	r0, sp, #20
.Ltmp12:
	.loc	4 127 9 is_stmt 1       @ ../GD32E230_Firmware_Library/GD32E230_standard_peripheral/Source/gd32e230_dma.c:127:9
	ldrb	r0, [r0]
	movs	r1, #20
	muls	r1, r0, r1
	ldr	r0, __arm_cp.2_3
	.loc	4 127 29 is_stmt 0      @ ../GD32E230_Firmware_Library/GD32E230_standard_peripheral/Source/gd32e230_dma.c:127:29
	ldr	r2, [r1, r0]
	movs	r3, #128
	orrs	r2, r3
	str	r2, [r1, r0]
	.loc	4 128 5 is_stmt 1       @ ../GD32E230_Firmware_Library/GD32E230_standard_peripheral/Source/gd32e230_dma.c:128:5
	b	.LBB2_6
.Ltmp13:
.LBB2_5:
	.loc	4 0 5 is_stmt 0         @ ../GD32E230_Firmware_Library/GD32E230_standard_peripheral/Source/gd32e230_dma.c:0:5
	add	r0, sp, #20
.Ltmp14:
	.loc	4 129 9 is_stmt 1       @ ../GD32E230_Firmware_Library/GD32E230_standard_peripheral/Source/gd32e230_dma.c:129:9
	ldrb	r0, [r0]
	movs	r1, #20
	muls	r1, r0, r1
	ldr	r0, __arm_cp.2_3
	.loc	4 129 29 is_stmt 0      @ ../GD32E230_Firmware_Library/GD32E230_standard_peripheral/Source/gd32e230_dma.c:129:29
	ldr	r2, [r1, r0]
	movs	r3, #128
	bics	r2, r3
	str	r2, [r1, r0]
	b	.LBB2_6
.Ltmp15:
.LBB2_6:
	.loc	4 133 36 is_stmt 1      @ ../GD32E230_Firmware_Library/GD32E230_standard_peripheral/Source/gd32e230_dma.c:133:36
	ldr	r0, [sp, #16]
	.loc	4 133 49 is_stmt 0      @ ../GD32E230_Firmware_Library/GD32E230_standard_peripheral/Source/gd32e230_dma.c:133:49
	ldrb	r0, [r0, #26]
.Ltmp16:
	.loc	4 133 8                 @ ../GD32E230_Firmware_Library/GD32E230_standard_peripheral/Source/gd32e230_dma.c:133:8
	cmp	r0, #0
	bne	.LBB2_8
	b	.LBB2_7
.LBB2_7:
	.loc	4 0 8                   @ ../GD32E230_Firmware_Library/GD32E230_standard_peripheral/Source/gd32e230_dma.c:0:8
	add	r0, sp, #20
.Ltmp17:
	.loc	4 134 9 is_stmt 1       @ ../GD32E230_Firmware_Library/GD32E230_standard_peripheral/Source/gd32e230_dma.c:134:9
	ldrb	r0, [r0]
	movs	r1, #20
	muls	r1, r0, r1
	ldr	r0, __arm_cp.2_3
	.loc	4 134 29 is_stmt 0      @ ../GD32E230_Firmware_Library/GD32E230_standard_peripheral/Source/gd32e230_dma.c:134:29
	ldr	r2, [r1, r0]
	movs	r3, #16
	bics	r2, r3
	str	r2, [r1, r0]
	.loc	4 135 5 is_stmt 1       @ ../GD32E230_Firmware_Library/GD32E230_standard_peripheral/Source/gd32e230_dma.c:135:5
	b	.LBB2_9
.Ltmp18:
.LBB2_8:
	.loc	4 0 5 is_stmt 0         @ ../GD32E230_Firmware_Library/GD32E230_standard_peripheral/Source/gd32e230_dma.c:0:5
	add	r0, sp, #20
.Ltmp19:
	.loc	4 136 9 is_stmt 1       @ ../GD32E230_Firmware_Library/GD32E230_standard_peripheral/Source/gd32e230_dma.c:136:9
	ldrb	r0, [r0]
	movs	r1, #20
	muls	r1, r0, r1
	ldr	r0, __arm_cp.2_3
	.loc	4 136 29 is_stmt 0      @ ../GD32E230_Firmware_Library/GD32E230_standard_peripheral/Source/gd32e230_dma.c:136:29
	ldr	r2, [r1, r0]
	movs	r3, #16
	orrs	r2, r3
	str	r2, [r1, r0]
	b	.LBB2_9
.Ltmp20:
.LBB2_9:
	.loc	4 138 1 is_stmt 1       @ ../GD32E230_Firmware_Library/GD32E230_standard_peripheral/Source/gd32e230_dma.c:138:1
	add	sp, #24
	pop	{r4, r5, r7, pc}
.Ltmp21:
	.p2align	2
@ %bb.10:
	.loc	4 0 1 is_stmt 0         @ ../GD32E230_Firmware_Library/GD32E230_standard_peripheral/Source/gd32e230_dma.c:0:1
__arm_cp.2_0:
	.long	1073872912              @ 0x40020010
.Lcpi_end5:
	.size	__arm_cp.2_0, .Lcpi_end5-__arm_cp.2_0
__arm_cp.2_1:
	.long	1073872916              @ 0x40020014
.Lcpi_end6:
	.size	__arm_cp.2_1, .Lcpi_end6-__arm_cp.2_1
__arm_cp.2_2:
	.long	1073872908              @ 0x4002000c
.Lcpi_end7:
	.size	__arm_cp.2_2, .Lcpi_end7-__arm_cp.2_2
__arm_cp.2_3:
	.long	1073872904              @ 0x40020008
.Lcpi_end8:
	.size	__arm_cp.2_3, .Lcpi_end8-__arm_cp.2_3
.Lfunc_end2:
	.size	dma_init, .Lfunc_end2-dma_init
	.cfi_endproc
	.cantunwind
	.fnend
                                        @ -- End function
	.section	.text.dma_channel_disable,"ax",%progbits
	.hidden	dma_channel_disable     @ -- Begin function dma_channel_disable
	.globl	dma_channel_disable
	.p2align	2
	.type	dma_channel_disable,%function
	.code	16                      @ @dma_channel_disable
	.thumb_func
dma_channel_disable:
.Lfunc_begin3:
	.loc	4 214 0 is_stmt 1       @ ../GD32E230_Firmware_Library/GD32E230_standard_peripheral/Source/gd32e230_dma.c:214:0
	.fnstart
	.cfi_startproc
@ %bb.0:
	.save	{r4, lr}
	push	{r4, lr}
	.cfi_def_cfa_offset 8
	.cfi_offset lr, -4
	.cfi_offset r4, -8
	.pad	#4
	sub	sp, #4
	.cfi_def_cfa_offset 12
	mov	r1, r0
	mov	r2, sp
	strb	r0, [r2]
.Ltmp22:
	.loc	4 215 5 prologue_end    @ ../GD32E230_Firmware_Library/GD32E230_standard_peripheral/Source/gd32e230_dma.c:215:5
	ldrb	r0, [r2]
	movs	r2, #20
	muls	r2, r0, r2
	ldr	r0, __arm_cp.3_0
	.loc	4 215 25 is_stmt 0      @ ../GD32E230_Firmware_Library/GD32E230_standard_peripheral/Source/gd32e230_dma.c:215:25
	ldr	r3, [r2, r0]
	movs	r4, #1
	bics	r3, r4
	str	r3, [r2, r0]
	.loc	4 216 1 is_stmt 1       @ ../GD32E230_Firmware_Library/GD32E230_standard_peripheral/Source/gd32e230_dma.c:216:1
	add	sp, #4
	pop	{r4, pc}
.Ltmp23:
	.p2align	2
@ %bb.1:
	.loc	4 0 1 is_stmt 0         @ ../GD32E230_Firmware_Library/GD32E230_standard_peripheral/Source/gd32e230_dma.c:0:1
__arm_cp.3_0:
	.long	1073872904              @ 0x40020008
.Lcpi_end9:
	.size	__arm_cp.3_0, .Lcpi_end9-__arm_cp.3_0
.Lfunc_end3:
	.size	dma_channel_disable, .Lfunc_end3-dma_channel_disable
	.cfi_endproc
	.cantunwind
	.fnend
                                        @ -- End function
	.section	.text.dma_circulation_enable,"ax",%progbits
	.hidden	dma_circulation_enable  @ -- Begin function dma_circulation_enable
	.globl	dma_circulation_enable
	.p2align	2
	.type	dma_circulation_enable,%function
	.code	16                      @ @dma_circulation_enable
	.thumb_func
dma_circulation_enable:
.Lfunc_begin4:
	.loc	4 149 0 is_stmt 1       @ ../GD32E230_Firmware_Library/GD32E230_standard_peripheral/Source/gd32e230_dma.c:149:0
	.fnstart
	.cfi_startproc
@ %bb.0:
	.save	{r4, lr}
	push	{r4, lr}
	.cfi_def_cfa_offset 8
	.cfi_offset lr, -4
	.cfi_offset r4, -8
	.pad	#4
	sub	sp, #4
	.cfi_def_cfa_offset 12
	mov	r1, r0
	mov	r2, sp
	strb	r0, [r2]
.Ltmp24:
	.loc	4 150 5 prologue_end    @ ../GD32E230_Firmware_Library/GD32E230_standard_peripheral/Source/gd32e230_dma.c:150:5
	ldrb	r0, [r2]
	movs	r2, #20
	muls	r2, r0, r2
	ldr	r0, __arm_cp.4_0
	.loc	4 150 25 is_stmt 0      @ ../GD32E230_Firmware_Library/GD32E230_standard_peripheral/Source/gd32e230_dma.c:150:25
	ldr	r3, [r2, r0]
	movs	r4, #32
	orrs	r3, r4
	str	r3, [r2, r0]
	.loc	4 151 1 is_stmt 1       @ ../GD32E230_Firmware_Library/GD32E230_standard_peripheral/Source/gd32e230_dma.c:151:1
	add	sp, #4
	pop	{r4, pc}
.Ltmp25:
	.p2align	2
@ %bb.1:
	.loc	4 0 1 is_stmt 0         @ ../GD32E230_Firmware_Library/GD32E230_standard_peripheral/Source/gd32e230_dma.c:0:1
__arm_cp.4_0:
	.long	1073872904              @ 0x40020008
.Lcpi_end10:
	.size	__arm_cp.4_0, .Lcpi_end10-__arm_cp.4_0
.Lfunc_end4:
	.size	dma_circulation_enable, .Lfunc_end4-dma_circulation_enable
	.cfi_endproc
	.cantunwind
	.fnend
                                        @ -- End function
	.section	.text.dma_circulation_disable,"ax",%progbits
	.hidden	dma_circulation_disable @ -- Begin function dma_circulation_disable
	.globl	dma_circulation_disable
	.p2align	2
	.type	dma_circulation_disable,%function
	.code	16                      @ @dma_circulation_disable
	.thumb_func
dma_circulation_disable:
.Lfunc_begin5:
	.loc	4 162 0 is_stmt 1       @ ../GD32E230_Firmware_Library/GD32E230_standard_peripheral/Source/gd32e230_dma.c:162:0
	.fnstart
	.cfi_startproc
@ %bb.0:
	.save	{r4, lr}
	push	{r4, lr}
	.cfi_def_cfa_offset 8
	.cfi_offset lr, -4
	.cfi_offset r4, -8
	.pad	#4
	sub	sp, #4
	.cfi_def_cfa_offset 12
	mov	r1, r0
	mov	r2, sp
	strb	r0, [r2]
.Ltmp26:
	.loc	4 163 5 prologue_end    @ ../GD32E230_Firmware_Library/GD32E230_standard_peripheral/Source/gd32e230_dma.c:163:5
	ldrb	r0, [r2]
	movs	r2, #20
	muls	r2, r0, r2
	ldr	r0, __arm_cp.5_0
	.loc	4 163 25 is_stmt 0      @ ../GD32E230_Firmware_Library/GD32E230_standard_peripheral/Source/gd32e230_dma.c:163:25
	ldr	r3, [r2, r0]
	movs	r4, #32
	bics	r3, r4
	str	r3, [r2, r0]
	.loc	4 164 1 is_stmt 1       @ ../GD32E230_Firmware_Library/GD32E230_standard_peripheral/Source/gd32e230_dma.c:164:1
	add	sp, #4
	pop	{r4, pc}
.Ltmp27:
	.p2align	2
@ %bb.1:
	.loc	4 0 1 is_stmt 0         @ ../GD32E230_Firmware_Library/GD32E230_standard_peripheral/Source/gd32e230_dma.c:0:1
__arm_cp.5_0:
	.long	1073872904              @ 0x40020008
.Lcpi_end11:
	.size	__arm_cp.5_0, .Lcpi_end11-__arm_cp.5_0
.Lfunc_end5:
	.size	dma_circulation_disable, .Lfunc_end5-dma_circulation_disable
	.cfi_endproc
	.cantunwind
	.fnend
                                        @ -- End function
	.section	.text.dma_memory_to_memory_enable,"ax",%progbits
	.hidden	dma_memory_to_memory_enable @ -- Begin function dma_memory_to_memory_enable
	.globl	dma_memory_to_memory_enable
	.p2align	2
	.type	dma_memory_to_memory_enable,%function
	.code	16                      @ @dma_memory_to_memory_enable
	.thumb_func
dma_memory_to_memory_enable:
.Lfunc_begin6:
	.loc	4 175 0 is_stmt 1       @ ../GD32E230_Firmware_Library/GD32E230_standard_peripheral/Source/gd32e230_dma.c:175:0
	.fnstart
	.cfi_startproc
@ %bb.0:
	.save	{r4, lr}
	push	{r4, lr}
	.cfi_def_cfa_offset 8
	.cfi_offset lr, -4
	.cfi_offset r4, -8
	.pad	#4
	sub	sp, #4
	.cfi_def_cfa_offset 12
	mov	r1, r0
	mov	r2, sp
	strb	r0, [r2]
.Ltmp28:
	.loc	4 176 5 prologue_end    @ ../GD32E230_Firmware_Library/GD32E230_standard_peripheral/Source/gd32e230_dma.c:176:5
	ldrb	r0, [r2]
	movs	r2, #20
	muls	r2, r0, r2
	ldr	r0, __arm_cp.6_0
	.loc	4 176 25 is_stmt 0      @ ../GD32E230_Firmware_Library/GD32E230_standard_peripheral/Source/gd32e230_dma.c:176:25
	ldr	r3, [r2, r0]
	movw	r4, #16384
	orrs	r3, r4
	str	r3, [r2, r0]
	.loc	4 177 1 is_stmt 1       @ ../GD32E230_Firmware_Library/GD32E230_standard_peripheral/Source/gd32e230_dma.c:177:1
	add	sp, #4
	pop	{r4, pc}
.Ltmp29:
	.p2align	2
@ %bb.1:
	.loc	4 0 1 is_stmt 0         @ ../GD32E230_Firmware_Library/GD32E230_standard_peripheral/Source/gd32e230_dma.c:0:1
__arm_cp.6_0:
	.long	1073872904              @ 0x40020008
.Lcpi_end12:
	.size	__arm_cp.6_0, .Lcpi_end12-__arm_cp.6_0
.Lfunc_end6:
	.size	dma_memory_to_memory_enable, .Lfunc_end6-dma_memory_to_memory_enable
	.cfi_endproc
	.cantunwind
	.fnend
                                        @ -- End function
	.section	.text.dma_memory_to_memory_disable,"ax",%progbits
	.hidden	dma_memory_to_memory_disable @ -- Begin function dma_memory_to_memory_disable
	.globl	dma_memory_to_memory_disable
	.p2align	2
	.type	dma_memory_to_memory_disable,%function
	.code	16                      @ @dma_memory_to_memory_disable
	.thumb_func
dma_memory_to_memory_disable:
.Lfunc_begin7:
	.loc	4 188 0 is_stmt 1       @ ../GD32E230_Firmware_Library/GD32E230_standard_peripheral/Source/gd32e230_dma.c:188:0
	.fnstart
	.cfi_startproc
@ %bb.0:
	.save	{r4, lr}
	push	{r4, lr}
	.cfi_def_cfa_offset 8
	.cfi_offset lr, -4
	.cfi_offset r4, -8
	.pad	#4
	sub	sp, #4
	.cfi_def_cfa_offset 12
	mov	r1, r0
	mov	r2, sp
	strb	r0, [r2]
.Ltmp30:
	.loc	4 189 5 prologue_end    @ ../GD32E230_Firmware_Library/GD32E230_standard_peripheral/Source/gd32e230_dma.c:189:5
	ldrb	r0, [r2]
	movs	r2, #20
	muls	r2, r0, r2
	ldr	r0, __arm_cp.7_0
	.loc	4 189 25 is_stmt 0      @ ../GD32E230_Firmware_Library/GD32E230_standard_peripheral/Source/gd32e230_dma.c:189:25
	ldr	r3, [r2, r0]
	movw	r4, #16384
	bics	r3, r4
	str	r3, [r2, r0]
	.loc	4 190 1 is_stmt 1       @ ../GD32E230_Firmware_Library/GD32E230_standard_peripheral/Source/gd32e230_dma.c:190:1
	add	sp, #4
	pop	{r4, pc}
.Ltmp31:
	.p2align	2
@ %bb.1:
	.loc	4 0 1 is_stmt 0         @ ../GD32E230_Firmware_Library/GD32E230_standard_peripheral/Source/gd32e230_dma.c:0:1
__arm_cp.7_0:
	.long	1073872904              @ 0x40020008
.Lcpi_end13:
	.size	__arm_cp.7_0, .Lcpi_end13-__arm_cp.7_0
.Lfunc_end7:
	.size	dma_memory_to_memory_disable, .Lfunc_end7-dma_memory_to_memory_disable
	.cfi_endproc
	.cantunwind
	.fnend
                                        @ -- End function
	.section	.text.dma_channel_enable,"ax",%progbits
	.hidden	dma_channel_enable      @ -- Begin function dma_channel_enable
	.globl	dma_channel_enable
	.p2align	2
	.type	dma_channel_enable,%function
	.code	16                      @ @dma_channel_enable
	.thumb_func
dma_channel_enable:
.Lfunc_begin8:
	.loc	4 201 0 is_stmt 1       @ ../GD32E230_Firmware_Library/GD32E230_standard_peripheral/Source/gd32e230_dma.c:201:0
	.fnstart
	.cfi_startproc
@ %bb.0:
	.save	{r4, lr}
	push	{r4, lr}
	.cfi_def_cfa_offset 8
	.cfi_offset lr, -4
	.cfi_offset r4, -8
	.pad	#4
	sub	sp, #4
	.cfi_def_cfa_offset 12
	mov	r1, r0
	mov	r2, sp
	strb	r0, [r2]
.Ltmp32:
	.loc	4 202 5 prologue_end    @ ../GD32E230_Firmware_Library/GD32E230_standard_peripheral/Source/gd32e230_dma.c:202:5
	ldrb	r0, [r2]
	movs	r2, #20
	muls	r2, r0, r2
	ldr	r0, __arm_cp.8_0
	.loc	4 202 25 is_stmt 0      @ ../GD32E230_Firmware_Library/GD32E230_standard_peripheral/Source/gd32e230_dma.c:202:25
	ldr	r3, [r2, r0]
	movs	r4, #1
	orrs	r3, r4
	str	r3, [r2, r0]
	.loc	4 203 1 is_stmt 1       @ ../GD32E230_Firmware_Library/GD32E230_standard_peripheral/Source/gd32e230_dma.c:203:1
	add	sp, #4
	pop	{r4, pc}
.Ltmp33:
	.p2align	2
@ %bb.1:
	.loc	4 0 1 is_stmt 0         @ ../GD32E230_Firmware_Library/GD32E230_standard_peripheral/Source/gd32e230_dma.c:0:1
__arm_cp.8_0:
	.long	1073872904              @ 0x40020008
.Lcpi_end14:
	.size	__arm_cp.8_0, .Lcpi_end14-__arm_cp.8_0
.Lfunc_end8:
	.size	dma_channel_enable, .Lfunc_end8-dma_channel_enable
	.cfi_endproc
	.cantunwind
	.fnend
                                        @ -- End function
	.section	.text.dma_periph_address_config,"ax",%progbits
	.hidden	dma_periph_address_config @ -- Begin function dma_periph_address_config
	.globl	dma_periph_address_config
	.p2align	2
	.type	dma_periph_address_config,%function
	.code	16                      @ @dma_periph_address_config
	.thumb_func
dma_periph_address_config:
.Lfunc_begin9:
	.loc	4 228 0 is_stmt 1       @ ../GD32E230_Firmware_Library/GD32E230_standard_peripheral/Source/gd32e230_dma.c:228:0
	.fnstart
	.cfi_startproc
@ %bb.0:
	.pad	#8
	sub	sp, #8
	.cfi_def_cfa_offset 8
	mov	r2, r0
	add	r3, sp, #4
	strb	r0, [r3]
	str	r1, [sp]
.Ltmp34:
	.loc	4 229 29 prologue_end   @ ../GD32E230_Firmware_Library/GD32E230_standard_peripheral/Source/gd32e230_dma.c:229:29
	ldr	r0, [sp]
	.loc	4 229 5 is_stmt 0       @ ../GD32E230_Firmware_Library/GD32E230_standard_peripheral/Source/gd32e230_dma.c:229:5
	ldrb	r1, [r3]
	movs	r3, #20
	muls	r3, r1, r3
	ldr	r1, __arm_cp.9_0
	.loc	4 229 27                @ ../GD32E230_Firmware_Library/GD32E230_standard_peripheral/Source/gd32e230_dma.c:229:27
	str	r0, [r3, r1]
	.loc	4 230 1 is_stmt 1       @ ../GD32E230_Firmware_Library/GD32E230_standard_peripheral/Source/gd32e230_dma.c:230:1
	add	sp, #8
	bx	lr
.Ltmp35:
	.p2align	2
@ %bb.1:
	.loc	4 0 1 is_stmt 0         @ ../GD32E230_Firmware_Library/GD32E230_standard_peripheral/Source/gd32e230_dma.c:0:1
__arm_cp.9_0:
	.long	1073872912              @ 0x40020010
.Lcpi_end15:
	.size	__arm_cp.9_0, .Lcpi_end15-__arm_cp.9_0
.Lfunc_end9:
	.size	dma_periph_address_config, .Lfunc_end9-dma_periph_address_config
	.cfi_endproc
	.cantunwind
	.fnend
                                        @ -- End function
	.section	.text.dma_memory_address_config,"ax",%progbits
	.hidden	dma_memory_address_config @ -- Begin function dma_memory_address_config
	.globl	dma_memory_address_config
	.p2align	2
	.type	dma_memory_address_config,%function
	.code	16                      @ @dma_memory_address_config
	.thumb_func
dma_memory_address_config:
.Lfunc_begin10:
	.loc	4 242 0 is_stmt 1       @ ../GD32E230_Firmware_Library/GD32E230_standard_peripheral/Source/gd32e230_dma.c:242:0
	.fnstart
	.cfi_startproc
@ %bb.0:
	.pad	#8
	sub	sp, #8
	.cfi_def_cfa_offset 8
	mov	r2, r0
	add	r3, sp, #4
	strb	r0, [r3]
	str	r1, [sp]
.Ltmp36:
	.loc	4 243 29 prologue_end   @ ../GD32E230_Firmware_Library/GD32E230_standard_peripheral/Source/gd32e230_dma.c:243:29
	ldr	r0, [sp]
	.loc	4 243 5 is_stmt 0       @ ../GD32E230_Firmware_Library/GD32E230_standard_peripheral/Source/gd32e230_dma.c:243:5
	ldrb	r1, [r3]
	movs	r3, #20
	muls	r3, r1, r3
	ldr	r1, __arm_cp.10_0
	.loc	4 243 27                @ ../GD32E230_Firmware_Library/GD32E230_standard_peripheral/Source/gd32e230_dma.c:243:27
	str	r0, [r3, r1]
	.loc	4 244 1 is_stmt 1       @ ../GD32E230_Firmware_Library/GD32E230_standard_peripheral/Source/gd32e230_dma.c:244:1
	add	sp, #8
	bx	lr
.Ltmp37:
	.p2align	2
@ %bb.1:
	.loc	4 0 1 is_stmt 0         @ ../GD32E230_Firmware_Library/GD32E230_standard_peripheral/Source/gd32e230_dma.c:0:1
__arm_cp.10_0:
	.long	1073872916              @ 0x40020014
.Lcpi_end16:
	.size	__arm_cp.10_0, .Lcpi_end16-__arm_cp.10_0
.Lfunc_end10:
	.size	dma_memory_address_config, .Lfunc_end10-dma_memory_address_config
	.cfi_endproc
	.cantunwind
	.fnend
                                        @ -- End function
	.section	.text.dma_transfer_number_config,"ax",%progbits
	.hidden	dma_transfer_number_config @ -- Begin function dma_transfer_number_config
	.globl	dma_transfer_number_config
	.p2align	2
	.type	dma_transfer_number_config,%function
	.code	16                      @ @dma_transfer_number_config
	.thumb_func
dma_transfer_number_config:
.Lfunc_begin11:
	.loc	4 256 0 is_stmt 1       @ ../GD32E230_Firmware_Library/GD32E230_standard_peripheral/Source/gd32e230_dma.c:256:0
	.fnstart
	.cfi_startproc
@ %bb.0:
	.pad	#8
	sub	sp, #8
	.cfi_def_cfa_offset 8
	mov	r2, r0
	add	r3, sp, #4
	strb	r0, [r3]
	str	r1, [sp]
	mov	r0, sp
.Ltmp38:
	.loc	4 257 28 prologue_end   @ ../GD32E230_Firmware_Library/GD32E230_standard_peripheral/Source/gd32e230_dma.c:257:28
	ldrh	r0, [r0]
	.loc	4 257 5 is_stmt 0       @ ../GD32E230_Firmware_Library/GD32E230_standard_peripheral/Source/gd32e230_dma.c:257:5
	ldrb	r1, [r3]
	movs	r3, #20
	muls	r3, r1, r3
	ldr	r1, __arm_cp.11_0
	.loc	4 257 25                @ ../GD32E230_Firmware_Library/GD32E230_standard_peripheral/Source/gd32e230_dma.c:257:25
	str	r0, [r3, r1]
	.loc	4 258 1 is_stmt 1       @ ../GD32E230_Firmware_Library/GD32E230_standard_peripheral/Source/gd32e230_dma.c:258:1
	add	sp, #8
	bx	lr
.Ltmp39:
	.p2align	2
@ %bb.1:
	.loc	4 0 1 is_stmt 0         @ ../GD32E230_Firmware_Library/GD32E230_standard_peripheral/Source/gd32e230_dma.c:0:1
__arm_cp.11_0:
	.long	1073872908              @ 0x4002000c
.Lcpi_end17:
	.size	__arm_cp.11_0, .Lcpi_end17-__arm_cp.11_0
.Lfunc_end11:
	.size	dma_transfer_number_config, .Lfunc_end11-dma_transfer_number_config
	.cfi_endproc
	.cantunwind
	.fnend
                                        @ -- End function
	.section	.text.dma_transfer_number_get,"ax",%progbits
	.hidden	dma_transfer_number_get @ -- Begin function dma_transfer_number_get
	.globl	dma_transfer_number_get
	.p2align	2
	.type	dma_transfer_number_get,%function
	.code	16                      @ @dma_transfer_number_get
	.thumb_func
dma_transfer_number_get:
.Lfunc_begin12:
	.loc	4 269 0 is_stmt 1       @ ../GD32E230_Firmware_Library/GD32E230_standard_peripheral/Source/gd32e230_dma.c:269:0
	.fnstart
	.cfi_startproc
@ %bb.0:
	.pad	#4
	sub	sp, #4
	.cfi_def_cfa_offset 4
	mov	r1, r0
	mov	r2, sp
	strb	r0, [r2]
.Ltmp40:
	.loc	4 270 22 prologue_end   @ ../GD32E230_Firmware_Library/GD32E230_standard_peripheral/Source/gd32e230_dma.c:270:22
	ldrb	r0, [r2]
	movs	r2, #20
	muls	r2, r0, r2
	ldr	r0, __arm_cp.12_0
	ldr	r0, [r2, r0]
	.loc	4 270 5 is_stmt 0       @ ../GD32E230_Firmware_Library/GD32E230_standard_peripheral/Source/gd32e230_dma.c:270:5
	add	sp, #4
	bx	lr
.Ltmp41:
	.p2align	2
@ %bb.1:
	.loc	4 0 5                   @ ../GD32E230_Firmware_Library/GD32E230_standard_peripheral/Source/gd32e230_dma.c:0:5
__arm_cp.12_0:
	.long	1073872908              @ 0x4002000c
.Lcpi_end18:
	.size	__arm_cp.12_0, .Lcpi_end18-__arm_cp.12_0
.Lfunc_end12:
	.size	dma_transfer_number_get, .Lfunc_end12-dma_transfer_number_get
	.cfi_endproc
	.cantunwind
	.fnend
                                        @ -- End function
	.section	.text.dma_priority_config,"ax",%progbits
	.hidden	dma_priority_config     @ -- Begin function dma_priority_config
	.globl	dma_priority_config
	.p2align	2
	.type	dma_priority_config,%function
	.code	16                      @ @dma_priority_config
	.thumb_func
dma_priority_config:
.Lfunc_begin13:
	.loc	4 288 0 is_stmt 1       @ ../GD32E230_Firmware_Library/GD32E230_standard_peripheral/Source/gd32e230_dma.c:288:0
	.fnstart
	.cfi_startproc
@ %bb.0:
	.save	{r4, r5, r7, lr}
	push	{r4, r5, r7, lr}
	.cfi_def_cfa_offset 16
	.cfi_offset lr, -4
	.cfi_offset r7, -8
	.cfi_offset r5, -12
	.cfi_offset r4, -16
	.pad	#12
	sub	sp, #12
	.cfi_def_cfa_offset 28
	mov	r2, r0
	add	r3, sp, #8
	strb	r0, [r3]
	str	r1, [sp, #4]
.Ltmp42:
	.loc	4 292 11 prologue_end   @ ../GD32E230_Firmware_Library/GD32E230_standard_peripheral/Source/gd32e230_dma.c:292:11
	ldrb	r0, [r3]
	movs	r1, #20
	mov	r4, r1
	muls	r4, r0, r4
	ldr	r0, __arm_cp.13_0
	ldr	r4, [r4, r0]
	.loc	4 292 9 is_stmt 0       @ ../GD32E230_Firmware_Library/GD32E230_standard_peripheral/Source/gd32e230_dma.c:292:9
	str	r4, [sp]
	.loc	4 294 9 is_stmt 1       @ ../GD32E230_Firmware_Library/GD32E230_standard_peripheral/Source/gd32e230_dma.c:294:9
	ldr	r4, [sp]
	movw	r5, #12288
	bics	r4, r5
	str	r4, [sp]
	.loc	4 295 12                @ ../GD32E230_Firmware_Library/GD32E230_standard_peripheral/Source/gd32e230_dma.c:295:12
	ldr	r4, [sp, #4]
	.loc	4 295 9 is_stmt 0       @ ../GD32E230_Firmware_Library/GD32E230_standard_peripheral/Source/gd32e230_dma.c:295:9
	ldr	r5, [sp]
	orrs	r5, r4
	str	r5, [sp]
	.loc	4 296 27 is_stmt 1      @ ../GD32E230_Firmware_Library/GD32E230_standard_peripheral/Source/gd32e230_dma.c:296:27
	ldr	r4, [sp]
	.loc	4 296 5 is_stmt 0       @ ../GD32E230_Firmware_Library/GD32E230_standard_peripheral/Source/gd32e230_dma.c:296:5
	ldrb	r3, [r3]
	muls	r1, r3, r1
	.loc	4 296 25                @ ../GD32E230_Firmware_Library/GD32E230_standard_peripheral/Source/gd32e230_dma.c:296:25
	str	r4, [r1, r0]
	.loc	4 297 1 is_stmt 1       @ ../GD32E230_Firmware_Library/GD32E230_standard_peripheral/Source/gd32e230_dma.c:297:1
	add	sp, #12
	pop	{r4, r5, r7, pc}
.Ltmp43:
	.p2align	2
@ %bb.1:
	.loc	4 0 1 is_stmt 0         @ ../GD32E230_Firmware_Library/GD32E230_standard_peripheral/Source/gd32e230_dma.c:0:1
__arm_cp.13_0:
	.long	1073872904              @ 0x40020008
.Lcpi_end19:
	.size	__arm_cp.13_0, .Lcpi_end19-__arm_cp.13_0
.Lfunc_end13:
	.size	dma_priority_config, .Lfunc_end13-dma_priority_config
	.cfi_endproc
	.cantunwind
	.fnend
                                        @ -- End function
	.section	.text.dma_memory_width_config,"ax",%progbits
	.hidden	dma_memory_width_config @ -- Begin function dma_memory_width_config
	.globl	dma_memory_width_config
	.p2align	2
	.type	dma_memory_width_config,%function
	.code	16                      @ @dma_memory_width_config
	.thumb_func
dma_memory_width_config:
.Lfunc_begin14:
	.loc	4 313 0 is_stmt 1       @ ../GD32E230_Firmware_Library/GD32E230_standard_peripheral/Source/gd32e230_dma.c:313:0
	.fnstart
	.cfi_startproc
@ %bb.0:
	.save	{r4, r5, r7, lr}
	push	{r4, r5, r7, lr}
	.cfi_def_cfa_offset 16
	.cfi_offset lr, -4
	.cfi_offset r7, -8
	.cfi_offset r5, -12
	.cfi_offset r4, -16
	.pad	#12
	sub	sp, #12
	.cfi_def_cfa_offset 28
	mov	r2, r0
	add	r3, sp, #8
	strb	r0, [r3]
	str	r1, [sp, #4]
.Ltmp44:
	.loc	4 317 11 prologue_end   @ ../GD32E230_Firmware_Library/GD32E230_standard_peripheral/Source/gd32e230_dma.c:317:11
	ldrb	r0, [r3]
	movs	r1, #20
	mov	r4, r1
	muls	r4, r0, r4
	ldr	r0, __arm_cp.14_0
	ldr	r4, [r4, r0]
	.loc	4 317 9 is_stmt 0       @ ../GD32E230_Firmware_Library/GD32E230_standard_peripheral/Source/gd32e230_dma.c:317:9
	str	r4, [sp]
	.loc	4 319 9 is_stmt 1       @ ../GD32E230_Firmware_Library/GD32E230_standard_peripheral/Source/gd32e230_dma.c:319:9
	ldr	r4, [sp]
	movw	r5, #3072
	bics	r4, r5
	str	r4, [sp]
	.loc	4 320 12                @ ../GD32E230_Firmware_Library/GD32E230_standard_peripheral/Source/gd32e230_dma.c:320:12
	ldr	r4, [sp, #4]
	.loc	4 320 9 is_stmt 0       @ ../GD32E230_Firmware_Library/GD32E230_standard_peripheral/Source/gd32e230_dma.c:320:9
	ldr	r5, [sp]
	orrs	r5, r4
	str	r5, [sp]
	.loc	4 321 27 is_stmt 1      @ ../GD32E230_Firmware_Library/GD32E230_standard_peripheral/Source/gd32e230_dma.c:321:27
	ldr	r4, [sp]
	.loc	4 321 5 is_stmt 0       @ ../GD32E230_Firmware_Library/GD32E230_standard_peripheral/Source/gd32e230_dma.c:321:5
	ldrb	r3, [r3]
	muls	r1, r3, r1
	.loc	4 321 25                @ ../GD32E230_Firmware_Library/GD32E230_standard_peripheral/Source/gd32e230_dma.c:321:25
	str	r4, [r1, r0]
	.loc	4 322 1 is_stmt 1       @ ../GD32E230_Firmware_Library/GD32E230_standard_peripheral/Source/gd32e230_dma.c:322:1
	add	sp, #12
	pop	{r4, r5, r7, pc}
.Ltmp45:
	.p2align	2
@ %bb.1:
	.loc	4 0 1 is_stmt 0         @ ../GD32E230_Firmware_Library/GD32E230_standard_peripheral/Source/gd32e230_dma.c:0:1
__arm_cp.14_0:
	.long	1073872904              @ 0x40020008
.Lcpi_end20:
	.size	__arm_cp.14_0, .Lcpi_end20-__arm_cp.14_0
.Lfunc_end14:
	.size	dma_memory_width_config, .Lfunc_end14-dma_memory_width_config
	.cfi_endproc
	.cantunwind
	.fnend
                                        @ -- End function
	.section	.text.dma_periph_width_config,"ax",%progbits
	.hidden	dma_periph_width_config @ -- Begin function dma_periph_width_config
	.globl	dma_periph_width_config
	.p2align	2
	.type	dma_periph_width_config,%function
	.code	16                      @ @dma_periph_width_config
	.thumb_func
dma_periph_width_config:
.Lfunc_begin15:
	.loc	4 338 0 is_stmt 1       @ ../GD32E230_Firmware_Library/GD32E230_standard_peripheral/Source/gd32e230_dma.c:338:0
	.fnstart
	.cfi_startproc
@ %bb.0:
	.save	{r4, r5, r7, lr}
	push	{r4, r5, r7, lr}
	.cfi_def_cfa_offset 16
	.cfi_offset lr, -4
	.cfi_offset r7, -8
	.cfi_offset r5, -12
	.cfi_offset r4, -16
	.pad	#12
	sub	sp, #12
	.cfi_def_cfa_offset 28
	mov	r2, r0
	add	r3, sp, #8
	strb	r0, [r3]
	str	r1, [sp, #4]
.Ltmp46:
	.loc	4 342 11 prologue_end   @ ../GD32E230_Firmware_Library/GD32E230_standard_peripheral/Source/gd32e230_dma.c:342:11
	ldrb	r0, [r3]
	movs	r1, #20
	mov	r4, r1
	muls	r4, r0, r4
	ldr	r0, __arm_cp.15_0
	ldr	r4, [r4, r0]
	.loc	4 342 9 is_stmt 0       @ ../GD32E230_Firmware_Library/GD32E230_standard_peripheral/Source/gd32e230_dma.c:342:9
	str	r4, [sp]
	.loc	4 344 9 is_stmt 1       @ ../GD32E230_Firmware_Library/GD32E230_standard_peripheral/Source/gd32e230_dma.c:344:9
	ldr	r4, [sp]
	movw	r5, #768
	bics	r4, r5
	str	r4, [sp]
	.loc	4 345 12                @ ../GD32E230_Firmware_Library/GD32E230_standard_peripheral/Source/gd32e230_dma.c:345:12
	ldr	r4, [sp, #4]
	.loc	4 345 9 is_stmt 0       @ ../GD32E230_Firmware_Library/GD32E230_standard_peripheral/Source/gd32e230_dma.c:345:9
	ldr	r5, [sp]
	orrs	r5, r4
	str	r5, [sp]
	.loc	4 346 27 is_stmt 1      @ ../GD32E230_Firmware_Library/GD32E230_standard_peripheral/Source/gd32e230_dma.c:346:27
	ldr	r4, [sp]
	.loc	4 346 5 is_stmt 0       @ ../GD32E230_Firmware_Library/GD32E230_standard_peripheral/Source/gd32e230_dma.c:346:5
	ldrb	r3, [r3]
	muls	r1, r3, r1
	.loc	4 346 25                @ ../GD32E230_Firmware_Library/GD32E230_standard_peripheral/Source/gd32e230_dma.c:346:25
	str	r4, [r1, r0]
	.loc	4 347 1 is_stmt 1       @ ../GD32E230_Firmware_Library/GD32E230_standard_peripheral/Source/gd32e230_dma.c:347:1
	add	sp, #12
	pop	{r4, r5, r7, pc}
.Ltmp47:
	.p2align	2
@ %bb.1:
	.loc	4 0 1 is_stmt 0         @ ../GD32E230_Firmware_Library/GD32E230_standard_peripheral/Source/gd32e230_dma.c:0:1
__arm_cp.15_0:
	.long	1073872904              @ 0x40020008
.Lcpi_end21:
	.size	__arm_cp.15_0, .Lcpi_end21-__arm_cp.15_0
.Lfunc_end15:
	.size	dma_periph_width_config, .Lfunc_end15-dma_periph_width_config
	.cfi_endproc
	.cantunwind
	.fnend
                                        @ -- End function
	.section	.text.dma_memory_increase_enable,"ax",%progbits
	.hidden	dma_memory_increase_enable @ -- Begin function dma_memory_increase_enable
	.globl	dma_memory_increase_enable
	.p2align	2
	.type	dma_memory_increase_enable,%function
	.code	16                      @ @dma_memory_increase_enable
	.thumb_func
dma_memory_increase_enable:
.Lfunc_begin16:
	.loc	4 358 0 is_stmt 1       @ ../GD32E230_Firmware_Library/GD32E230_standard_peripheral/Source/gd32e230_dma.c:358:0
	.fnstart
	.cfi_startproc
@ %bb.0:
	.save	{r4, lr}
	push	{r4, lr}
	.cfi_def_cfa_offset 8
	.cfi_offset lr, -4
	.cfi_offset r4, -8
	.pad	#4
	sub	sp, #4
	.cfi_def_cfa_offset 12
	mov	r1, r0
	mov	r2, sp
	strb	r0, [r2]
.Ltmp48:
	.loc	4 359 5 prologue_end    @ ../GD32E230_Firmware_Library/GD32E230_standard_peripheral/Source/gd32e230_dma.c:359:5
	ldrb	r0, [r2]
	movs	r2, #20
	muls	r2, r0, r2
	ldr	r0, __arm_cp.16_0
	.loc	4 359 25 is_stmt 0      @ ../GD32E230_Firmware_Library/GD32E230_standard_peripheral/Source/gd32e230_dma.c:359:25
	ldr	r3, [r2, r0]
	movs	r4, #128
	orrs	r3, r4
	str	r3, [r2, r0]
	.loc	4 360 1 is_stmt 1       @ ../GD32E230_Firmware_Library/GD32E230_standard_peripheral/Source/gd32e230_dma.c:360:1
	add	sp, #4
	pop	{r4, pc}
.Ltmp49:
	.p2align	2
@ %bb.1:
	.loc	4 0 1 is_stmt 0         @ ../GD32E230_Firmware_Library/GD32E230_standard_peripheral/Source/gd32e230_dma.c:0:1
__arm_cp.16_0:
	.long	1073872904              @ 0x40020008
.Lcpi_end22:
	.size	__arm_cp.16_0, .Lcpi_end22-__arm_cp.16_0
.Lfunc_end16:
	.size	dma_memory_increase_enable, .Lfunc_end16-dma_memory_increase_enable
	.cfi_endproc
	.cantunwind
	.fnend
                                        @ -- End function
	.section	.text.dma_memory_increase_disable,"ax",%progbits
	.hidden	dma_memory_increase_disable @ -- Begin function dma_memory_increase_disable
	.globl	dma_memory_increase_disable
	.p2align	2
	.type	dma_memory_increase_disable,%function
	.code	16                      @ @dma_memory_increase_disable
	.thumb_func
dma_memory_increase_disable:
.Lfunc_begin17:
	.loc	4 371 0 is_stmt 1       @ ../GD32E230_Firmware_Library/GD32E230_standard_peripheral/Source/gd32e230_dma.c:371:0
	.fnstart
	.cfi_startproc
@ %bb.0:
	.save	{r4, lr}
	push	{r4, lr}
	.cfi_def_cfa_offset 8
	.cfi_offset lr, -4
	.cfi_offset r4, -8
	.pad	#4
	sub	sp, #4
	.cfi_def_cfa_offset 12
	mov	r1, r0
	mov	r2, sp
	strb	r0, [r2]
.Ltmp50:
	.loc	4 372 5 prologue_end    @ ../GD32E230_Firmware_Library/GD32E230_standard_peripheral/Source/gd32e230_dma.c:372:5
	ldrb	r0, [r2]
	movs	r2, #20
	muls	r2, r0, r2
	ldr	r0, __arm_cp.17_0
	.loc	4 372 25 is_stmt 0      @ ../GD32E230_Firmware_Library/GD32E230_standard_peripheral/Source/gd32e230_dma.c:372:25
	ldr	r3, [r2, r0]
	movs	r4, #128
	bics	r3, r4
	str	r3, [r2, r0]
	.loc	4 373 1 is_stmt 1       @ ../GD32E230_Firmware_Library/GD32E230_standard_peripheral/Source/gd32e230_dma.c:373:1
	add	sp, #4
	pop	{r4, pc}
.Ltmp51:
	.p2align	2
@ %bb.1:
	.loc	4 0 1 is_stmt 0         @ ../GD32E230_Firmware_Library/GD32E230_standard_peripheral/Source/gd32e230_dma.c:0:1
__arm_cp.17_0:
	.long	1073872904              @ 0x40020008
.Lcpi_end23:
	.size	__arm_cp.17_0, .Lcpi_end23-__arm_cp.17_0
.Lfunc_end17:
	.size	dma_memory_increase_disable, .Lfunc_end17-dma_memory_increase_disable
	.cfi_endproc
	.cantunwind
	.fnend
                                        @ -- End function
	.section	.text.dma_periph_increase_enable,"ax",%progbits
	.hidden	dma_periph_increase_enable @ -- Begin function dma_periph_increase_enable
	.globl	dma_periph_increase_enable
	.p2align	2
	.type	dma_periph_increase_enable,%function
	.code	16                      @ @dma_periph_increase_enable
	.thumb_func
dma_periph_increase_enable:
.Lfunc_begin18:
	.loc	4 384 0 is_stmt 1       @ ../GD32E230_Firmware_Library/GD32E230_standard_peripheral/Source/gd32e230_dma.c:384:0
	.fnstart
	.cfi_startproc
@ %bb.0:
	.save	{r4, lr}
	push	{r4, lr}
	.cfi_def_cfa_offset 8
	.cfi_offset lr, -4
	.cfi_offset r4, -8
	.pad	#4
	sub	sp, #4
	.cfi_def_cfa_offset 12
	mov	r1, r0
	mov	r2, sp
	strb	r0, [r2]
.Ltmp52:
	.loc	4 385 5 prologue_end    @ ../GD32E230_Firmware_Library/GD32E230_standard_peripheral/Source/gd32e230_dma.c:385:5
	ldrb	r0, [r2]
	movs	r2, #20
	muls	r2, r0, r2
	ldr	r0, __arm_cp.18_0
	.loc	4 385 25 is_stmt 0      @ ../GD32E230_Firmware_Library/GD32E230_standard_peripheral/Source/gd32e230_dma.c:385:25
	ldr	r3, [r2, r0]
	movs	r4, #64
	orrs	r3, r4
	str	r3, [r2, r0]
	.loc	4 386 1 is_stmt 1       @ ../GD32E230_Firmware_Library/GD32E230_standard_peripheral/Source/gd32e230_dma.c:386:1
	add	sp, #4
	pop	{r4, pc}
.Ltmp53:
	.p2align	2
@ %bb.1:
	.loc	4 0 1 is_stmt 0         @ ../GD32E230_Firmware_Library/GD32E230_standard_peripheral/Source/gd32e230_dma.c:0:1
__arm_cp.18_0:
	.long	1073872904              @ 0x40020008
.Lcpi_end24:
	.size	__arm_cp.18_0, .Lcpi_end24-__arm_cp.18_0
.Lfunc_end18:
	.size	dma_periph_increase_enable, .Lfunc_end18-dma_periph_increase_enable
	.cfi_endproc
	.cantunwind
	.fnend
                                        @ -- End function
	.section	.text.dma_periph_increase_disable,"ax",%progbits
	.hidden	dma_periph_increase_disable @ -- Begin function dma_periph_increase_disable
	.globl	dma_periph_increase_disable
	.p2align	2
	.type	dma_periph_increase_disable,%function
	.code	16                      @ @dma_periph_increase_disable
	.thumb_func
dma_periph_increase_disable:
.Lfunc_begin19:
	.loc	4 397 0 is_stmt 1       @ ../GD32E230_Firmware_Library/GD32E230_standard_peripheral/Source/gd32e230_dma.c:397:0
	.fnstart
	.cfi_startproc
@ %bb.0:
	.save	{r4, lr}
	push	{r4, lr}
	.cfi_def_cfa_offset 8
	.cfi_offset lr, -4
	.cfi_offset r4, -8
	.pad	#4
	sub	sp, #4
	.cfi_def_cfa_offset 12
	mov	r1, r0
	mov	r2, sp
	strb	r0, [r2]
.Ltmp54:
	.loc	4 398 5 prologue_end    @ ../GD32E230_Firmware_Library/GD32E230_standard_peripheral/Source/gd32e230_dma.c:398:5
	ldrb	r0, [r2]
	movs	r2, #20
	muls	r2, r0, r2
	ldr	r0, __arm_cp.19_0
	.loc	4 398 25 is_stmt 0      @ ../GD32E230_Firmware_Library/GD32E230_standard_peripheral/Source/gd32e230_dma.c:398:25
	ldr	r3, [r2, r0]
	movs	r4, #64
	bics	r3, r4
	str	r3, [r2, r0]
	.loc	4 399 1 is_stmt 1       @ ../GD32E230_Firmware_Library/GD32E230_standard_peripheral/Source/gd32e230_dma.c:399:1
	add	sp, #4
	pop	{r4, pc}
.Ltmp55:
	.p2align	2
@ %bb.1:
	.loc	4 0 1 is_stmt 0         @ ../GD32E230_Firmware_Library/GD32E230_standard_peripheral/Source/gd32e230_dma.c:0:1
__arm_cp.19_0:
	.long	1073872904              @ 0x40020008
.Lcpi_end25:
	.size	__arm_cp.19_0, .Lcpi_end25-__arm_cp.19_0
.Lfunc_end19:
	.size	dma_periph_increase_disable, .Lfunc_end19-dma_periph_increase_disable
	.cfi_endproc
	.cantunwind
	.fnend
                                        @ -- End function
	.section	.text.dma_transfer_direction_config,"ax",%progbits
	.hidden	dma_transfer_direction_config @ -- Begin function dma_transfer_direction_config
	.globl	dma_transfer_direction_config
	.p2align	2
	.type	dma_transfer_direction_config,%function
	.code	16                      @ @dma_transfer_direction_config
	.thumb_func
dma_transfer_direction_config:
.Lfunc_begin20:
	.loc	4 414 0 is_stmt 1       @ ../GD32E230_Firmware_Library/GD32E230_standard_peripheral/Source/gd32e230_dma.c:414:0
	.fnstart
	.cfi_startproc
@ %bb.0:
	.pad	#8
	sub	sp, #8
	.cfi_def_cfa_offset 8
	mov	r2, r0
	add	r3, sp, #4
	strb	r0, [r3]
	str	r1, [sp]
.Ltmp56:
	.loc	4 415 36 prologue_end   @ ../GD32E230_Firmware_Library/GD32E230_standard_peripheral/Source/gd32e230_dma.c:415:36
	ldr	r0, [sp]
.Ltmp57:
	.loc	4 415 8 is_stmt 0       @ ../GD32E230_Firmware_Library/GD32E230_standard_peripheral/Source/gd32e230_dma.c:415:8
	cmp	r0, #0
	bne	.LBB20_2
	b	.LBB20_1
.LBB20_1:
	.loc	4 0 8                   @ ../GD32E230_Firmware_Library/GD32E230_standard_peripheral/Source/gd32e230_dma.c:0:8
	add	r0, sp, #4
.Ltmp58:
	.loc	4 416 9 is_stmt 1       @ ../GD32E230_Firmware_Library/GD32E230_standard_peripheral/Source/gd32e230_dma.c:416:9
	ldrb	r0, [r0]
	movs	r1, #20
	muls	r1, r0, r1
	ldr	r0, __arm_cp.20_0
	.loc	4 416 29 is_stmt 0      @ ../GD32E230_Firmware_Library/GD32E230_standard_peripheral/Source/gd32e230_dma.c:416:29
	ldr	r2, [r1, r0]
	movs	r3, #16
	bics	r2, r3
	str	r2, [r1, r0]
	.loc	4 417 5 is_stmt 1       @ ../GD32E230_Firmware_Library/GD32E230_standard_peripheral/Source/gd32e230_dma.c:417:5
	b	.LBB20_3
.Ltmp59:
.LBB20_2:
	.loc	4 0 5 is_stmt 0         @ ../GD32E230_Firmware_Library/GD32E230_standard_peripheral/Source/gd32e230_dma.c:0:5
	add	r0, sp, #4
.Ltmp60:
	.loc	4 418 9 is_stmt 1       @ ../GD32E230_Firmware_Library/GD32E230_standard_peripheral/Source/gd32e230_dma.c:418:9
	ldrb	r0, [r0]
	movs	r1, #20
	muls	r1, r0, r1
	ldr	r0, __arm_cp.20_0
	.loc	4 418 29 is_stmt 0      @ ../GD32E230_Firmware_Library/GD32E230_standard_peripheral/Source/gd32e230_dma.c:418:29
	ldr	r2, [r1, r0]
	movs	r3, #16
	orrs	r2, r3
	str	r2, [r1, r0]
	b	.LBB20_3
.Ltmp61:
.LBB20_3:
	.loc	4 420 1 is_stmt 1       @ ../GD32E230_Firmware_Library/GD32E230_standard_peripheral/Source/gd32e230_dma.c:420:1
	add	sp, #8
	bx	lr
.Ltmp62:
	.p2align	2
@ %bb.4:
	.loc	4 0 1 is_stmt 0         @ ../GD32E230_Firmware_Library/GD32E230_standard_peripheral/Source/gd32e230_dma.c:0:1
__arm_cp.20_0:
	.long	1073872904              @ 0x40020008
.Lcpi_end26:
	.size	__arm_cp.20_0, .Lcpi_end26-__arm_cp.20_0
.Lfunc_end20:
	.size	dma_transfer_direction_config, .Lfunc_end20-dma_transfer_direction_config
	.cfi_endproc
	.cantunwind
	.fnend
                                        @ -- End function
	.section	.text.dma_flag_get,"ax",%progbits
	.hidden	dma_flag_get            @ -- Begin function dma_flag_get
	.globl	dma_flag_get
	.p2align	2
	.type	dma_flag_get,%function
	.code	16                      @ @dma_flag_get
	.thumb_func
dma_flag_get:
.Lfunc_begin21:
	.loc	4 437 0 is_stmt 1       @ ../GD32E230_Firmware_Library/GD32E230_standard_peripheral/Source/gd32e230_dma.c:437:0
	.fnstart
	.cfi_startproc
@ %bb.0:
	.pad	#12
	sub	sp, #12
	.cfi_def_cfa_offset 12
	mov	r2, r0
	add	r3, sp, #8
	strb	r0, [r3]
	str	r1, [sp, #4]
	ldr	r0, __arm_cp.21_0
.Ltmp63:
	.loc	4 440 18 prologue_end   @ ../GD32E230_Firmware_Library/GD32E230_standard_peripheral/Source/gd32e230_dma.c:440:18
	ldr	r0, [r0]
	.loc	4 440 29 is_stmt 0      @ ../GD32E230_Firmware_Library/GD32E230_standard_peripheral/Source/gd32e230_dma.c:440:29
	ldr	r1, [sp, #4]
	ldrb	r3, [r3]
	lsls	r3, r3, #2
	lsls	r1, r3
.Ltmp64:
	.loc	4 440 8                 @ ../GD32E230_Firmware_Library/GD32E230_standard_peripheral/Source/gd32e230_dma.c:440:8
	tst	r0, r1
	beq	.LBB21_2
	b	.LBB21_1
.LBB21_1:
	.loc	4 0 8                   @ ../GD32E230_Firmware_Library/GD32E230_standard_peripheral/Source/gd32e230_dma.c:0:8
	mov	r0, sp
	movs	r1, #1
.Ltmp65:
	.loc	4 441 15 is_stmt 1      @ ../GD32E230_Firmware_Library/GD32E230_standard_peripheral/Source/gd32e230_dma.c:441:15
	strb	r1, [r0]
	.loc	4 442 5                 @ ../GD32E230_Firmware_Library/GD32E230_standard_peripheral/Source/gd32e230_dma.c:442:5
	b	.LBB21_3
.Ltmp66:
.LBB21_2:
	.loc	4 0 5 is_stmt 0         @ ../GD32E230_Firmware_Library/GD32E230_standard_peripheral/Source/gd32e230_dma.c:0:5
	mov	r0, sp
	movs	r1, #0
.Ltmp67:
	.loc	4 443 15 is_stmt 1      @ ../GD32E230_Firmware_Library/GD32E230_standard_peripheral/Source/gd32e230_dma.c:443:15
	strb	r1, [r0]
	b	.LBB21_3
.Ltmp68:
.LBB21_3:
	.loc	4 0 15 is_stmt 0        @ ../GD32E230_Firmware_Library/GD32E230_standard_peripheral/Source/gd32e230_dma.c:0:15
	mov	r0, sp
	.loc	4 446 12 is_stmt 1      @ ../GD32E230_Firmware_Library/GD32E230_standard_peripheral/Source/gd32e230_dma.c:446:12
	ldrb	r0, [r0]
	.loc	4 446 5 is_stmt 0       @ ../GD32E230_Firmware_Library/GD32E230_standard_peripheral/Source/gd32e230_dma.c:446:5
	add	sp, #12
	bx	lr
.Ltmp69:
	.p2align	2
@ %bb.4:
	.loc	4 0 5                   @ ../GD32E230_Firmware_Library/GD32E230_standard_peripheral/Source/gd32e230_dma.c:0:5
__arm_cp.21_0:
	.long	1073872896              @ 0x40020000
.Lcpi_end27:
	.size	__arm_cp.21_0, .Lcpi_end27-__arm_cp.21_0
.Lfunc_end21:
	.size	dma_flag_get, .Lfunc_end21-dma_flag_get
	.cfi_endproc
	.cantunwind
	.fnend
                                        @ -- End function
	.section	.text.dma_flag_clear,"ax",%progbits
	.hidden	dma_flag_clear          @ -- Begin function dma_flag_clear
	.globl	dma_flag_clear
	.p2align	2
	.type	dma_flag_clear,%function
	.code	16                      @ @dma_flag_clear
	.thumb_func
dma_flag_clear:
.Lfunc_begin22:
	.loc	4 464 0 is_stmt 1       @ ../GD32E230_Firmware_Library/GD32E230_standard_peripheral/Source/gd32e230_dma.c:464:0
	.fnstart
	.cfi_startproc
@ %bb.0:
	.pad	#8
	sub	sp, #8
	.cfi_def_cfa_offset 8
	mov	r2, r0
	add	r3, sp, #4
	strb	r0, [r3]
	str	r1, [sp]
.Ltmp70:
	.loc	4 465 17 prologue_end   @ ../GD32E230_Firmware_Library/GD32E230_standard_peripheral/Source/gd32e230_dma.c:465:17
	ldr	r0, [sp]
	ldrb	r1, [r3]
	lsls	r1, r1, #2
	lsls	r0, r1
	ldr	r1, __arm_cp.22_0
	.loc	4 465 14 is_stmt 0      @ ../GD32E230_Firmware_Library/GD32E230_standard_peripheral/Source/gd32e230_dma.c:465:14
	ldr	r3, [r1]
	orrs	r3, r0
	str	r3, [r1]
	.loc	4 466 1 is_stmt 1       @ ../GD32E230_Firmware_Library/GD32E230_standard_peripheral/Source/gd32e230_dma.c:466:1
	add	sp, #8
	bx	lr
.Ltmp71:
	.p2align	2
@ %bb.1:
	.loc	4 0 1 is_stmt 0         @ ../GD32E230_Firmware_Library/GD32E230_standard_peripheral/Source/gd32e230_dma.c:0:1
__arm_cp.22_0:
	.long	1073872900              @ 0x40020004
.Lcpi_end28:
	.size	__arm_cp.22_0, .Lcpi_end28-__arm_cp.22_0
.Lfunc_end22:
	.size	dma_flag_clear, .Lfunc_end22-dma_flag_clear
	.cfi_endproc
	.cantunwind
	.fnend
                                        @ -- End function
	.section	.text.dma_interrupt_flag_get,"ax",%progbits
	.hidden	dma_interrupt_flag_get  @ -- Begin function dma_interrupt_flag_get
	.globl	dma_interrupt_flag_get
	.p2align	2
	.type	dma_interrupt_flag_get,%function
	.code	16                      @ @dma_interrupt_flag_get
	.thumb_func
dma_interrupt_flag_get:
.Lfunc_begin23:
	.loc	4 482 0 is_stmt 1       @ ../GD32E230_Firmware_Library/GD32E230_standard_peripheral/Source/gd32e230_dma.c:482:0
	.fnstart
	.cfi_startproc
@ %bb.0:
	.pad	#24
	sub	sp, #24
	.cfi_def_cfa_offset 24
	mov	r2, r0
	add	r3, sp, #16
	strb	r0, [r3]
	str	r1, [sp, #12]
	movs	r0, #0
.Ltmp72:
	.loc	4 483 14 prologue_end   @ ../GD32E230_Firmware_Library/GD32E230_standard_peripheral/Source/gd32e230_dma.c:483:14
	str	r0, [sp, #8]
	.loc	4 483 37 is_stmt 0      @ ../GD32E230_Firmware_Library/GD32E230_standard_peripheral/Source/gd32e230_dma.c:483:37
	str	r0, [sp, #4]
	.loc	4 485 12 is_stmt 1      @ ../GD32E230_Firmware_Library/GD32E230_standard_peripheral/Source/gd32e230_dma.c:485:12
	ldr	r0, [sp, #12]
	.loc	4 485 5 is_stmt 0       @ ../GD32E230_Firmware_Library/GD32E230_standard_peripheral/Source/gd32e230_dma.c:485:5
	cmp	r0, #2
	str	r0, [sp]                @ 4-byte Spill
	beq	.LBB23_3
	b	.LBB23_1
.LBB23_1:
	ldr	r0, [sp]                @ 4-byte Reload
	cmp	r0, #4
	beq	.LBB23_4
	b	.LBB23_2
.LBB23_2:
	ldr	r0, [sp]                @ 4-byte Reload
	cmp	r0, #8
	beq	.LBB23_5
	b	.LBB23_6
.LBB23_3:
	.loc	4 0 5                   @ ../GD32E230_Firmware_Library/GD32E230_standard_peripheral/Source/gd32e230_dma.c:0:5
	ldr	r0, __arm_cp.23_0
.Ltmp73:
	.loc	4 487 30 is_stmt 1      @ ../GD32E230_Firmware_Library/GD32E230_standard_peripheral/Source/gd32e230_dma.c:487:30
	ldr	r0, [r0]
	.loc	4 487 41 is_stmt 0      @ ../GD32E230_Firmware_Library/GD32E230_standard_peripheral/Source/gd32e230_dma.c:487:41
	ldr	r1, [sp, #12]
	add	r2, sp, #16
	ldrb	r3, [r2]
	lsls	r3, r3, #2
	lsls	r1, r3
	.loc	4 487 39                @ ../GD32E230_Firmware_Library/GD32E230_standard_peripheral/Source/gd32e230_dma.c:487:39
	ands	r0, r1
	.loc	4 487 28                @ ../GD32E230_Firmware_Library/GD32E230_standard_peripheral/Source/gd32e230_dma.c:487:28
	str	r0, [sp, #4]
	.loc	4 488 32 is_stmt 1      @ ../GD32E230_Firmware_Library/GD32E230_standard_peripheral/Source/gd32e230_dma.c:488:32
	ldrb	r0, [r2]
	movs	r1, #20
	muls	r1, r0, r1
	ldr	r0, __arm_cp.23_1
	ldr	r0, [r1, r0]
	movs	r1, #2
	.loc	4 488 52 is_stmt 0      @ ../GD32E230_Firmware_Library/GD32E230_standard_peripheral/Source/gd32e230_dma.c:488:52
	ands	r0, r1
	.loc	4 488 30                @ ../GD32E230_Firmware_Library/GD32E230_standard_peripheral/Source/gd32e230_dma.c:488:30
	str	r0, [sp, #8]
	.loc	4 489 13 is_stmt 1      @ ../GD32E230_Firmware_Library/GD32E230_standard_peripheral/Source/gd32e230_dma.c:489:13
	b	.LBB23_7
.LBB23_4:
	.loc	4 0 13 is_stmt 0        @ ../GD32E230_Firmware_Library/GD32E230_standard_peripheral/Source/gd32e230_dma.c:0:13
	ldr	r0, __arm_cp.23_0
	.loc	4 491 30 is_stmt 1      @ ../GD32E230_Firmware_Library/GD32E230_standard_peripheral/Source/gd32e230_dma.c:491:30
	ldr	r0, [r0]
	.loc	4 491 41 is_stmt 0      @ ../GD32E230_Firmware_Library/GD32E230_standard_peripheral/Source/gd32e230_dma.c:491:41
	ldr	r1, [sp, #12]
	add	r2, sp, #16
	ldrb	r3, [r2]
	lsls	r3, r3, #2
	lsls	r1, r3
	.loc	4 491 39                @ ../GD32E230_Firmware_Library/GD32E230_standard_peripheral/Source/gd32e230_dma.c:491:39
	ands	r0, r1
	.loc	4 491 28                @ ../GD32E230_Firmware_Library/GD32E230_standard_peripheral/Source/gd32e230_dma.c:491:28
	str	r0, [sp, #4]
	.loc	4 492 32 is_stmt 1      @ ../GD32E230_Firmware_Library/GD32E230_standard_peripheral/Source/gd32e230_dma.c:492:32
	ldrb	r0, [r2]
	movs	r1, #20
	muls	r1, r0, r1
	ldr	r0, __arm_cp.23_1
	ldr	r0, [r1, r0]
	movs	r1, #4
	.loc	4 492 52 is_stmt 0      @ ../GD32E230_Firmware_Library/GD32E230_standard_peripheral/Source/gd32e230_dma.c:492:52
	ands	r0, r1
	.loc	4 492 30                @ ../GD32E230_Firmware_Library/GD32E230_standard_peripheral/Source/gd32e230_dma.c:492:30
	str	r0, [sp, #8]
	.loc	4 493 13 is_stmt 1      @ ../GD32E230_Firmware_Library/GD32E230_standard_peripheral/Source/gd32e230_dma.c:493:13
	b	.LBB23_7
.LBB23_5:
	.loc	4 0 13 is_stmt 0        @ ../GD32E230_Firmware_Library/GD32E230_standard_peripheral/Source/gd32e230_dma.c:0:13
	ldr	r0, __arm_cp.23_0
	.loc	4 495 30 is_stmt 1      @ ../GD32E230_Firmware_Library/GD32E230_standard_peripheral/Source/gd32e230_dma.c:495:30
	ldr	r0, [r0]
	.loc	4 495 41 is_stmt 0      @ ../GD32E230_Firmware_Library/GD32E230_standard_peripheral/Source/gd32e230_dma.c:495:41
	ldr	r1, [sp, #12]
	add	r2, sp, #16
	ldrb	r3, [r2]
	lsls	r3, r3, #2
	lsls	r1, r3
	.loc	4 495 39                @ ../GD32E230_Firmware_Library/GD32E230_standard_peripheral/Source/gd32e230_dma.c:495:39
	ands	r0, r1
	.loc	4 495 28                @ ../GD32E230_Firmware_Library/GD32E230_standard_peripheral/Source/gd32e230_dma.c:495:28
	str	r0, [sp, #4]
	.loc	4 496 32 is_stmt 1      @ ../GD32E230_Firmware_Library/GD32E230_standard_peripheral/Source/gd32e230_dma.c:496:32
	ldrb	r0, [r2]
	movs	r1, #20
	muls	r1, r0, r1
	ldr	r0, __arm_cp.23_1
	ldr	r0, [r1, r0]
	movs	r1, #8
	.loc	4 496 52 is_stmt 0      @ ../GD32E230_Firmware_Library/GD32E230_standard_peripheral/Source/gd32e230_dma.c:496:52
	ands	r0, r1
	.loc	4 496 30                @ ../GD32E230_Firmware_Library/GD32E230_standard_peripheral/Source/gd32e230_dma.c:496:30
	str	r0, [sp, #8]
	.loc	4 497 13 is_stmt 1      @ ../GD32E230_Firmware_Library/GD32E230_standard_peripheral/Source/gd32e230_dma.c:497:13
	b	.LBB23_7
.LBB23_6:
	.loc	4 499 13                @ ../GD32E230_Firmware_Library/GD32E230_standard_peripheral/Source/gd32e230_dma.c:499:13
	b	.LBB23_7
.Ltmp74:
.LBB23_7:
	.loc	4 502 8                 @ ../GD32E230_Firmware_Library/GD32E230_standard_peripheral/Source/gd32e230_dma.c:502:8
	ldr	r0, [sp, #4]
	.loc	4 502 23 is_stmt 0      @ ../GD32E230_Firmware_Library/GD32E230_standard_peripheral/Source/gd32e230_dma.c:502:23
	cmp	r0, #0
	beq	.LBB23_10
	b	.LBB23_8
.LBB23_8:
	.loc	4 502 26                @ ../GD32E230_Firmware_Library/GD32E230_standard_peripheral/Source/gd32e230_dma.c:502:26
	ldr	r0, [sp, #8]
.Ltmp75:
	.loc	4 502 8                 @ ../GD32E230_Firmware_Library/GD32E230_standard_peripheral/Source/gd32e230_dma.c:502:8
	cmp	r0, #0
	beq	.LBB23_10
	b	.LBB23_9
.LBB23_9:
	.loc	4 0 8                   @ ../GD32E230_Firmware_Library/GD32E230_standard_peripheral/Source/gd32e230_dma.c:0:8
	add	r0, sp, #20
	movs	r1, #1
.Ltmp76:
	.loc	4 503 9 is_stmt 1       @ ../GD32E230_Firmware_Library/GD32E230_standard_peripheral/Source/gd32e230_dma.c:503:9
	strb	r1, [r0]
	b	.LBB23_11
.Ltmp77:
.LBB23_10:
	.loc	4 0 9 is_stmt 0         @ ../GD32E230_Firmware_Library/GD32E230_standard_peripheral/Source/gd32e230_dma.c:0:9
	add	r0, sp, #20
	movs	r1, #0
.Ltmp78:
	.loc	4 505 9 is_stmt 1       @ ../GD32E230_Firmware_Library/GD32E230_standard_peripheral/Source/gd32e230_dma.c:505:9
	strb	r1, [r0]
	b	.LBB23_11
.Ltmp79:
.LBB23_11:
	.loc	4 0 9 is_stmt 0         @ ../GD32E230_Firmware_Library/GD32E230_standard_peripheral/Source/gd32e230_dma.c:0:9
	add	r0, sp, #20
	.loc	4 507 1 is_stmt 1       @ ../GD32E230_Firmware_Library/GD32E230_standard_peripheral/Source/gd32e230_dma.c:507:1
	ldrb	r0, [r0]
	add	sp, #24
	bx	lr
.Ltmp80:
	.p2align	2
@ %bb.12:
	.loc	4 0 1 is_stmt 0         @ ../GD32E230_Firmware_Library/GD32E230_standard_peripheral/Source/gd32e230_dma.c:0:1
__arm_cp.23_0:
	.long	1073872896              @ 0x40020000
.Lcpi_end29:
	.size	__arm_cp.23_0, .Lcpi_end29-__arm_cp.23_0
__arm_cp.23_1:
	.long	1073872904              @ 0x40020008
.Lcpi_end30:
	.size	__arm_cp.23_1, .Lcpi_end30-__arm_cp.23_1
.Lfunc_end23:
	.size	dma_interrupt_flag_get, .Lfunc_end23-dma_interrupt_flag_get
	.cfi_endproc
	.cantunwind
	.fnend
                                        @ -- End function
	.section	.text.dma_interrupt_flag_clear,"ax",%progbits
	.hidden	dma_interrupt_flag_clear @ -- Begin function dma_interrupt_flag_clear
	.globl	dma_interrupt_flag_clear
	.p2align	2
	.type	dma_interrupt_flag_clear,%function
	.code	16                      @ @dma_interrupt_flag_clear
	.thumb_func
dma_interrupt_flag_clear:
.Lfunc_begin24:
	.loc	4 524 0 is_stmt 1       @ ../GD32E230_Firmware_Library/GD32E230_standard_peripheral/Source/gd32e230_dma.c:524:0
	.fnstart
	.cfi_startproc
@ %bb.0:
	.pad	#8
	sub	sp, #8
	.cfi_def_cfa_offset 8
	mov	r2, r0
	add	r3, sp, #4
	strb	r0, [r3]
	str	r1, [sp]
.Ltmp81:
	.loc	4 525 17 prologue_end   @ ../GD32E230_Firmware_Library/GD32E230_standard_peripheral/Source/gd32e230_dma.c:525:17
	ldr	r0, [sp]
	ldrb	r1, [r3]
	lsls	r1, r1, #2
	lsls	r0, r1
	ldr	r1, __arm_cp.24_0
	.loc	4 525 14 is_stmt 0      @ ../GD32E230_Firmware_Library/GD32E230_standard_peripheral/Source/gd32e230_dma.c:525:14
	ldr	r3, [r1]
	orrs	r3, r0
	str	r3, [r1]
	.loc	4 526 1 is_stmt 1       @ ../GD32E230_Firmware_Library/GD32E230_standard_peripheral/Source/gd32e230_dma.c:526:1
	add	sp, #8
	bx	lr
.Ltmp82:
	.p2align	2
@ %bb.1:
	.loc	4 0 1 is_stmt 0         @ ../GD32E230_Firmware_Library/GD32E230_standard_peripheral/Source/gd32e230_dma.c:0:1
__arm_cp.24_0:
	.long	1073872900              @ 0x40020004
.Lcpi_end31:
	.size	__arm_cp.24_0, .Lcpi_end31-__arm_cp.24_0
.Lfunc_end24:
	.size	dma_interrupt_flag_clear, .Lfunc_end24-dma_interrupt_flag_clear
	.cfi_endproc
	.cantunwind
	.fnend
                                        @ -- End function
	.section	.text.dma_interrupt_enable,"ax",%progbits
	.hidden	dma_interrupt_enable    @ -- Begin function dma_interrupt_enable
	.globl	dma_interrupt_enable
	.p2align	2
	.type	dma_interrupt_enable,%function
	.code	16                      @ @dma_interrupt_enable
	.thumb_func
dma_interrupt_enable:
.Lfunc_begin25:
	.loc	4 542 0 is_stmt 1       @ ../GD32E230_Firmware_Library/GD32E230_standard_peripheral/Source/gd32e230_dma.c:542:0
	.fnstart
	.cfi_startproc
@ %bb.0:
	.save	{r4, lr}
	push	{r4, lr}
	.cfi_def_cfa_offset 8
	.cfi_offset lr, -4
	.cfi_offset r4, -8
	.pad	#8
	sub	sp, #8
	.cfi_def_cfa_offset 16
	mov	r2, r0
	add	r3, sp, #4
	strb	r0, [r3]
	str	r1, [sp]
.Ltmp83:
	.loc	4 543 28 prologue_end   @ ../GD32E230_Firmware_Library/GD32E230_standard_peripheral/Source/gd32e230_dma.c:543:28
	ldr	r0, [sp]
	.loc	4 543 5 is_stmt 0       @ ../GD32E230_Firmware_Library/GD32E230_standard_peripheral/Source/gd32e230_dma.c:543:5
	ldrb	r1, [r3]
	movs	r3, #20
	muls	r3, r1, r3
	ldr	r1, __arm_cp.25_0
	.loc	4 543 25                @ ../GD32E230_Firmware_Library/GD32E230_standard_peripheral/Source/gd32e230_dma.c:543:25
	ldr	r4, [r3, r1]
	orrs	r4, r0
	str	r4, [r3, r1]
	.loc	4 544 1 is_stmt 1       @ ../GD32E230_Firmware_Library/GD32E230_standard_peripheral/Source/gd32e230_dma.c:544:1
	add	sp, #8
	pop	{r4, pc}
.Ltmp84:
	.p2align	2
@ %bb.1:
	.loc	4 0 1 is_stmt 0         @ ../GD32E230_Firmware_Library/GD32E230_standard_peripheral/Source/gd32e230_dma.c:0:1
__arm_cp.25_0:
	.long	1073872904              @ 0x40020008
.Lcpi_end32:
	.size	__arm_cp.25_0, .Lcpi_end32-__arm_cp.25_0
.Lfunc_end25:
	.size	dma_interrupt_enable, .Lfunc_end25-dma_interrupt_enable
	.cfi_endproc
	.cantunwind
	.fnend
                                        @ -- End function
	.section	.text.dma_interrupt_disable,"ax",%progbits
	.hidden	dma_interrupt_disable   @ -- Begin function dma_interrupt_disable
	.globl	dma_interrupt_disable
	.p2align	2
	.type	dma_interrupt_disable,%function
	.code	16                      @ @dma_interrupt_disable
	.thumb_func
dma_interrupt_disable:
.Lfunc_begin26:
	.loc	4 560 0 is_stmt 1       @ ../GD32E230_Firmware_Library/GD32E230_standard_peripheral/Source/gd32e230_dma.c:560:0
	.fnstart
	.cfi_startproc
@ %bb.0:
	.save	{r4, lr}
	push	{r4, lr}
	.cfi_def_cfa_offset 8
	.cfi_offset lr, -4
	.cfi_offset r4, -8
	.pad	#8
	sub	sp, #8
	.cfi_def_cfa_offset 16
	mov	r2, r0
	add	r3, sp, #4
	strb	r0, [r3]
	str	r1, [sp]
.Ltmp85:
	.loc	4 561 29 prologue_end   @ ../GD32E230_Firmware_Library/GD32E230_standard_peripheral/Source/gd32e230_dma.c:561:29
	ldr	r0, [sp]
	.loc	4 561 5 is_stmt 0       @ ../GD32E230_Firmware_Library/GD32E230_standard_peripheral/Source/gd32e230_dma.c:561:5
	ldrb	r1, [r3]
	movs	r3, #20
	muls	r3, r1, r3
	ldr	r1, __arm_cp.26_0
	.loc	4 561 25                @ ../GD32E230_Firmware_Library/GD32E230_standard_peripheral/Source/gd32e230_dma.c:561:25
	ldr	r4, [r3, r1]
	bics	r4, r0
	str	r4, [r3, r1]
	.loc	4 562 1 is_stmt 1       @ ../GD32E230_Firmware_Library/GD32E230_standard_peripheral/Source/gd32e230_dma.c:562:1
	add	sp, #8
	pop	{r4, pc}
.Ltmp86:
	.p2align	2
@ %bb.1:
	.loc	4 0 1 is_stmt 0         @ ../GD32E230_Firmware_Library/GD32E230_standard_peripheral/Source/gd32e230_dma.c:0:1
__arm_cp.26_0:
	.long	1073872904              @ 0x40020008
.Lcpi_end33:
	.size	__arm_cp.26_0, .Lcpi_end33-__arm_cp.26_0
.Lfunc_end26:
	.size	dma_interrupt_disable, .Lfunc_end26-dma_interrupt_disable
	.cfi_endproc
	.cantunwind
	.fnend
                                        @ -- End function
	.section	".note.GNU-stack","",%progbits
	.eabi_attribute	30, 6	@ Tag_ABI_optimization_goals
	.ARM_attribute	16, 1	@ Tag_AV_eba