	.text
	.syntax unified
	.eabi_attribute	67, "2.09"	@ Tag_conformance
	.cpu	cortex-m23
	.eabi_attribute	6, 16	@ Tag_CPU_arch
	.eabi_attribute	7, 77	@ Tag_CPU_arch_profile
	.eabi_attribute	8, 0	@ Tag_ARM_ISA_use
	.eabi_attribute	9, 3	@ Tag_THUMB_ISA_use
	.eabi_attribute	34, 0	@ Tag_CPU_unaligned_access
	.eabi_attribute	17, 1	@ Tag_ABI_PCS_GOT_use
	.eabi_attribute	20, 2	@ Tag_ABI_FP_denormal
	.eabi_attribute	21, 0	@ Tag_ABI_FP_exceptions
	.eabi_attribute	23, 1	@ Tag_ABI_FP_number_model
	.eabi_attribute	24, 1	@ Tag_ABI_align_needed
	.eabi_attribute	25, 1	@ Tag_ABI_align_preserved
	.eabi_attribute	38, 1	@ Tag_ABI_FP_16bit_format
	.eabi_attribute	18, 2	@ Tag_ABI_PCS_wchar_t
	.eabi_attribute	26, 1	@ Tag_ABI_enum_size
	.eabi_attribute	14, 0	@ Tag_ABI_PCS_R9_use
	.file	"gd32e230_timer.c"
	.file	1 "E:\\Soway\\Soway_product-soft\\105 - T119-GD\\E230 -  ds18b20-F8\\MDK-ARM" "../GD32E230_Firmware_Library/GD32E230_standard_peripheral/Include\\gd32e230_rcu.h"
	.file	2 "E:\\Soway\\Soway_product-soft\\105 - T119-GD\\E230 -  ds18b20-F8\\MDK-ARM" "../GD32E230_Firmware_Library/CMSIS/GD/GD32E230/Include\\gd32e230.h"
	.file	3 "D:\\Keil_v5\\ARM\\ARMCLANG\\Bin\\..\\include" "stdint.h"
	.section	.text.timer_deinit,"ax",%progbits
	.hidden	timer_deinit            @ -- Begin function timer_deinit
	.globl	timer_deinit
	.p2align	2
	.type	timer_deinit,%function
	.code	16                      @ @timer_deinit
	.thumb_func
timer_deinit:
.Lfunc_begin0:
	.file	4 "E:\\Soway\\Soway_product-soft\\105 - T119-GD\\E230 -  ds18b20-F8\\MDK-ARM" "../GD32E230_Firmware_Library/GD32E230_standard_peripheral/Source/gd32e230_timer.c"
	.loc	4 51 0                  @ ../GD32E230_Firmware_Library/GD32E230_standard_peripheral/Source/gd32e230_timer.c:51:0
	.fnstart
	.cfi_sections .debug_frame
	.cfi_startproc
@ %bb.0:
	.save	{r7, lr}
	push	{r7, lr}
	.cfi_def_cfa_offset 8
	.cfi_offset lr, -4
	.cfi_offset r7, -8
	.pad	#40
	sub	sp, #40
	.cfi_def_cfa_offset 48
	str	r0, [sp, #36]
.Ltmp0:
	.loc	4 52 12 prologue_end    @ ../GD32E230_Firmware_Library/GD32E230_standard_peripheral/Source/gd32e230_timer.c:52:12
	ldr	r0, [sp, #36]
	ldr	r1, __arm_cp.0_0
	.loc	4 52 5 is_stmt 0        @ ../GD32E230_Firmware_Library/GD32E230_standard_peripheral/Source/gd32e230_timer.c:52:5
	cmp	r0, r1
	str	r0, [sp, #32]           @ 4-byte Spill
	beq	.LBB0_8
	b	.LBB0_1
.LBB0_1:
	.loc	4 0 5                   @ ../GD32E230_Firmware_Library/GD32E230_standard_peripheral/Source/gd32e230_timer.c:0:5
	ldr	r0, __arm_cp.0_1
	.loc	4 52 5                  @ ../GD32E230_Firmware_Library/GD32E230_standard_peripheral/Source/gd32e230_timer.c:52:5
	ldr	r1, [sp, #32]           @ 4-byte Reload
	cmp	r1, r0
	beq	.LBB0_9
	b	.LBB0_2
.LBB0_2:
	.loc	4 0 5                   @ ../GD32E230_Firmware_Library/GD32E230_standard_peripheral/Source/gd32e230_timer.c:0:5
	ldr	r0, __arm_cp.0_2
	.loc	4 52 5                  @ ../GD32E230_Firmware_Library/GD32E230_standard_peripheral/Source/gd32e230_timer.c:52:5
	ldr	r1, [sp, #32]           @ 4-byte Reload
	cmp	r1, r0
	beq	.LBB0_10
	b	.LBB0_3
.LBB0_3:
	.loc	4 0 5                   @ ../GD32E230_Firmware_Library/GD32E230_standard_peripheral/Source/gd32e230_timer.c:0:5
	ldr	r0, __arm_cp.0_3
	.loc	4 52 5                  @ ../GD32E230_Firmware_Library/GD32E230_standard_peripheral/Source/gd32e230_timer.c:52:5
	ldr	r1, [sp, #32]           @ 4-byte Reload
	cmp	r1, r0
	beq	.LBB0_7
	b	.LBB0_4
.LBB0_4:
	.loc	4 0 5                   @ ../GD32E230_Firmware_Library/GD32E230_standard_peripheral/Source/gd32e230_timer.c:0:5
	ldr	r0, __arm_cp.0_4
	.loc	4 52 5                  @ ../GD32E230_Firmware_Library/GD32E230_standard_peripheral/Source/gd32e230_timer.c:52:5
	ldr	r1, [sp, #32]           @ 4-byte Reload
	cmp	r1, r0
	beq	.LBB0_11
	b	.LBB0_5
.LBB0_5:
	.loc	4 0 5                   @ ../GD32E230_Firmware_Library/GD32E230_standard_peripheral/Source/gd32e230_timer.c:0:5
	ldr	r0, __arm_cp.0_5
	.loc	4 52 5                  @ ../GD32E230_Firmware_Library/GD32E230_standard_peripheral/Source/gd32e230_timer.c:52:5
	ldr	r1, [sp, #32]           @ 4-byte Reload
	cmp	r1, r0
	beq	.LBB0_12
	b	.LBB0_6
.LBB0_6:
	.loc	4 0 5                   @ ../GD32E230_Firmware_Library/GD32E230_standard_peripheral/Source/gd32e230_timer.c:0:5
	ldr	r0, __arm_cp.0_6
	.loc	4 52 5                  @ ../GD32E230_Firmware_Library/GD32E230_standard_peripheral/Source/gd32e230_timer.c:52:5
	ldr	r1, [sp, #32]           @ 4-byte Reload
	cmp	r1, r0
	beq	.LBB0_13
	b	.LBB0_14
.LBB0_7:
	.loc	4 0 5                   @ ../GD32E230_Firmware_Library/GD32E230_standard_peripheral/Source/gd32e230_timer.c:0:5
	ldr	r0, __arm_cp.0_11
.Ltmp1:
	.loc	4 55 9 is_stmt 1        @ ../GD32E230_Firmware_Library/GD32E230_standard_peripheral/Source/gd32e230_timer.c:55:9
	str	r0, [sp, #28]           @ 4-byte Spill
	bl	rcu_periph_reset_enable
	.loc	4 56 9                  @ ../GD32E230_Firmware_Library/GD32E230_standard_peripheral/Source/gd32e230_timer.c:56:9
	ldr	r0, [sp, #28]           @ 4-byte Reload
	bl	rcu_periph_reset_disable
	.loc	4 57 9                  @ ../GD32E230_Firmware_Library/GD32E230_standard_peripheral/Source/gd32e230_timer.c:57:9
	b	.LBB0_15
.LBB0_8:
	.loc	4 0 9 is_stmt 0         @ ../GD32E230_Firmware_Library/GD32E230_standard_peripheral/Source/gd32e230_timer.c:0:9
	ldr	r0, __arm_cp.0_10
	.loc	4 60 9 is_stmt 1        @ ../GD32E230_Firmware_Library/GD32E230_standard_peripheral/Source/gd32e230_timer.c:60:9
	str	r0, [sp, #24]           @ 4-byte Spill
	bl	rcu_periph_reset_enable
	.loc	4 61 9                  @ ../GD32E230_Firmware_Library/GD32E230_standard_peripheral/Source/gd32e230_timer.c:61:9
	ldr	r0, [sp, #24]           @ 4-byte Reload
	bl	rcu_periph_reset_disable
	.loc	4 62 9                  @ ../GD32E230_Firmware_Library/GD32E230_standard_peripheral/Source/gd32e230_timer.c:62:9
	b	.LBB0_15
.LBB0_9:
	.loc	4 0 9 is_stmt 0         @ ../GD32E230_Firmware_Library/GD32E230_standard_peripheral/Source/gd32e230_timer.c:0:9
	ldr	r0, __arm_cp.0_9
	.loc	4 65 9 is_stmt 1        @ ../GD32E230_Firmware_Library/GD32E230_standard_peripheral/Source/gd32e230_timer.c:65:9
	str	r0, [sp, #20]           @ 4-byte Spill
	bl	rcu_periph_reset_enable
	.loc	4 66 9                  @ ../GD32E230_Firmware_Library/GD32E230_standard_peripheral/Source/gd32e230_timer.c:66:9
	ldr	r0, [sp, #20]           @ 4-byte Reload
	bl	rcu_periph_reset_disable
	.loc	4 67 9                  @ ../GD32E230_Firmware_Library/GD32E230_standard_peripheral/Source/gd32e230_timer.c:67:9
	b	.LBB0_15
.LBB0_10:
	.loc	4 0 9 is_stmt 0         @ ../GD32E230_Firmware_Library/GD32E230_standard_peripheral/Source/gd32e230_timer.c:0:9
	movw	r0, #1032
	.loc	4 70 9 is_stmt 1        @ ../GD32E230_Firmware_Library/GD32E230_standard_peripheral/Source/gd32e230_timer.c:70:9
	str	r0, [sp, #16]           @ 4-byte Spill
	bl	rcu_periph_reset_enable
	.loc	4 71 9                  @ ../GD32E230_Firmware_Library/GD32E230_standard_peripheral/Source/gd32e230_timer.c:71:9
	ldr	r0, [sp, #16]           @ 4-byte Reload
	bl	rcu_periph_reset_disable
	.loc	4 72 9                  @ ../GD32E230_Firmware_Library/GD32E230_standard_peripheral/Source/gd32e230_timer.c:72:9
	b	.LBB0_15
.LBB0_11:
	.loc	4 0 9 is_stmt 0         @ ../GD32E230_Firmware_Library/GD32E230_standard_peripheral/Source/gd32e230_timer.c:0:9
	movw	r0, #784
	.loc	4 75 9 is_stmt 1        @ ../GD32E230_Firmware_Library/GD32E230_standard_peripheral/Source/gd32e230_timer.c:75:9
	str	r0, [sp, #12]           @ 4-byte Spill
	bl	rcu_periph_reset_enable
	.loc	4 76 9                  @ ../GD32E230_Firmware_Library/GD32E230_standard_peripheral/Source/gd32e230_timer.c:76:9
	ldr	r0, [sp, #12]           @ 4-byte Reload
	bl	rcu_periph_reset_disable
	.loc	4 77 9                  @ ../GD32E230_Firmware_Library/GD32E230_standard_peripheral/Source/gd32e230_timer.c:77:9
	b	.LBB0_15
.LBB0_12:
	.loc	4 0 9 is_stmt 0         @ ../GD32E230_Firmware_Library/GD32E230_standard_peripheral/Source/gd32e230_timer.c:0:9
	ldr	r0, __arm_cp.0_8
	.loc	4 80 9 is_stmt 1        @ ../GD32E230_Firmware_Library/GD32E230_standard_peripheral/Source/gd32e230_timer.c:80:9
	str	r0, [sp, #8]            @ 4-byte Spill
	bl	rcu_periph_reset_enable
	.loc	4 81 9                  @ ../GD32E230_Firmware_Library/GD32E230_standard_peripheral/Source/gd32e230_timer.c:81:9
	ldr	r0, [sp, #8]            @ 4-byte Reload
	bl	rcu_periph_reset_disable
	.loc	4 82 9                  @ ../GD32E230_Firmware_Library/GD32E230_standard_peripheral/Source/gd32e230_timer.c:82:9
	b	.LBB0_15
.LBB0_13:
	.loc	4 0 9 is_stmt 0         @ ../GD32E230_Firmware_Library/GD32E230_standard_peripheral/Source/gd32e230_timer.c:0:9
	ldr	r0, __arm_cp.0_7
	.loc	4 85 9 is_stmt 1        @ ../GD32E230_Firmware_Library/GD32E230_standard_peripheral/Source/gd32e230_timer.c:85:9
	str	r0, [sp, #4]            @ 4-byte Spill
	bl	rcu_periph_reset_enable
	.loc	4 86 9                  @ ../GD32E230_Firmware_Library/GD32E230_standard_peripheral/Source/gd32e230_timer.c:86:9
	ldr	r0, [sp, #4]            @ 4-byte Reload
	bl	rcu_periph_reset_disable
	.loc	4 87 9                  @ ../GD32E230_Firmware_Library/GD32E230_standard_peripheral/Source/gd32e230_timer.c:87:9
	b	.LBB0_15
.LBB0_14:
	.loc	4 89 9                  @ ../GD32E230_Firmware_Library/GD32E230_standard_peripheral/Source/gd32e230_timer.c:89:9
	b	.LBB0_15
.Ltmp2:
.LBB0_15:
	.loc	4 91 1                  @ ../GD32E230_Firmware_Library/GD32E230_standard_peripheral/Source/gd32e230_timer.c:91:1
	add	sp, #40
	pop	{r7, pc}
.Ltmp3:
	.p2align	2
@ %bb.16:
	.loc	4 0 1 is_stmt 0         @ ../GD32E230_Firmware_Library/GD32E230_standard_peripheral/Source/gd32e230_timer.c:0:1
__arm_cp.0_0:
	.long	1073742848              @ 0x40000400
.Lcpi_end0:
	.size	__arm_cp.0_0, .Lcpi_end0-__arm_cp.0_0
__arm_cp.0_1:
	.long	1073745920              @ 0x40001000
.Lcpi_end1:
	.size	__arm_cp.0_1, .Lcpi_end1-__arm_cp.0_1
__arm_cp.0_2:
	.long	1073750016              @ 0x40002000
.Lcpi_end2:
	.size	__arm_cp.0_2, .Lcpi_end2-__arm_cp.0_2
__arm_cp.0_3:
	.long	1073818624              @ 0x40012c00
.Lcpi_end3:
	.size	__arm_cp.0_3, .Lcpi_end3-__arm_cp.0_3
__arm_cp.0_4:
	.long	1073823744              @ 0x40014000
.Lcpi_end4:
	.size	__arm_cp.0_4, .Lcpi_end4-__arm_cp.0_4
__arm_cp.0_5:
	.long	1073824768              @ 0x40014400
.Lcpi_end5:
	.size	__arm_cp.0_5, .Lcpi_end5-__arm_cp.0_5
__arm_cp.0_6:
	.long	1073825792              @ 0x40014800
.Lcpi_end6:
	.size	__arm_cp.0_6, .Lcpi_end6-__arm_cp.0_6
__arm_cp.0_7:
	.long	786                     @ 0x312
.Lcpi_end7:
	.size	__arm_cp.0_7, .Lcpi_end7-__arm_cp.0_7
__arm_cp.0_8:
	.long	785                     @ 0x311
.Lcpi_end8:
	.size	__arm_cp.0_8, .Lcpi_end8-__arm_cp.0_8
__arm_cp.0_9:
	.long	1028                    @ 0x404
.Lcpi_end9:
	.size	__arm_cp.0_9, .Lcpi_end9-__arm_cp.0_9
__arm_cp.0_10:
	.long	1025                    @ 0x401
.Lcpi_end10:
	.size	__arm_cp.0_10, .Lcpi_end10-__arm_cp.0_10
__arm_cp.0_11:
	.long	779                     @ 0x30b
.Lcpi_end11:
	.size	__arm_cp.0_11, .Lcpi_end11-__arm_cp.0_11
.Lfunc_end0:
	.size	timer_deinit, .Lfunc_end0-timer_deinit
	.cfi_endproc
	.cantunwind
	.fnend
                                        @ -- End function
	.section	.text.timer_struct_para_init,"ax",%progbits
	.hidden	timer_struct_para_init  @ -- Begin function timer_struct_para_init
	.globl	timer_struct_para_init
	.p2align	2
	.type	timer_struct_para_init,%function
	.code	16                      @ @timer_struct_para_init
	.thumb_func
timer_struct_para_init:
.Lfunc_begin1:
	.loc	4 100 0 is_stmt 1       @ ../GD32E230_Firmware_Library/GD32E230_standard_peripheral/Source/gd32e230_timer.c:100:0
	.fnstart
	.cfi_startproc
@ %bb.0:
	.pad	#4
	sub	sp, #4
	.cfi_def_cfa_offset 4
	str	r0, [sp]
.Ltmp4:
	.loc	4 102 5 prologue_end    @ ../GD32E230_Firmware_Library/GD32E230_standard_peripheral/Source/gd32e230_timer.c:102:5
	ldr	r0, [sp]
	movs	r1, #0
	.loc	4 102 33 is_stmt 0      @ ../GD32E230_Firmware_Library/GD32E230_standard_peripheral/Source/gd32e230_timer.c:102:33
	strh	r1, [r0]
	.loc	4 103 5 is_stmt 1       @ ../GD32E230_Firmware_Library/GD32E230_standard_peripheral/Source/gd32e230_timer.c:103:5
	ldr	r0, [sp]
	.loc	4 103 33 is_stmt 0      @ ../GD32E230_Firmware_Library/GD32E230_standard_peripheral/Source/gd32e230_timer.c:103:33
	strh	r1, [r0, #2]
	.loc	4 104 5 is_stmt 1       @ ../GD32E230_Firmware_Library/GD32E230_standard_peripheral/Source/gd32e230_timer.c:104:5
	ldr	r0, [sp]
	.loc	4 104 33 is_stmt 0      @ ../GD32E230_Firmware_Library/GD32E230_standard_peripheral/Source/gd32e230_timer.c:104:33
	strh	r1, [r0, #4]
	.loc	4 105 5 is_stmt 1       @ ../GD32E230_Firmware_Library/GD32E230_standard_peripheral/Source/gd32e230_timer.c:105:5
	ldr	r0, [sp]
	ldr	r2, __arm_cp.1_0
	.loc	4 105 33 is_stmt 0      @ ../GD32E230_Firmware_Library/GD32E230_standard_peripheral/Source/gd32e230_timer.c:105:33
	str	r2, [r0, #8]
	.loc	4 106 5 is_stmt 1       @ ../GD32E230_Firmware_Library/GD32E230_standard_peripheral/Source/gd32e230_timer.c:106:5
	ldr	r0, [sp]
	.loc	4 106 33 is_stmt 0      @ ../GD32E230_Firmware_Library/GD32E230_standard_peripheral/Source/gd32e230_timer.c:106:33
	strh	r1, [r0, #6]
	.loc	4 107 5 is_stmt 1       @ ../GD32E230_Firmware_Library/GD32E230_standard_peripheral/Source/gd32e230_timer.c:107:5
	ldr	r0, [sp]
	.loc	4 107 33 is_stmt 0      @ ../GD32E230_Firmware_Library/GD32E230_standard_peripheral/Source/gd32e230_timer.c:107:33
	strb	r1, [r0, #12]
	.loc	4 108 1 is_stmt 1       @ ../GD32E230_Firmware_Library/GD32E230_standard_peripheral/Source/gd32e230_timer.c:108:1
	add	sp, #4
	bx	lr
.Ltmp5:
	.p2align	2
@ %bb.1:
	.loc	4 0 1 is_stmt 0         @ ../GD32E230_Firmware_Library/GD32E230_standard_peripheral/Source/gd32e230_timer.c:0:1
__arm_cp.1_0:
	.long	65535                   @ 0xffff
.Lcpi_end12:
	.size	__arm_cp.1_0, .Lcpi_end12-__arm_cp.1_0
.Lfunc_end1:
	.size	timer_struct_para_init, .Lfunc_end1-timer_struct_para_init
	.cfi_endproc
	.cantunwind
	.fnend
                                        @ -- End function
	.section	.text.timer_init,"ax",%progbits
	.hidden	timer_init              @ -- Begin function timer_init
	.globl	timer_init
	.p2align	2
	.type	timer_init,%function
	.code	16                      @ @timer_init
	.thumb_func
timer_init:
.Lfunc_begin2:
	.loc	4 124 0 is_stmt 1       @ ../GD32E230_Firmware_Library/GD32E230_standard_peripheral/Source/gd32e230_timer.c:124:0
	.fnstart
	.cfi_startproc
@ %bb.0:
	.pad	#8
	sub	sp, #8
	.cfi_def_cfa_offset 8
	str	r0, [sp, #4]
	str	r1, [sp]
.Ltmp6:
	.loc	4 126 41 prologue_end   @ ../GD32E230_Firmware_Library/GD32E230_standard_peripheral/Source/gd32e230_timer.c:126:41
	ldr	r0, [sp]
	.loc	4 126 51 is_stmt 0      @ ../GD32E230_Firmware_Library/GD32E230_standard_peripheral/Source/gd32e230_timer.c:126:51
	ldrh	r0, [r0]
	.loc	4 126 5                 @ ../GD32E230_Firmware_Library/GD32E230_standard_peripheral/Source/gd32e230_timer.c:126:5
	ldr	r1, [sp, #4]
	.loc	4 126 29                @ ../GD32E230_Firmware_Library/GD32E230_standard_peripheral/Source/gd32e230_timer.c:126:29
	str	r0, [r1, #40]
.Ltmp7:
	.loc	4 129 19 is_stmt 1      @ ../GD32E230_Firmware_Library/GD32E230_standard_peripheral/Source/gd32e230_timer.c:129:19
	ldr	r0, [sp, #4]
	ldr	r1, __arm_cp.2_0
	.loc	4 129 33 is_stmt 0      @ ../GD32E230_Firmware_Library/GD32E230_standard_peripheral/Source/gd32e230_timer.c:129:33
	cmp	r0, r1
	beq	.LBB2_2
	b	.LBB2_1
.LBB2_1:
	.loc	4 129 47                @ ../GD32E230_Firmware_Library/GD32E230_standard_peripheral/Source/gd32e230_timer.c:129:47
	ldr	r0, [sp, #4]
	ldr	r1, __arm_cp.2_1
.Ltmp8:
	.loc	4 129 8                 @ ../GD32E230_Firmware_Library/GD32E230_standard_peripheral/Source/gd32e230_timer.c:129:8
	cmp	r0, r1
	bne	.LBB2_3
	b	.LBB2_2
.LBB2_2:
.Ltmp9:
	.loc	4 130 9 is_stmt 1       @ ../GD32E230_Firmware_Library/GD32E230_standard_peripheral/Source/gd32e230_timer.c:130:9
	ldr	r0, [sp, #4]
	.loc	4 130 34 is_stmt 0      @ ../GD32E230_Firmware_Library/GD32E230_standard_peripheral/Source/gd32e230_timer.c:130:34
	ldr	r1, [r0]
	movs	r2, #112
	bics	r1, r2
	str	r1, [r0]
	.loc	4 131 47 is_stmt 1      @ ../GD32E230_Firmware_Library/GD32E230_standard_peripheral/Source/gd32e230_timer.c:131:47
	ldr	r0, [sp]
	.loc	4 131 57 is_stmt 0      @ ../GD32E230_Firmware_Library/GD32E230_standard_peripheral/Source/gd32e230_timer.c:131:57
	ldrh	r0, [r0, #2]
	.loc	4 131 9                 @ ../GD32E230_Firmware_Library/GD32E230_standard_peripheral/Source/gd32e230_timer.c:131:9
	ldr	r1, [sp, #4]
	.loc	4 131 34                @ ../GD32E230_Firmware_Library/GD32E230_standard_peripheral/Source/gd32e230_timer.c:131:34
	ldr	r2, [r1]
	orrs	r2, r0
	str	r2, [r1]
	.loc	4 132 47 is_stmt 1      @ ../GD32E230_Firmware_Library/GD32E230_standard_peripheral/Source/gd32e230_timer.c:132:47
	ldr	r0, [sp]
	.loc	4 132 57 is_stmt 0      @ ../GD32E230_Firmware_Library/GD32E230_standard_peripheral/Source/gd32e230_timer.c:132:57
	ldrh	r0, [r0, #4]
	.loc	4 132 9                 @ ../GD32E230_Firmware_Library/GD32E230_standard_peripheral/Source/gd32e230_timer.c:132:9
	ldr	r1, [sp, #4]
	.loc	4 132 34                @ ../GD32E230_Firmware_Library/GD32E230_standard_peripheral/Source/gd32e230_timer.c:132:34
	ldr	r2, [r1]
	orrs	r2, r0
	str	r2, [r1]
	.loc	4 133 5 is_stmt 1       @ ../GD32E230_Firmware_Library/GD32E230_standard_peripheral/Source/gd32e230_timer.c:133:5
	b	.LBB2_3
.Ltmp10:
.LBB2_3:
	.loc	4 136 41                @ ../GD32E230_Firmware_Library/GD32E230_standard_peripheral/Source/gd32e230_timer.c:136:41
	ldr	r0, [sp]
	.loc	4 136 51 is_stmt 0      @ ../GD32E230_Firmware_Library/GD32E230_standard_peripheral/Source/gd32e230_timer.c:136:51
	ldr	r0, [r0, #8]
	.loc	4 136 5                 @ ../GD32E230_Firmware_Library/GD32E230_standard_peripheral/Source/gd32e230_timer.c:136:5
	ldr	r1, [sp, #4]
	.loc	4 136 29                @ ../GD32E230_Firmware_Library/GD32E230_standard_peripheral/Source/gd32e230_timer.c:136:29
	str	r0, [r1, #44]
.Ltmp11:
	.loc	4 138 19 is_stmt 1      @ ../GD32E230_Firmware_Library/GD32E230_standard_peripheral/Source/gd32e230_timer.c:138:19
	ldr	r0, [sp, #4]
	ldr	r1, __arm_cp.2_0
	.loc	4 138 33 is_stmt 0      @ ../GD32E230_Firmware_Library/GD32E230_standard_peripheral/Source/gd32e230_timer.c:138:33
	cmp	r0, r1
	beq	.LBB2_9
	b	.LBB2_4
.LBB2_4:
	.loc	4 138 47                @ ../GD32E230_Firmware_Library/GD32E230_standard_peripheral/Source/gd32e230_timer.c:138:47
	ldr	r0, [sp, #4]
	ldr	r1, __arm_cp.2_1
	.loc	4 138 61                @ ../GD32E230_Firmware_Library/GD32E230_standard_peripheral/Source/gd32e230_timer.c:138:61
	cmp	r0, r1
	beq	.LBB2_9
	b	.LBB2_5
.LBB2_5:
	.loc	4 138 76                @ ../GD32E230_Firmware_Library/GD32E230_standard_peripheral/Source/gd32e230_timer.c:138:76
	ldr	r0, [sp, #4]
	ldr	r1, __arm_cp.2_2
	.loc	4 139 9 is_stmt 1       @ ../GD32E230_Firmware_Library/GD32E230_standard_peripheral/Source/gd32e230_timer.c:139:9
	cmp	r0, r1
	beq	.LBB2_9
	b	.LBB2_6
.LBB2_6:
	.loc	4 139 24 is_stmt 0      @ ../GD32E230_Firmware_Library/GD32E230_standard_peripheral/Source/gd32e230_timer.c:139:24
	ldr	r0, [sp, #4]
	ldr	r1, __arm_cp.2_3
	.loc	4 139 38                @ ../GD32E230_Firmware_Library/GD32E230_standard_peripheral/Source/gd32e230_timer.c:139:38
	cmp	r0, r1
	beq	.LBB2_9
	b	.LBB2_7
.LBB2_7:
	.loc	4 139 53                @ ../GD32E230_Firmware_Library/GD32E230_standard_peripheral/Source/gd32e230_timer.c:139:53
	ldr	r0, [sp, #4]
	ldr	r1, __arm_cp.2_4
	.loc	4 139 67                @ ../GD32E230_Firmware_Library/GD32E230_standard_peripheral/Source/gd32e230_timer.c:139:67
	cmp	r0, r1
	beq	.LBB2_9
	b	.LBB2_8
.LBB2_8:
	.loc	4 139 82                @ ../GD32E230_Firmware_Library/GD32E230_standard_peripheral/Source/gd32e230_timer.c:139:82
	ldr	r0, [sp, #4]
	ldr	r1, __arm_cp.2_5
.Ltmp12:
	.loc	4 138 8 is_stmt 1       @ ../GD32E230_Firmware_Library/GD32E230_standard_peripheral/Source/gd32e230_timer.c:138:8
	cmp	r0, r1
	bne	.LBB2_10
	b	.LBB2_9
.LBB2_9:
.Ltmp13:
	.loc	4 141 9                 @ ../GD32E230_Firmware_Library/GD32E230_standard_peripheral/Source/gd32e230_timer.c:141:9
	ldr	r0, [sp, #4]
	.loc	4 141 34 is_stmt 0      @ ../GD32E230_Firmware_Library/GD32E230_standard_peripheral/Source/gd32e230_timer.c:141:34
	ldr	r1, [r0]
	movw	r2, #768
	bics	r1, r2
	str	r1, [r0]
	.loc	4 142 47 is_stmt 1      @ ../GD32E230_Firmware_Library/GD32E230_standard_peripheral/Source/gd32e230_timer.c:142:47
	ldr	r0, [sp]
	.loc	4 142 57 is_stmt 0      @ ../GD32E230_Firmware_Library/GD32E230_standard_peripheral/Source/gd32e230_timer.c:142:57
	ldrh	r0, [r0, #6]
	.loc	4 142 9                 @ ../GD32E230_Firmware_Library/GD32E230_standard_peripheral/Source/gd32e230_timer.c:142:9
	ldr	r1, [sp, #4]
	.loc	4 142 34                @ ../GD32E230_Firmware_Library/GD32E230_standard_peripheral/Source/gd32e230_timer.c:142:34
	ldr	r2, [r1]
	orrs	r2, r0
	str	r2, [r1]
	.loc	4 143 5 is_stmt 1       @ ../GD32E230_Firmware_Library/GD32E230_standard_peripheral/Source/gd32e230_timer.c:143:5
	b	.LBB2_10
.Ltmp14:
.LBB2_10:
	.loc	4 145 19                @ ../GD32E230_Firmware_Library/GD32E230_standard_peripheral/Source/gd32e230_timer.c:145:19
	ldr	r0, [sp, #4]
	ldr	r1, __arm_cp.2_0
	.loc	4 145 33 is_stmt 0      @ ../GD32E230_Firmware_Library/GD32E230_standard_peripheral/Source/gd32e230_timer.c:145:33
	cmp	r0, r1
	beq	.LBB2_14
	b	.LBB2_11
.LBB2_11:
	.loc	4 145 48                @ ../GD32E230_Firmware_Library/GD32E230_standard_peripheral/Source/gd32e230_timer.c:145:48
	ldr	r0, [sp, #4]
	ldr	r1, __arm_cp.2_3
	.loc	4 145 62                @ ../GD32E230_Firmware_Library/GD32E230_standard_peripheral/Source/gd32e230_timer.c:145:62
	cmp	r0, r1
	beq	.LBB2_14
	b	.LBB2_12
.LBB2_12:
	.loc	4 145 77                @ ../GD32E230_Firmware_Library/GD32E230_standard_peripheral/Source/gd32e230_timer.c:145:77
	ldr	r0, [sp, #4]
	ldr	r1, __arm_cp.2_4
	.loc	4 145 91                @ ../GD32E230_Firmware_Library/GD32E230_standard_peripheral/Source/gd32e230_timer.c:145:91
	cmp	r0, r1
	beq	.LBB2_14
	b	.LBB2_13
.LBB2_13:
	.loc	4 145 106               @ ../GD32E230_Firmware_Library/GD32E230_standard_peripheral/Source/gd32e230_timer.c:145:106
	ldr	r0, [sp, #4]
	ldr	r1, __arm_cp.2_5
.Ltmp15:
	.loc	4 145 8                 @ ../GD32E230_Firmware_Library/GD32E230_standard_peripheral/Source/gd32e230_timer.c:145:8
	cmp	r0, r1
	bne	.LBB2_15
	b	.LBB2_14
.LBB2_14:
.Ltmp16:
	.loc	4 147 46 is_stmt 1      @ ../GD32E230_Firmware_Library/GD32E230_standard_peripheral/Source/gd32e230_timer.c:147:46
	ldr	r0, [sp]
	.loc	4 147 56 is_stmt 0      @ ../GD32E230_Firmware_Library/GD32E230_standard_peripheral/Source/gd32e230_timer.c:147:56
	ldrb	r0, [r0, #12]
	.loc	4 147 9                 @ ../GD32E230_Firmware_Library/GD32E230_standard_peripheral/Source/gd32e230_timer.c:147:9
	ldr	r1, [sp, #4]
	.loc	4 147 34                @ ../GD32E230_Firmware_Library/GD32E230_standard_peripheral/Source/gd32e230_timer.c:147:34
	str	r0, [r1, #48]
	.loc	4 148 5 is_stmt 1       @ ../GD32E230_Firmware_Library/GD32E230_standard_peripheral/Source/gd32e230_timer.c:148:5
	b	.LBB2_15
.Ltmp17:
.LBB2_15:
	.loc	4 151 5                 @ ../GD32E230_Firmware_Library/GD32E230_standard_peripheral/Source/gd32e230_timer.c:151:5
	ldr	r0, [sp, #4]
	.loc	4 151 31 is_stmt 0      @ ../GD32E230_Firmware_Library/GD32E230_standard_peripheral/Source/gd32e230_timer.c:151:31
	ldr	r1, [r0, #20]
	movs	r2, #1
	orrs	r1, r2
	str	r1, [r0, #20]
	.loc	4 152 1 is_stmt 1       @ ../GD32E230_Firmware_Library/GD32E230_standard_peripheral/Source/gd32e230_timer.c:152:1
	add	sp, #8
	bx	lr
.Ltmp18:
	.p2align	2
@ %bb.16:
	.loc	4 0 1 is_stmt 0         @ ../GD32E230_Firmware_Library/GD32E230_standard_peripheral/Source/gd32e230_timer.c:0:1
__arm_cp.2_0:
	.long	1073818624              @ 0x40012c00
.Lcpi_end13:
	.size	__arm_cp.2_0, .Lcpi_end13-__arm_cp.2_0
__arm_cp.2_1:
	.long	1073742848              @ 0x40000400
.Lcpi_end14:
	.size	__arm_cp.2_1, .Lcpi_end14-__arm_cp.2_1
__arm_cp.2_2:
	.long	1073750016              @ 0x40002000
.Lcpi_end15:
	.size	__arm_cp.2_2, .Lcpi_end15-__arm_cp.2_2
__arm_cp.2_3:
	.long	1073823744              @ 0x40014000
.Lcpi_end16:
	.size	__arm_cp.2_3, .Lcpi_end16-__arm_cp.2_3
__arm_cp.2_4:
	.long	1073824768              @ 0x40014400
.Lcpi_end17:
	.size	__arm_cp.2_4, .Lcpi_end17-__arm_cp.2_4
__arm_cp.2_5:
	.long	1073825792              @ 0x40014800
.Lcpi_end18:
	.size	__arm_cp.2_5, .Lcpi_end18-__arm_cp.2_5
.Lfunc_end2:
	.size	timer_init, .Lfunc_end2-timer_init
	.cfi_endproc
	.cantunwind
	.fnend
                                        @ -- End function
	.section	.text.timer_enable,"ax",%progbits
	.hidden	timer_enable            @ -- Begin function timer_enable
	.globl	timer_enable
	.p2align	1
	.type	timer_enable,%function
	.code	16                      @ @timer_enable
	.thumb_func
timer_enable:
.Lfunc_begin3:
	.loc	4 161 0 is_stmt 1       @ ../GD32E230_Firmware_Library/GD32E230_standard_peripheral/Source/gd32e230_timer.c:161:0
	.fnstart
	.cfi_startproc
@ %bb.0:
	.pad	#4
	sub	sp, #4
	.cfi_def_cfa_offset 4
	str	r0, [sp]
.Ltmp19:
	.loc	4 162 5 prologue_end    @ ../GD32E230_Firmware_Library/GD32E230_standard_peripheral/Source/gd32e230_timer.c:162:5
	ldr	r0, [sp]
	.loc	4 162 30 is_stmt 0      @ ../GD32E230_Firmware_Library/GD32E230_standard_peripheral/Source/gd32e230_timer.c:162:30
	ldr	r1, [r0]
	movs	r2, #1
	orrs	r1, r2
	str	r1, [r0]
	.loc	4 163 1 is_stmt 1       @ ../GD32E230_Firmware_Library/GD32E230_standard_peripheral/Source/gd32e230_timer.c:163:1
	add	sp, #4
	bx	lr
.Ltmp20:
.Lfunc_end3:
	.size	timer_enable, .Lfunc_end3-timer_enable
	.cfi_endproc
	.cantunwind
	.fnend
                                        @ -- End function
	.section	.text.timer_disable,"ax",%progbits
	.hidden	timer_disable           @ -- Begin function timer_disable
	.globl	timer_disable
	.p2align	1
	.type	timer_disable,%function
	.code	16                      @ @timer_disable
	.thumb_func
timer_disable:
.Lfunc_begin4:
	.loc	4 172 0                 @ ../GD32E230_Firmware_Library/GD32E230_standard_peripheral/Source/gd32e230_timer.c:172:0
	.fnstart
	.cfi_startproc
@ %bb.0:
	.pad	#4
	sub	sp, #4
	.cfi_def_cfa_offset 4
	str	r0, [sp]
.Ltmp21:
	.loc	4 173 5 prologue_end    @ ../GD32E230_Firmware_Library/GD32E230_standard_peripheral/Source/gd32e230_timer.c:173:5
	ldr	r0, [sp]
	.loc	4 173 30 is_stmt 0      @ ../GD32E230_Firmware_Library/GD32E230_standard_peripheral/Source/gd32e230_timer.c:173:30
	ldr	r1, [r0]
	movs	r2, #1
	bics	r1, r2
	str	r1, [r0]
	.loc	4 174 1 is_stmt 1       @ ../GD32E230_Firmware_Library/GD32E230_standard_peripheral/Source/gd32e230_timer.c:174:1
	add	sp, #4
	bx	lr
.Ltmp22:
.Lfunc_end4:
	.size	timer_disable, .Lfunc_end4-timer_disable
	.cfi_endproc
	.cantunwind
	.fnend
                                        @ -- End function
	.section	.text.timer_auto_reload_shadow_enable,"ax",%progbits
	.hidden	timer_auto_reload_shadow_enable @ -- Begin function timer_auto_reload_shadow_enable
	.globl	timer_auto_reload_shadow_enable
	.p2align	1
	.type	timer_auto_reload_shadow_enable,%function
	.code	16                      @ @timer_auto_reload_shadow_enable
	.thumb_func
timer_auto_reload_shadow_enable:
.Lfunc_begin5:
	.loc	4 183 0                 @ ../GD32E230_Firmware_Library/GD32E230_standard_peripheral/Source/gd32e230_timer.c:183:0
	.fnstart
	.cfi_startproc
@ %bb.0:
	.pad	#4
	sub	sp, #4
	.cfi_def_cfa_offset 4
	str	r0, [sp]
.Ltmp23:
	.loc	4 184 5 prologue_end    @ ../GD32E230_Firmware_Library/GD32E230_standard_peripheral/Source/gd32e230_timer.c:184:5
	ldr	r0, [sp]
	.loc	4 184 30 is_stmt 0      @ ../GD32E230_Firmware_Library/GD32E230_standard_peripheral/Source/gd32e230_timer.c:184:30
	ldr	r1, [r0]
	movs	r2, #128
	orrs	r1, r2
	str	r1, [r0]
	.loc	4 185 1 is_stmt 1       @ ../GD32E230_Firmware_Library/GD32E230_standard_peripheral/Source/gd32e230_timer.c:185:1
	add	sp, #4
	bx	lr
.Ltmp24:
.Lfunc_end5:
	.size	timer_auto_reload_shadow_enable, .Lfunc_end5-timer_auto_reload_shadow_enable
	.cfi_endproc
	.cantunwind
	.fnend
                                        @ -- End function
	.section	.text.timer_auto_reload_shadow_disable,"ax",%progbits
	.hidden	timer_auto_reload_shadow_disable @ -- Begin function timer_auto_reload_shadow_disable
	.globl	timer_auto_reload_shadow_disable
	.p2align	1
	.type	timer_auto_reload_shadow_disable,%function
	.code	16                      @ @timer_auto_reload_shadow_disable
	.thumb_func
timer_auto_reload_shadow_disable:
.Lfunc_begin6:
	.loc	4 194 0                 @ ../GD32E230_Firmware_Library/GD32E230_standard_peripheral/Source/gd32e230_timer.c:194:0
	.fnstart
	.cfi_startproc
@ %bb.0:
	.pad	#4
	sub	sp, #4
	.cfi_def_cfa_offset 4
	str	r0, [sp]
.Ltmp25:
	.loc	4 195 5 prologue_end    @ ../GD32E230_Firmware_Library/GD32E230_standard_peripheral/Source/gd32e230_timer.c:195:5
	ldr	r0, [sp]
	.loc	4 195 30 is_stmt 0      @ ../GD32E230_Firmware_Library/GD32E230_standard_peripheral/Source/gd32e230_timer.c:195:30
	ldr	r1, [r0]
	movs	r2, #128
	bics	r1, r2
	str	r1, [r0]
	.loc	4 196 1 is_stmt 1       @ ../GD32E230_Firmware_Library/GD32E230_standard_peripheral/Source/gd32e230_timer.c:196:1
	add	sp, #4
	bx	lr
.Ltmp26:
.Lfunc_end6:
	.size	timer_auto_reload_shadow_disable, .Lfunc_end6-timer_auto_reload_shadow_disable
	.cfi_endproc
	.cantunwind
	.fnend
                                        @ -- End function
	.section	.text.timer_update_event_enable,"ax",%progbits
	.hidden	timer_update_event_enable @ -- Begin function timer_update_event_enable
	.globl	timer_update_event_enable
	.p2align	1
	.type	timer_update_event_enable,%function
	.code	16                      @ @timer_update_event_enable
	.thumb_func
timer_update_event_enable:
.Lfunc_begin7:
	.loc	4 205 0                 @ ../GD32E230_Firmware_Library/GD32E230_standard_peripheral/Source/gd32e230_timer.c:205:0
	.fnstart
	.cfi_startproc
@ %bb.0:
	.pad	#4
	sub	sp, #4
	.cfi_def_cfa_offset 4
	str	r0, [sp]
.Ltmp27:
	.loc	4 206 5 prologue_end    @ ../GD32E230_Firmware_Library/GD32E230_standard_peripheral/Source/gd32e230_timer.c:206:5
	ldr	r0, [sp]
	.loc	4 206 30 is_stmt 0      @ ../GD32E230_Firmware_Library/GD32E230_standard_peripheral/Source/gd32e230_timer.c:206:30
	ldr	r1, [r0]
	movs	r2, #2
	bics	r1, r2
	str	r1, [r0]
	.loc	4 207 1 is_stmt 1       @ ../GD32E230_Firmware_Library/GD32E230_standard_peripheral/Source/gd32e230_timer.c:207:1
	add	sp, #4
	bx	lr
.Ltmp28:
.Lfunc_end7:
	.size	timer_update_event_enable, .Lfunc_end7-timer_update_event_enable
	.cfi_endproc
	.cantunwind
	.fnend
                                        @ -- End function
	.section	.text.timer_update_event_disable,"ax",%progbits
	.hidden	timer_update_event_disable @ -- Begin function timer_update_event_disable
	.globl	timer_update_event_disable
	.p2align	1
	.type	timer_update_event_disable,%function
	.code	16                      @ @timer_update_event_disable
	.thumb_func
timer_update_event_disable:
.Lfunc_begin8:
	.loc	4 216 0                 @ ../GD32E230_Firmware_Library/GD32E230_standard_peripheral/Source/gd32e230_timer.c:216:0
	.fnstart
	.cfi_startproc
@ %bb.0:
	.pad	#4
	sub	sp, #4
	.cfi_def_cfa_offset 4
	str	r0, [sp]
.Ltmp29:
	.loc	4 217 5 prologue_end    @ ../GD32E230_Firmware_Library/GD32E230_standard_peripheral/Source/gd32e230_timer.c:217:5
	ldr	r0, [sp]
	.loc	4 217 30 is_stmt 0      @ ../GD32E230_Firmware_Library/GD32E230_standard_peripheral/Source/gd32e230_timer.c:217:30
	ldr	r1, [r0]
	movs	r2, #2
	orrs	r1, r2
	str	r1, [r0]
	.loc	4 218 1 is_stmt 1       @ ../GD32E230_Firmware_Library/GD32E230_standard_peripheral/Source/gd32e230_timer.c:218:1
	add	sp, #4
	bx	lr
.Ltmp30:
.Lfunc_end8:
	.size	timer_update_event_disable, .Lfunc_end8-timer_update_event_disable
	.cfi_endproc
	.cantunwind
	.fnend
                                        @ -- End function
	.section	.text.timer_counter_alignment,"ax",%progbits
	.hidden	timer_counter_alignment @ -- Begin function timer_counter_alignment
	.globl	timer_counter_alignment
	.p2align	1
	.type	timer_counter_alignment,%function
	.code	16                      @ @timer_counter_alignment
	.thumb_func
timer_counter_alignment:
.Lfunc_begin9:
	.loc	4 233 0                 @ ../GD32E230_Firmware_Library/GD32E230_standard_peripheral/Source/gd32e230_timer.c:233:0
	.fnstart
	.cfi_startproc
@ %bb.0:
	.save	{r4, lr}
	push	{r4, lr}
	.cfi_def_cfa_offset 8
	.cfi_offset lr, -4
	.cfi_offset r4, -8
	.pad	#8
	sub	sp, #8
	.cfi_def_cfa_offset 16
	mov	r2, r1
	str	r0, [sp, #4]
	mov	r0, sp
	strh	r1, [r0]
.Ltmp31:
	.loc	4 234 5 prologue_end    @ ../GD32E230_Firmware_Library/GD32E230_standard_peripheral/Source/gd32e230_timer.c:234:5
	ldr	r1, [sp, #4]
	.loc	4 234 30 is_stmt 0      @ ../GD32E230_Firmware_Library/GD32E230_standard_peripheral/Source/gd32e230_timer.c:234:30
	ldr	r3, [r1]
	movs	r4, #96
	bics	r3, r4
	str	r3, [r1]
	.loc	4 235 43 is_stmt 1      @ ../GD32E230_Firmware_Library/GD32E230_standard_peripheral/Source/gd32e230_timer.c:235:43
	ldrh	r0, [r0]
	.loc	4 235 5 is_stmt 0       @ ../GD32E230_Firmware_Library/GD32E230_standard_peripheral/Source/gd32e230_timer.c:235:5
	ldr	r1, [sp, #4]
	.loc	4 235 30                @ ../GD32E230_Firmware_Library/GD32E230_standard_peripheral/Source/gd32e230_timer.c:235:30
	ldr	r3, [r1]
	orrs	r3, r0
	str	r3, [r1]
	.loc	4 236 1 is_stmt 1       @ ../GD32E230_Firmware_Library/GD32E230_standard_peripheral/Source/gd32e230_timer.c:236:1
	add	sp, #8
	pop	{r4, pc}
.Ltmp32:
.Lfunc_end9:
	.size	timer_counter_alignment, .Lfunc_end9-timer_counter_alignment
	.cfi_endproc
	.cantunwind
	.fnend
                                        @ -- End function
	.section	.text.timer_counter_up_direction,"ax",%progbits
	.hidden	timer_counter_up_direction @ -- Begin function timer_counter_up_direction
	.globl	timer_counter_up_direction
	.p2align	1
	.type	timer_counter_up_direction,%function
	.code	16                      @ @timer_counter_up_direction
	.thumb_func
timer_counter_up_direction:
.Lfunc_begin10:
	.loc	4 245 0                 @ ../GD32E230_Firmware_Library/GD32E230_standard_peripheral/Source/gd32e230_timer.c:245:0
	.fnstart
	.cfi_startproc
@ %bb.0:
	.pad	#4
	sub	sp, #4
	.cfi_def_cfa_offset 4
	str	r0, [sp]
.Ltmp33:
	.loc	4 246 5 prologue_end    @ ../GD32E230_Firmware_Library/GD32E230_standard_peripheral/Source/gd32e230_timer.c:246:5
	ldr	r0, [sp]
	.loc	4 246 30 is_stmt 0      @ ../GD32E230_Firmware_Library/GD32E230_standard_peripheral/Source/gd32e230_timer.c:246:30
	ldr	r1, [r0]
	movs	r2, #16
	bics	r1, r2
	str	r1, [r0]
	.loc	4 247 1 is_stmt 1       @ ../GD32E230_Firmware_Library/GD32E230_standard_peripheral/Source/gd32e230_timer.c:247:1
	add	sp, #4
	bx	lr
.Ltmp34:
.Lfunc_end10:
	.size	timer_counter_up_direction, .Lfunc_end10-timer_counter_up_direction
	.cfi_endproc
	.cantunwind
	.fnend
                                        @ -- End function
	.section	.text.timer_counter_down_direction,"ax",%progbits
	.hidden	timer_counter_down_direction @ -- Begin function timer_counter_down_direction
	.globl	timer_counter_down_direction
	.p2align	1
	.type	timer_counter_down_direction,%function
	.code	16                      @ @timer_counter_down_direction
	.thumb_func
timer_counter_down_direction:
.Lfunc_begin11:
	.loc	4 256 0                 @ ../GD32E230_Firmware_Library/GD32E230_standard_peripheral/Source/gd32e230_timer.c:256:0
	.fnstart
	.cfi_startproc
@ %bb.0:
	.pad	#4
	sub	sp, #4
	.cfi_def_cfa_offset 4
	str	r0, [sp]
.Ltmp35:
	.loc	4 257 5 prologue_end    @ ../GD32E230_Firmware_Library/GD32E230_standard_peripheral/Source/gd32e230_timer.c:257:5
	ldr	r0, [sp]
	.loc	4 257 30 is_stmt 0      @ ../GD32E230_Firmware_Library/GD32E230_standard_peripheral/Source/gd32e230_timer.c:257:30
	ldr	r1, [r0]
	movs	r2, #16
	orrs	r1, r2
	str	r1, [r0]
	.loc	4 258 1 is_stmt 1       @ ../GD32E230_Firmware_Library/GD32E230_standard_peripheral/Source/gd32e230_timer.c:258:1
	add	sp, #4
	bx	lr
.Ltmp36:
.Lfunc_end11:
	.size	timer_counter_down_direction, .Lfunc_end11-timer_counter_down_direction
	.cfi_endproc
	.cantunwind
	.fnend
                                        @ -- End function
	.section	.text.timer_prescaler_config,"ax",%progbits
	.hidden	timer_prescaler_config  @ -- Begin function timer_prescaler_config
	.globl	timer_prescaler_config
	.p2align	1
	.type	timer_prescaler_config,%function
	.code	16                      @ @timer_prescaler_config
	.thumb_func
timer_prescaler_config:
.Lfunc_begin12:
	.loc	4 272 0                 @ ../GD32E230_Firmware_Library/GD32E230_standard_peripheral/Source/gd32e230_timer.c:272:0
	.fnstart
	.cfi_startproc
@ %bb.0:
	.save	{r4, lr}
	push	{r4, lr}
	.cfi_def_cfa_offset 8
	.cfi_offset lr, -4
	.cfi_offset r4, -8
	.pad	#12
	sub	sp, #12
	.cfi_def_cfa_offset 20
	mov	r3, r2
	mov	r4, r1
	str	r0, [sp, #8]
	add	r0, sp, #4
	strh	r1, [r0]
	mov	r1, sp
	strb	r2, [r1]
.Ltmp37:
	.loc	4 273 41 prologue_end   @ ../GD32E230_Firmware_Library/GD32E230_standard_peripheral/Source/gd32e230_timer.c:273:41
	ldrh	r0, [r0]
	.loc	4 273 5 is_stmt 0       @ ../GD32E230_Firmware_Library/GD32E230_standard_peripheral/Source/gd32e230_timer.c:273:5
	ldr	r2, [sp, #8]
	.loc	4 273 29                @ ../GD32E230_Firmware_Library/GD32E230_standard_peripheral/Source/gd32e230_timer.c:273:29
	str	r0, [r2, #40]
.Ltmp38:
	.loc	4 275 32 is_stmt 1      @ ../GD32E230_Firmware_Library/GD32E230_standard_peripheral/Source/gd32e230_timer.c:275:32
	ldrb	r0, [r1]
.Ltmp39:
	.loc	4 275 8 is_stmt 0       @ ../GD32E230_Firmware_Library/GD32E230_standard_peripheral/Source/gd32e230_timer.c:275:8
	cmp	r0, #1
	bne	.LBB12_2
	b	.LBB12_1
.LBB12_1:
.Ltmp40:
	.loc	4 276 9 is_stmt 1       @ ../GD32E230_Firmware_Library/GD32E230_standard_peripheral/Source/gd32e230_timer.c:276:9
	ldr	r0, [sp, #8]
	.loc	4 276 35 is_stmt 0      @ ../GD32E230_Firmware_Library/GD32E230_standard_peripheral/Source/gd32e230_timer.c:276:35
	ldr	r1, [r0, #20]
	movs	r2, #1
	orrs	r1, r2
	str	r1, [r0, #20]
	.loc	4 277 5 is_stmt 1       @ ../GD32E230_Firmware_Library/GD32E230_standard_peripheral/Source/gd32e230_timer.c:277:5
	b	.LBB12_2
.Ltmp41:
.LBB12_2:
	.loc	4 278 1                 @ ../GD32E230_Firmware_Library/GD32E230_standard_peripheral/Source/gd32e230_timer.c:278:1
	add	sp, #12
	pop	{r4, pc}
.Ltmp42:
.Lfunc_end12:
	.size	timer_prescaler_config, .Lfunc_end12-timer_prescaler_config
	.cfi_endproc
	.cantunwind
	.fnend
                                        @ -- End function
	.section	.text.timer_repetition_value_config,"ax",%progbits
	.hidden	timer_repetition_value_config @ -- Begin function timer_repetition_value_config
	.globl	timer_repetition_value_config
	.p2align	1
	.type	timer_repetition_value_config,%function
	.code	16                      @ @timer_repetition_value_config
	.thumb_func
timer_repetition_value_config:
.Lfunc_begin13:
	.loc	4 288 0                 @ ../GD32E230_Firmware_Library/GD32E230_standard_peripheral/Source/gd32e230_timer.c:288:0
	.fnstart
	.cfi_startproc
@ %bb.0:
	.pad	#8
	sub	sp, #8
	.cfi_def_cfa_offset 8
	mov	r2, r1
	str	r0, [sp, #4]
	mov	r0, sp
	strh	r1, [r0]
.Ltmp43:
	.loc	4 289 42 prologue_end   @ ../GD32E230_Firmware_Library/GD32E230_standard_peripheral/Source/gd32e230_timer.c:289:42
	ldrh	r0, [r0]
	.loc	4 289 5 is_stmt 0       @ ../GD32E230_Firmware_Library/GD32E230_standard_peripheral/Source/gd32e230_timer.c:289:5
	ldr	r1, [sp, #4]
	.loc	4 289 30                @ ../GD32E230_Firmware_Library/GD32E230_standard_peripheral/Source/gd32e230_timer.c:289:30
	str	r0, [r1, #48]
	.loc	4 290 1 is_stmt 1       @ ../GD32E230_Firmware_Library/GD32E230_standard_peripheral/Source/gd32e230_timer.c:290:1
	add	sp, #8
	bx	lr
.Ltmp44:
.Lfunc_end13:
	.size	timer_repetition_value_config, .Lfunc_end13-timer_repetition_value_config
	.cfi_endproc
	.cantunwind
	.fnend
                                        @ -- End function
	.section	.text.timer_autoreload_value_config,"ax",%progbits
	.hidden	timer_autoreload_value_config @ -- Begin function timer_autoreload_value_config
	.globl	timer_autoreload_value_config
	.p2align	1
	.type	timer_autoreload_value_config,%function
	.code	16                      @ @timer_autoreload_value_config
	.thumb_func
timer_autoreload_value_config:
.Lfunc_begin14:
	.loc	4 300 0                 @ ../GD32E230_Firmware_Library/GD32E230_standard_peripheral/Source/gd32e230_timer.c:300:0
	.fnstart
	.cfi_startproc
@ %bb.0:
	.pad	#8
	sub	sp, #8
	.cfi_def_cfa_offset 8
	mov	r2, r1
	str	r0, [sp, #4]
	mov	r0, sp
	strh	r1, [r0]
.Ltmp45:
	.loc	4 301 41 prologue_end   @ ../GD32E230_Firmware_Library/GD32E230_standard_peripheral/Source/gd32e230_timer.c:301:41
	ldrh	r0, [r0]
	.loc	4 301 5 is_stmt 0       @ ../GD32E230_Firmware_Library/GD32E230_standard_peripheral/Source/gd32e230_timer.c:301:5
	ldr	r1, [sp, #4]
	.loc	4 301 29                @ ../GD32E230_Firmware_Library/GD32E230_standard_peripheral/Source/gd32e230_timer.c:301:29
	str	r0, [r1, #44]
	.loc	4 302 1 is_stmt 1       @ ../GD32E230_Firmware_Library/GD32E230_standard_peripheral/Source/gd32e230_timer.c:302:1
	add	sp, #8
	bx	lr
.Ltmp46:
.Lfunc_end14:
	.size	timer_autoreload_value_config, .Lfunc_end14-timer_autoreload_value_config
	.cfi_endproc
	.cantunwind
	.fnend
                                        @ -- End function
	.section	.text.timer_counter_value_config,"ax",%progbits
	.hidden	timer_counter_value_config @ -- Begin function timer_counter_value_config
	.globl	timer_counter_value_config
	.p2align	1
	.type	timer_counter_value_config,%function
	.code	16                      @ @timer_counter_value_config
	.thumb_func
timer_counter_value_config:
.Lfunc_begin15:
	.loc	4 312 0                 @ ../GD32E230_Firmware_Library/GD32E230_standard_peripheral/Source/gd32e230_timer.c:312:0
	.fnstart
	.cfi_startproc
@ %bb.0:
	.pad	#8
	sub	sp, #8
	.cfi_def_cfa_offset 8
	mov	r2, r1
	str	r0, [sp, #4]
	mov	r0, sp
	strh	r1, [r0]
.Ltmp47:
	.loc	4 313 41 prologue_end   @ ../GD32E230_Firmware_Library/GD32E230_standard_peripheral/Source/gd32e230_timer.c:313:41
	ldrh	r0, [r0]
	.loc	4 313 5 is_stmt 0       @ ../GD32E230_Firmware_Library/GD32E230_standard_peripheral/Source/gd32e230_timer.c:313:5
	ldr	r1, [sp, #4]
	.loc	4 313 29                @ ../GD32E230_Firmware_Library/GD32E230_standard_peripheral/Source/gd32e230_timer.c:313:29
	str	r0, [r1, #36]
	.loc	4 314 1 is_stmt 1       @ ../GD32E230_Firmware_Library/GD32E230_standard_peripheral/Source/gd32e230_timer.c:314:1
	add	sp, #8
	bx	lr
.Ltmp48:
.Lfunc_end15:
	.size	timer_counter_value_config, .Lfunc_end15-timer_counter_value_config
	.cfi_endproc
	.cantunwind
	.fnend
                                        @ -- End function
	.section	.text.timer_counter_read,"ax",%progbits
	.hidden	timer_counter_read      @ -- Begin function timer_counter_read
	.globl	timer_counter_read
	.p2align	1
	.type	timer_counter_read,%function
	.code	16                      @ @timer_counter_read
	.thumb_func
timer_counter_read:
.Lfunc_begin16:
	.loc	4 323 0                 @ ../GD32E230_Firmware_Library/GD32E230_standard_peripheral/Source/gd32e230_timer.c:323:0
	.fnstart
	.cfi_startproc
@ %bb.0:
	.pad	#8
	sub	sp, #8
	.cfi_def_cfa_offset 8
	str	r0, [sp, #4]
	movs	r0, #0
.Ltmp49:
	.loc	4 324 14 prologue_end   @ ../GD32E230_Firmware_Library/GD32E230_standard_peripheral/Source/gd32e230_timer.c:324:14
	str	r0, [sp]
	.loc	4 325 19                @ ../GD32E230_Firmware_Library/GD32E230_standard_peripheral/Source/gd32e230_timer.c:325:19
	ldr	r0, [sp, #4]
	ldr	r0, [r0, #36]
	.loc	4 325 17 is_stmt 0      @ ../GD32E230_Firmware_Library/GD32E230_standard_peripheral/Source/gd32e230_timer.c:325:17
	str	r0, [sp]
	.loc	4 326 13 is_stmt 1      @ ../GD32E230_Firmware_Library/GD32E230_standard_peripheral/Source/gd32e230_timer.c:326:13
	ldr	r0, [sp]
	.loc	4 326 5 is_stmt 0       @ ../GD32E230_Firmware_Library/GD32E230_standard_peripheral/Source/gd32e230_timer.c:326:5
	add	sp, #8
	bx	lr
.Ltmp50:
.Lfunc_end16:
	.size	timer_counter_read, .Lfunc_end16-timer_counter_read
	.cfi_endproc
	.cantunwind
	.fnend
                                        @ -- End function
	.section	.text.timer_prescaler_read,"ax",%progbits
	.hidden	timer_prescaler_read    @ -- Begin function timer_prescaler_read
	.globl	timer_prescaler_read
	.p2align	1
	.type	timer_prescaler_read,%function
	.code	16                      @ @timer_prescaler_read
	.thumb_func
timer_prescaler_read:
.Lfunc_begin17:
	.loc	4 336 0 is_stmt 1       @ ../GD32E230_Firmware_Library/GD32E230_standard_peripheral/Source/gd32e230_timer.c:336:0
	.fnstart
	.cfi_startproc
@ %bb.0:
	.pad	#8
	sub	sp, #8
	.cfi_def_cfa_offset 8
	str	r0, [sp, #4]
	mov	r0, sp
	movs	r1, #0
.Ltmp51:
	.loc	4 337 14 prologue_end   @ ../GD32E230_Firmware_Library/GD32E230_standard_peripheral/Source/gd32e230_timer.c:337:14
	strh	r1, [r0]
	.loc	4 338 34                @ ../GD32E230_Firmware_Library/GD32E230_standard_peripheral/Source/gd32e230_timer.c:338:34
	ldr	r1, [sp, #4]
	ldr	r1, [r1, #40]
	.loc	4 338 21 is_stmt 0      @ ../GD32E230_Firmware_Library/GD32E230_standard_peripheral/Source/gd32e230_timer.c:338:21
	strh	r1, [r0]
	.loc	4 339 13 is_stmt 1      @ ../GD32E230_Firmware_Library/GD32E230_standard_peripheral/Source/gd32e230_timer.c:339:13
	ldrh	r0, [r0]
	.loc	4 339 5 is_stmt 0       @ ../GD32E230_Firmware_Library/GD32E230_standard_peripheral/Source/gd32e230_timer.c:339:5
	add	sp, #8
	bx	lr
.Ltmp52:
.Lfunc_end17:
	.size	timer_prescaler_read, .Lfunc_end17-timer_prescaler_read
	.cfi_endproc
	.cantunwind
	.fnend
                                        @ -- End function
	.section	.text.timer_single_pulse_mode_config,"ax",%progbits
	.hidden	timer_single_pulse_mode_config @ -- Begin function timer_single_pulse_mode_config
	.globl	timer_single_pulse_mode_config
	.p2align	1
	.type	timer_single_pulse_mode_config,%function
	.code	16                      @ @timer_single_pulse_mode_config
	.thumb_func
timer_single_pulse_mode_config:
.Lfunc_begin18:
	.loc	4 353 0 is_stmt 1       @ ../GD32E230_Firmware_Library/GD32E230_standard_peripheral/Source/gd32e230_timer.c:353:0
	.fnstart
	.cfi_startproc
@ %bb.0:
	.pad	#8
	sub	sp, #8
	.cfi_def_cfa_offset 8
	str	r0, [sp, #4]
	str	r1, [sp]
.Ltmp53:
	.loc	4 354 32 prologue_end   @ ../GD32E230_Firmware_Library/GD32E230_standard_peripheral/Source/gd32e230_timer.c:354:32
	ldr	r0, [sp]
.Ltmp54:
	.loc	4 354 8 is_stmt 0       @ ../GD32E230_Firmware_Library/GD32E230_standard_peripheral/Source/gd32e230_timer.c:354:8
	cmp	r0, #8
	bne	.LBB18_2
	b	.LBB18_1
.LBB18_1:
.Ltmp55:
	.loc	4 355 9 is_stmt 1       @ ../GD32E230_Firmware_Library/GD32E230_standard_peripheral/Source/gd32e230_timer.c:355:9
	ldr	r0, [sp, #4]
	.loc	4 355 34 is_stmt 0      @ ../GD32E230_Firmware_Library/GD32E230_standard_peripheral/Source/gd32e230_timer.c:355:34
	ldr	r1, [r0]
	movs	r2, #8
	orrs	r1, r2
	str	r1, [r0]
	.loc	4 356 5 is_stmt 1       @ ../GD32E230_Firmware_Library/GD32E230_standard_peripheral/Source/gd32e230_timer.c:356:5
	b	.LBB18_6
.Ltmp56:
.LBB18_2:
	.loc	4 356 42 is_stmt 0      @ ../GD32E230_Firmware_Library/GD32E230_standard_peripheral/Source/gd32e230_timer.c:356:42
	ldr	r0, [sp]
.Ltmp57:
	.loc	4 356 14                @ ../GD32E230_Firmware_Library/GD32E230_standard_peripheral/Source/gd32e230_timer.c:356:14
	cmp	r0, #0
	bne	.LBB18_4
	b	.LBB18_3
.LBB18_3:
.Ltmp58:
	.loc	4 357 9 is_stmt 1       @ ../GD32E230_Firmware_Library/GD32E230_standard_peripheral/Source/gd32e230_timer.c:357:9
	ldr	r0, [sp, #4]
	.loc	4 357 34 is_stmt 0      @ ../GD32E230_Firmware_Library/GD32E230_standard_peripheral/Source/gd32e230_timer.c:357:34
	ldr	r1, [r0]
	movs	r2, #8
	bics	r1, r2
	str	r1, [r0]
	.loc	4 358 5 is_stmt 1       @ ../GD32E230_Firmware_Library/GD32E230_standard_peripheral/Source/gd32e230_timer.c:358:5
	b	.LBB18_5
.Ltmp59:
.LBB18_4:
	.loc	4 0 5 is_stmt 0         @ ../GD32E230_Firmware_Library/GD32E230_standard_peripheral/Source/gd32e230_timer.c:0:5
	b	.LBB18_5
.LBB18_5:
	b	.LBB18_6
.LBB18_6:
	.loc	4 361 1 is_stmt 1       @ ../GD32E230_Firmware_Library/GD32E230_standard_peripheral/Source/gd32e230_timer.c:361:1
	add	sp, #8
	bx	lr
.Ltmp60:
.Lfunc_end18:
	.size	timer_single_pulse_mode_config, .Lfunc_end18-timer_single_pulse_mode_config
	.cfi_endproc
	.cantunwind
	.fnend
                                        @ -- End function
	.section	.text.timer_update_source_config,"ax",%progbits
	.hidden	timer_update_source_config @ -- Begin function timer_update_source_config
	.globl	timer_update_source_config
	.p2align	1
	.type	timer_update_source_config,%function
	.code	16                      @ @timer_update_source_config
	.thumb_func
timer_update_source_config:
.Lfunc_begin19:
	.loc	4 374 0                 @ ../GD32E230_Firmware_Library/GD32E230_standard_peripheral/Source/gd32e230_timer.c:374:0
	.fnstart
	.cfi_startproc
@ %bb.0:
	.pad	#8
	sub	sp, #8
	.cfi_def_cfa_offset 8
	str	r0, [sp, #4]
	str	r1, [sp]
.Ltmp61:
	.loc	4 375 36 prologue_end   @ ../GD32E230_Firmware_Library/GD32E230_standard_peripheral/Source/gd32e230_timer.c:375:36
	ldr	r0, [sp]
.Ltmp62:
	.loc	4 375 8 is_stmt 0       @ ../GD32E230_Firmware_Library/GD32E230_standard_peripheral/Source/gd32e230_timer.c:375:8
	cmp	r0, #4
	bne	.LBB19_2
	b	.LBB19_1
.LBB19_1:
.Ltmp63:
	.loc	4 376 9 is_stmt 1       @ ../GD32E230_Firmware_Library/GD32E230_standard_peripheral/Source/gd32e230_timer.c:376:9
	ldr	r0, [sp, #4]
	.loc	4 376 34 is_stmt 0      @ ../GD32E230_Firmware_Library/GD32E230_standard_peripheral/Source/gd32e230_timer.c:376:34
	ldr	r1, [r0]
	movs	r2, #4
	orrs	r1, r2
	str	r1, [r0]
	.loc	4 377 5 is_stmt 1       @ ../GD32E230_Firmware_Library/GD32E230_standard_peripheral/Source/gd32e230_timer.c:377:5
	b	.LBB19_6
.Ltmp64:
.LBB19_2:
	.loc	4 377 41 is_stmt 0      @ ../GD32E230_Firmware_Library/GD32E230_standard_peripheral/Source/gd32e230_timer.c:377:41
	ldr	r0, [sp]
.Ltmp65:
	.loc	4 377 14                @ ../GD32E230_Firmware_Library/GD32E230_standard_peripheral/Source/gd32e230_timer.c:377:14
	cmp	r0, #0
	bne	.LBB19_4
	b	.LBB19_3
.LBB19_3:
.Ltmp66:
	.loc	4 378 9 is_stmt 1       @ ../GD32E230_Firmware_Library/GD32E230_standard_peripheral/Source/gd32e230_timer.c:378:9
	ldr	r0, [sp, #4]
	.loc	4 378 34 is_stmt 0      @ ../GD32E230_Firmware_Library/GD32E230_standard_peripheral/Source/gd32e230_timer.c:378:34
	ldr	r1, [r0]
	movs	r2, #4
	bics	r1, r2
	str	r1, [r0]
	.loc	4 379 5 is_stmt 1       @ ../GD32E230_Firmware_Library/GD32E230_standard_peripheral/Source/gd32e230_timer.c:379:5
	b	.LBB19_5
.Ltmp67:
.LBB19_4:
	.loc	4 0 5 is_stmt 0         @ ../GD32E230_Firmware_Library/GD32E230_standard_peripheral/Source/gd32e230_timer.c:0:5
	b	.LBB19_5
.LBB19_5:
	b	.LBB19_6
.LBB19_6:
	.loc	4 382 1 is_stmt 1       @ ../GD32E230_Firmware_Library/GD32E230_standard_peripheral/Source/gd32e230_timer.c:382:1
	add	sp, #8
	bx	lr
.Ltmp68:
.Lfunc_end19:
	.size	timer_update_source_config, .Lfunc_end19-timer_update_source_config
	.cfi_endproc
	.cantunwind
	.fnend
                                        @ -- End function
	.section	.text.timer_ocpre_clear_source_config,"ax",%progbits
	.hidden	timer_ocpre_clear_source_config @ -- Begin function timer_ocpre_clear_source_config
	.globl	timer_ocpre_clear_source_config
	.p2align	1
	.type	timer_ocpre_clear_source_config,%function
	.code	16                      @ @timer_ocpre_clear_source_config
	.thumb_func
timer_ocpre_clear_source_config:
.Lfunc_begin20:
	.loc	4 395 0                 @ ../GD32E230_Firmware_Library/GD32E230_standard_peripheral/Source/gd32e230_timer.c:395:0
	.fnstart
	.cfi_startproc
@ %bb.0:
	.pad	#8
	sub	sp, #8
	.cfi_def_cfa_offset 8
	mov	r2, r1
	str	r0, [sp, #4]
	mov	r0, sp
	strb	r1, [r0]
.Ltmp69:
	.loc	4 396 41 prologue_end   @ ../GD32E230_Firmware_Library/GD32E230_standard_peripheral/Source/gd32e230_timer.c:396:41
	ldrb	r0, [r0]
.Ltmp70:
	.loc	4 396 8 is_stmt 0       @ ../GD32E230_Firmware_Library/GD32E230_standard_peripheral/Source/gd32e230_timer.c:396:8
	cmp	r0, #1
	bne	.LBB20_2
	b	.LBB20_1
.LBB20_1:
.Ltmp71:
	.loc	4 397 9 is_stmt 1       @ ../GD32E230_Firmware_Library/GD32E230_standard_peripheral/Source/gd32e230_timer.c:397:9
	ldr	r0, [sp, #4]
	.loc	4 397 35 is_stmt 0      @ ../GD32E230_Firmware_Library/GD32E230_standard_peripheral/Source/gd32e230_timer.c:397:35
	ldr	r1, [r0, #8]
	movs	r2, #8
	orrs	r1, r2
	str	r1, [r0, #8]
	.loc	4 398 5 is_stmt 1       @ ../GD32E230_Firmware_Library/GD32E230_standard_peripheral/Source/gd32e230_timer.c:398:5
	b	.LBB20_6
.Ltmp72:
.LBB20_2:
	.loc	4 0 5 is_stmt 0         @ ../GD32E230_Firmware_Library/GD32E230_standard_peripheral/Source/gd32e230_timer.c:0:5
	mov	r0, sp
.Ltmp73:
	.loc	4 398 46                @ ../GD32E230_Firmware_Library/GD32E230_standard_peripheral/Source/gd32e230_timer.c:398:46
	ldrb	r0, [r0]
.Ltmp74:
	.loc	4 398 14                @ ../GD32E230_Firmware_Library/GD32E230_standard_peripheral/Source/gd32e230_timer.c:398:14
	cmp	r0, #0
	bne	.LBB20_4
	b	.LBB20_3
.LBB20_3:
.Ltmp75:
	.loc	4 399 9 is_stmt 1       @ ../GD32E230_Firmware_Library/GD32E230_standard_peripheral/Source/gd32e230_timer.c:399:9
	ldr	r0, [sp, #4]
	.loc	4 399 35 is_stmt 0      @ ../GD32E230_Firmware_Library/GD32E230_standard_peripheral/Source/gd32e230_timer.c:399:35
	ldr	r1, [r0, #8]
	movs	r2, #8
	bics	r1, r2
	str	r1, [r0, #8]
	.loc	4 400 5 is_stmt 1       @ ../GD32E230_Firmware_Library/GD32E230_standard_peripheral/Source/gd32e230_timer.c:400:5
	b	.LBB20_5
.Ltmp76:
.LBB20_4:
	.loc	4 0 5 is_stmt 0         @ ../GD32E230_Firmware_Library/GD32E230_standard_peripheral/Source/gd32e230_timer.c:0:5
	b	.LBB20_5
.LBB20_5:
	b	.LBB20_6
.LBB20_6:
	.loc	4 403 1 is_stmt 1       @ ../GD32E230_Firmware_Library/GD32E230_standard_peripheral/Source/gd32e230_timer.c:403:1
	add	sp, #8
	bx	lr
.Ltmp77:
.Lfunc_end20:
	.size	timer_ocpre_clear_source_config, .Lfunc_end20-timer_ocpre_clear_source_config
	.cfi_endproc
	.cantunwind
	.fnend
                                        @ -- End function
	.section	.text.timer_interrupt_enable,"ax",%progbits
	.hidden	timer_interrupt_enable  @ -- Begin function timer_interrupt_enable
	.globl	timer_interrupt_enable
	.p2align	1
	.type	timer_interrupt_enable,%function
	.code	16                      @ @timer_interrupt_enable
	.thumb_func
timer_interrupt_enable:
.Lfunc_begin21:
	.loc	4 422 0                 @ ../GD32E230_Firmware_Library/GD32E230_standard_peripheral/Source/gd32e230_timer.c:422:0
	.fnstart
	.cfi_startproc
@ %bb.0:
	.pad	#8
	sub	sp, #8
	.cfi_def_cfa_offset 8
	str	r0, [sp, #4]
	str	r1, [sp]
.Ltmp78:
	.loc	4 423 48 prologue_end   @ ../GD32E230_Firmware_Library/GD32E230_standard_peripheral/Source/gd32e230_timer.c:423:48
	ldr	r0, [sp]
	.loc	4 423 5 is_stmt 0       @ ../GD32E230_Firmware_Library/GD32E230_standard_peripheral/Source/gd32e230_timer.c:423:5
	ldr	r1, [sp, #4]
	.loc	4 423 34                @ ../GD32E230_Firmware_Library/GD32E230_standard_peripheral/Source/gd32e230_timer.c:423:34
	ldr	r2, [r1, #12]
	orrs	r2, r0
	str	r2, [r1, #12]
	.loc	4 424 1 is_stmt 1       @ ../GD32E230_Firmware_Library/GD32E230_standard_peripheral/Source/gd32e230_timer.c:424:1
	add	sp, #8
	bx	lr
.Ltmp79:
.Lfunc_end21:
	.size	timer_interrupt_enable, .Lfunc_end21-timer_interrupt_enable
	.cfi_endproc
	.cantunwind
	.fnend
                                        @ -- End function
	.section	.text.timer_interrupt_disable,"ax",%progbits
	.hidden	timer_interrupt_disable @ -- Begin function timer_interrupt_disable
	.globl	timer_interrupt_disable
	.p2align	1
	.type	timer_interrupt_disable,%function
	.code	16                      @ @timer_interrupt_disable
	.thumb_func
timer_interrupt_disable:
.Lfunc_begin22:
	.loc	4 443 0                 @ ../GD32E230_Firmware_Library/GD32E230_standard_peripheral/Source/gd32e230_timer.c:443:0
	.fnstart
	.cfi_startproc
@ %bb.0:
	.pad	#8
	sub	sp, #8
	.cfi_def_cfa_offset 8
	str	r0, [sp, #4]
	str	r1, [sp]
.Ltmp80:
	.loc	4 444 49 prologue_end   @ ../GD32E230_Firmware_Library/GD32E230_standard_peripheral/Source/gd32e230_timer.c:444:49
	ldr	r0, [sp]
	.loc	4 444 5 is_stmt 0       @ ../GD32E230_Firmware_Library/GD32E230_standard_peripheral/Source/gd32e230_timer.c:444:5
	ldr	r1, [sp, #4]
	.loc	4 444 34                @ ../GD32E230_Firmware_Library/GD32E230_standard_peripheral/Source/gd32e230_timer.c:444:34
	ldr	r2, [r1, #12]
	bics	r2, r0
	str	r2, [r1, #12]
	.loc	4 445 1 is_stmt 1       @ ../GD32E230_Firmware_Library/GD32E230_standard_peripheral/Source/gd32e230_timer.c:445:1
	add	sp, #8
	bx	lr
.Ltmp81:
.Lfunc_end22:
	.size	timer_interrupt_disable, .Lfunc_end22-timer_interrupt_disable
	.cfi_endproc
	.cantunwind
	.fnend
                                        @ -- End function
	.section	.text.timer_interrupt_flag_get,"ax",%progbits
	.hidden	timer_interrupt_flag_get @ -- Begin function timer_interrupt_flag_get
	.globl	timer_interrupt_flag_get
	.p2align	1
	.type	timer_interrupt_flag_get,%function
	.code	16                      @ @timer_interrupt_flag_get
	.thumb_func
timer_interrupt_flag_get:
.Lfunc_begin23:
	.loc	4 464 0                 @ ../GD32E230_Firmware_Library/GD32E230_standard_peripheral/Source/gd32e230_timer.c:464:0
	.fnstart
	.cfi_startproc
@ %bb.0:
	.pad	#16
	sub	sp, #16
	.cfi_def_cfa_offset 16
	str	r0, [sp, #8]
	str	r1, [sp, #4]
.Ltmp82:
	.loc	4 466 12 prologue_end   @ ../GD32E230_Firmware_Library/GD32E230_standard_peripheral/Source/gd32e230_timer.c:466:12
	ldr	r0, [sp, #8]
	ldr	r0, [r0, #12]
	.loc	4 466 43 is_stmt 0      @ ../GD32E230_Firmware_Library/GD32E230_standard_peripheral/Source/gd32e230_timer.c:466:43
	ldr	r1, [sp, #4]
	.loc	4 466 41                @ ../GD32E230_Firmware_Library/GD32E230_standard_peripheral/Source/gd32e230_timer.c:466:41
	ands	r0, r1
	.loc	4 466 9                 @ ../GD32E230_Firmware_Library/GD32E230_standard_peripheral/Source/gd32e230_timer.c:466:9
	str	r0, [sp]
.Ltmp83:
	.loc	4 467 19 is_stmt 1      @ ../GD32E230_Firmware_Library/GD32E230_standard_peripheral/Source/gd32e230_timer.c:467:19
	ldr	r0, [sp, #8]
	ldr	r0, [r0, #16]
	.loc	4 467 46 is_stmt 0      @ ../GD32E230_Firmware_Library/GD32E230_standard_peripheral/Source/gd32e230_timer.c:467:46
	ldr	r1, [sp, #4]
	.loc	4 467 59                @ ../GD32E230_Firmware_Library/GD32E230_standard_peripheral/Source/gd32e230_timer.c:467:59
	tst	r0, r1
	beq	.LBB23_3
	b	.LBB23_1
.LBB23_1:
	.loc	4 467 72                @ ../GD32E230_Firmware_Library/GD32E230_standard_peripheral/Source/gd32e230_timer.c:467:72
	ldr	r0, [sp]
.Ltmp84:
	.loc	4 467 8                 @ ../GD32E230_Firmware_Library/GD32E230_standard_peripheral/Source/gd32e230_timer.c:467:8
	cmp	r0, #0
	beq	.LBB23_3
	b	.LBB23_2
.LBB23_2:
	.loc	4 0 8                   @ ../GD32E230_Firmware_Library/GD32E230_standard_peripheral/Source/gd32e230_timer.c:0:8
	add	r0, sp, #12
	movs	r1, #1
.Ltmp85:
	.loc	4 468 9 is_stmt 1       @ ../GD32E230_Firmware_Library/GD32E230_standard_peripheral/Source/gd32e230_timer.c:468:9
	strb	r1, [r0]
	b	.LBB23_4
.Ltmp86:
.LBB23_3:
	.loc	4 0 9 is_stmt 0         @ ../GD32E230_Firmware_Library/GD32E230_standard_peripheral/Source/gd32e230_timer.c:0:9
	add	r0, sp, #12
	movs	r1, #0
.Ltmp87:
	.loc	4 470 9 is_stmt 1       @ ../GD32E230_Firmware_Library/GD32E230_standard_peripheral/Source/gd32e230_timer.c:470:9
	strb	r1, [r0]
	b	.LBB23_4
.Ltmp88:
.LBB23_4:
	.loc	4 0 9 is_stmt 0         @ ../GD32E230_Firmware_Library/GD32E230_standard_peripheral/Source/gd32e230_timer.c:0:9
	add	r0, sp, #12
	.loc	4 472 1 is_stmt 1       @ ../GD32E230_Firmware_Library/GD32E230_standard_peripheral/Source/gd32e230_timer.c:472:1
	ldrb	r0, [r0]
	add	sp, #16
	bx	lr
.Ltmp89:
.Lfunc_end23:
	.size	timer_interrupt_flag_get, .Lfunc_end23-timer_interrupt_flag_get
	.cfi_endproc
	.cantunwind
	.fnend
                                        @ -- End function
	.section	.text.timer_interrupt_flag_clear,"ax",%progbits
	.hidden	timer_interrupt_flag_clear @ -- Begin function timer_interrupt_flag_clear
	.globl	timer_interrupt_flag_clear
	.p2align	1
	.type	timer_interrupt_flag_clear,%function
	.code	16                      @ @timer_interrupt_flag_clear
	.thumb_func
timer_interrupt_flag_clear:
.Lfunc_begin24:
	.loc	4 491 0                 @ ../GD32E230_Firmware_Library/GD32E230_standard_peripheral/Source/gd32e230_timer.c:491:0
	.fnstart
	.cfi_startproc
@ %bb.0:
	.pad	#8
	sub	sp, #8
	.cfi_def_cfa_offset 8
	str	r0, [sp, #4]
	str	r1, [sp]
.Ltmp90:
	.loc	4 492 45 prologue_end   @ ../GD32E230_Firmware_Library/GD32E230_standard_peripheral/Source/gd32e230_timer.c:492:45
	ldr	r0, [sp]
	.loc	4 492 5 is_stmt 0       @ ../GD32E230_Firmware_Library/GD32E230_standard_peripheral/Source/gd32e230_timer.c:492:5
	ldr	r1, [sp, #4]
	.loc	4 492 30                @ ../GD32E230_Firmware_Library/GD32E230_standard_peripheral/Source/gd32e230_timer.c:492:30
	ldr	r2, [r1, #16]
	bics	r2, r0
	str	r2, [r1, #16]
	.loc	4 493 1 is_stmt 1       @ ../GD32E230_Firmware_Library/GD32E230_standard_peripheral/Source/gd32e230_timer.c:493:1
	add	sp, #8
	bx	lr
.Ltmp91:
.Lfunc_end24:
	.size	timer_interrupt_flag_clear, .Lfunc_end24-timer_interrupt_flag_clear
	.cfi_endproc
	.cantunwind
	.fnend
                                        @ -- End function
	.section	.text.timer_flag_get,"ax",%progbits
	.hidden	timer_flag_get          @ -- Begin function timer_flag_get
	.globl	timer_flag_get
	.p2align	1
	.type	timer_flag_get,%function
	.code	16                      @ @timer_flag_get
	.thumb_func
timer_flag_get:
.Lfunc_begin25:
	.loc	4 516 0                 @ ../GD32E230_Firmware_Library/GD32E230_standard_peripheral/Source/gd32e230_timer.c:516:0
	.fnstart
	.cfi_startproc
@ %bb.0:
	.pad	#12
	sub	sp, #12
	.cfi_def_cfa_offset 12
	str	r0, [sp, #4]
	str	r1, [sp]
.Ltmp92:
	.loc	4 517 18 prologue_end   @ ../GD32E230_Firmware_Library/GD32E230_standard_peripheral/Source/gd32e230_timer.c:517:18
	ldr	r0, [sp, #4]
	ldr	r0, [r0, #16]
	.loc	4 517 45 is_stmt 0      @ ../GD32E230_Firmware_Library/GD32E230_standard_peripheral/Source/gd32e230_timer.c:517:45
	ldr	r1, [sp]
.Ltmp93:
	.loc	4 517 8                 @ ../GD32E230_Firmware_Library/GD32E230_standard_peripheral/Source/gd32e230_timer.c:517:8
	tst	r0, r1
	beq	.LBB25_2
	b	.LBB25_1
.LBB25_1:
	.loc	4 0 8                   @ ../GD32E230_Firmware_Library/GD32E230_standard_peripheral/Source/gd32e230_timer.c:0:8
	add	r0, sp, #8
	movs	r1, #1
.Ltmp94:
	.loc	4 518 9 is_stmt 1       @ ../GD32E230_Firmware_Library/GD32E230_standard_peripheral/Source/gd32e230_timer.c:518:9
	strb	r1, [r0]
	b	.LBB25_3
.Ltmp95:
.LBB25_2:
	.loc	4 0 9 is_stmt 0         @ ../GD32E230_Firmware_Library/GD32E230_standard_peripheral/Source/gd32e230_timer.c:0:9
	add	r0, sp, #8
	movs	r1, #0
.Ltmp96:
	.loc	4 520 9 is_stmt 1       @ ../GD32E230_Firmware_Library/GD32E230_standard_peripheral/Source/gd32e230_timer.c:520:9
	strb	r1, [r0]
	b	.LBB25_3
.Ltmp97:
.LBB25_3:
	.loc	4 0 9 is_stmt 0         @ ../GD32E230_Firmware_Library/GD32E230_standard_peripheral/Source/gd32e230_timer.c:0:9
	add	r0, sp, #8
	.loc	4 522 1 is_stmt 1       @ ../GD32E230_Firmware_Library/GD32E230_standard_peripheral/Source/gd32e230_timer.c:522:1
	ldrb	r0, [r0]
	add	sp, #12
	bx	lr
.Ltmp98:
.Lfunc_end25:
	.size	timer_flag_get, .Lfunc_end25-timer_flag_get
	.cfi_endproc
	.cantunwind
	.fnend
                                        @ -- End function
	.section	.text.timer_flag_clear,"ax",%progbits
	.hidden	timer_flag_clear        @ -- Begin function timer_flag_clear
	.globl	timer_flag_clear
	.p2align	1
	.type	timer_flag_clear,%function
	.code	16                      @ @timer_flag_clear
	.thumb_func
timer_flag_clear:
.Lfunc_begin26:
	.loc	4 545 0                 @ ../GD32E230_Firmware_Library/GD32E230_standard_peripheral/Source/gd32e230_timer.c:545:0
	.fnstart
	.cfi_startproc
@ %bb.0:
	.pad	#8
	sub	sp, #8
	.cfi_def_cfa_offset 8
	str	r0, [sp, #4]
	str	r1, [sp]
.Ltmp99:
	.loc	4 546 45 prologue_end   @ ../GD32E230_Firmware_Library/GD32E230_standard_peripheral/Source/gd32e230_timer.c:546:45
	ldr	r0, [sp]
	.loc	4 546 5 is_stmt 0       @ ../GD32E230_Firmware_Library/GD32E230_standard_peripheral/Source/gd32e230_timer.c:546:5
	ldr	r1, [sp, #4]
	.loc	4 546 30                @ ../GD32E230_Firmware_Library/GD32E230_standard_peripheral/Source/gd32e230_timer.c:546:30
	ldr	r2, [r1, #16]
	bics	r2, r0
	str	r2, [r1, #16]
	.loc	4 547 1 is_stmt 1       @ ../GD32E230_Firmware_Library/GD32E230_standard_peripheral/Source/gd32e230_timer.c:547:1
	add	sp, #8
	bx	lr
.Ltmp100:
.Lfunc_end26:
	.size	timer_flag_clear, .Lfunc_end26-timer_flag_clear
	.cfi_endproc
	.cantunwind
	.fnend
                                        @ -- End function
	.section	.text.timer_dma_enable,"ax",%progbits
	.hidden	timer_dma_enable        @ -- Begin function timer_dma_enable
	.globl	timer_dma_enable
	.p2align	1
	.type	timer_dma_enable,%function
	.code	16                      @ @timer_dma_enable
	.thumb_func
timer_dma_enable:
.Lfunc_begin27:
	.loc	4 565 0                 @ ../GD32E230_Firmware_Library/GD32E230_standard_peripheral/Source/gd32e230_timer.c:565:0
	.fnstart
	.cfi_startproc
@ %bb.0:
	.pad	#8
	sub	sp, #8
	.cfi_def_cfa_offset 8
	mov	r2, r1
	str	r0, [sp, #4]
	mov	r0, sp
	strh	r1, [r0]
.Ltmp101:
	.loc	4 566 48 prologue_end   @ ../GD32E230_Firmware_Library/GD32E230_standard_peripheral/Source/gd32e230_timer.c:566:48
	ldrh	r0, [r0]
	.loc	4 566 5 is_stmt 0       @ ../GD32E230_Firmware_Library/GD32E230_standard_peripheral/Source/gd32e230_timer.c:566:5
	ldr	r1, [sp, #4]
	.loc	4 566 34                @ ../GD32E230_Firmware_Library/GD32E230_standard_peripheral/Source/gd32e230_timer.c:566:34
	ldr	r3, [r1, #12]
	orrs	r3, r0
	str	r3, [r1, #12]
	.loc	4 567 1 is_stmt 1       @ ../GD32E230_Firmware_Library/GD32E230_standard_peripheral/Source/gd32e230_timer.c:567:1
	add	sp, #8
	bx	lr
.Ltmp102:
.Lfunc_end27:
	.size	timer_dma_enable, .Lfunc_end27-timer_dma_enable
	.cfi_endproc
	.cantunwind
	.fnend
                                        @ -- End function
	.section	.text.timer_dma_disable,"ax",%progbits
	.hidden	timer_dma_disable       @ -- Begin function timer_dma_disable
	.globl	timer_dma_disable
	.p2align	1
	.type	timer_dma_disable,%function
	.code	16                      @ @timer_dma_disable
	.thumb_func
timer_dma_disable:
.Lfunc_begin28:
	.loc	4 585 0                 @ ../GD32E230_Firmware_Library/GD32E230_standard_peripheral/Source/gd32e230_timer.c:585:0
	.fnstart
	.cfi_startproc
@ %bb.0:
	.pad	#8
	sub	sp, #8
	.cfi_def_cfa_offset 8
	mov	r2, r1
	str	r0, [sp, #4]
	mov	r0, sp
	strh	r1, [r0]
.Ltmp103:
	.loc	4 586 50 prologue_end   @ ../GD32E230_Firmware_Library/GD32E230_standard_peripheral/Source/gd32e230_timer.c:586:50
	ldrh	r0, [r0]
	.loc	4 586 5 is_stmt 0       @ ../GD32E230_Firmware_Library/GD32E230_standard_peripheral/Source/gd32e230_timer.c:586:5
	ldr	r1, [sp, #4]
	.loc	4 586 34                @ ../GD32E230_Firmware_Library/GD32E230_standard_peripheral/Source/gd32e230_timer.c:586:34
	ldr	r3, [r1, #12]
	bics	r3, r0
	str	r3, [r1, #12]
	.loc	4 587 1 is_stmt 1       @ ../GD32E230_Firmware_Library/GD32E230_standard_peripheral/Source/gd32e230_timer.c:587:1
	add	sp, #8
	bx	lr
.Ltmp104:
.Lfunc_end28:
	.size	timer_dma_disable, .Lfunc_end28-timer_dma_disable
	.cfi_endproc
	.cantunwind
	.fnend
                                        @ -- End function
	.section	.text.timer_channel_dma_request_source_select,"ax",%progbits
	.hidden	timer_channel_dma_request_source_select @ -- Begin function timer_channel_dma_request_source_select
	.globl	timer_channel_dma_request_source_select
	.p2align	1
	.type	timer_channel_dma_request_source_select,%function
	.code	16                      @ @timer_channel_dma_request_source_select
	.thumb_func
timer_channel_dma_request_source_select:
.Lfunc_begin29:
	.loc	4 600 0                 @ ../GD32E230_Firmware_Library/GD32E230_standard_peripheral/Source/gd32e230_timer.c:600:0
	.fnstart
	.cfi_startproc
@ %bb.0:
	.pad	#8
	sub	sp, #8
	.cfi_def_cfa_offset 8
	mov	r2, r1
	str	r0, [sp, #4]
	mov	r0, sp
	strb	r1, [r0]
.Ltmp105:
	.loc	4 601 40 prologue_end   @ ../GD32E230_Firmware_Library/GD32E230_standard_peripheral/Source/gd32e230_timer.c:601:40
	ldrb	r0, [r0]
.Ltmp106:
	.loc	4 601 8 is_stmt 0       @ ../GD32E230_Firmware_Library/GD32E230_standard_peripheral/Source/gd32e230_timer.c:601:8
	cmp	r0, #8
	bne	.LBB29_2
	b	.LBB29_1
.LBB29_1:
.Ltmp107:
	.loc	4 602 9 is_stmt 1       @ ../GD32E230_Firmware_Library/GD32E230_standard_peripheral/Source/gd32e230_timer.c:602:9
	ldr	r0, [sp, #4]
	.loc	4 602 34 is_stmt 0      @ ../GD32E230_Firmware_Library/GD32E230_standard_peripheral/Source/gd32e230_timer.c:602:34
	ldr	r1, [r0, #4]
	movs	r2, #8
	orrs	r1, r2
	str	r1, [r0, #4]
	.loc	4 603 5 is_stmt 1       @ ../GD32E230_Firmware_Library/GD32E230_standard_peripheral/Source/gd32e230_timer.c:603:5
	b	.LBB29_6
.Ltmp108:
.LBB29_2:
	.loc	4 0 5 is_stmt 0         @ ../GD32E230_Firmware_Library/GD32E230_standard_peripheral/Source/gd32e230_timer.c:0:5
	mov	r0, sp
.Ltmp109:
	.loc	4 603 47                @ ../GD32E230_Firmware_Library/GD32E230_standard_peripheral/Source/gd32e230_timer.c:603:47
	ldrb	r0, [r0]
.Ltmp110:
	.loc	4 603 14                @ ../GD32E230_Firmware_Library/GD32E230_standard_peripheral/Source/gd32e230_timer.c:603:14
	cmp	r0, #0
	bne	.LBB29_4
	b	.LBB29_3
.LBB29_3:
.Ltmp111:
	.loc	4 604 9 is_stmt 1       @ ../GD32E230_Firmware_Library/GD32E230_standard_peripheral/Source/gd32e230_timer.c:604:9
	ldr	r0, [sp, #4]
	.loc	4 604 34 is_stmt 0      @ ../GD32E230_Firmware_Library/GD32E230_standard_peripheral/Source/gd32e230_timer.c:604:34
	ldr	r1, [r0, #4]
	movs	r2, #8
	bics	r1, r2
	str	r1, [r0, #4]
	.loc	4 605 5 is_stmt 1       @ ../GD32E230_Firmware_Library/GD32E230_standard_peripheral/Source/gd32e230_timer.c:605:5
	b	.LBB29_5
.Ltmp112:
.LBB29_4:
	.loc	4 0 5 is_stmt 0         @ ../GD32E230_Firmware_Library/GD32E230_standard_peripheral/Source/gd32e230_timer.c:0:5
	b	.LBB29_5
.LBB29_5:
	b	.LBB29_6
.LBB29_6:
	.loc	4 608 1 is_stmt 1       @ ../GD32E230_Firmware_Library/GD32E230_standard_peripheral/Source/gd32e230_timer.c:608:1
	add	sp, #8
	bx	lr
.Ltmp113:
.Lfunc_end29:
	.size	timer_channel_dma_request_source_select, .Lfunc_end29-timer_channel_dma_request_source_select
	.cfi_endproc
	.cantunwind
	.fnend
                                        @ -- End function
	.section	.text.timer_dma_transfer_config,"ax",%progbits
	.hidden	timer_dma_transfer_config @ -- Begin function timer_dma_transfer_config
	.globl	timer_dma_transfer_config
	.p2align	2
	.type	timer_dma_transfer_config,%function
	.code	16                      @ @timer_dma_transfer_config
	.thumb_func
timer_dma_transfer_config:
.Lfunc_begin30:
	.loc	4 641 0                 @ ../GD32E230_Firmware_Library/GD32E230_standard_peripheral/Source/gd32e230_timer.c:641:0
	.fnstart
	.cfi_startproc
@ %bb.0:
	.pad	#12
	sub	sp, #12
	.cfi_def_cfa_offset 12
	str	r0, [sp, #8]
	str	r1, [sp, #4]
	str	r2, [sp]
.Ltmp114:
	.loc	4 642 5 prologue_end    @ ../GD32E230_Firmware_Library/GD32E230_standard_peripheral/Source/gd32e230_timer.c:642:5
	ldr	r0, [sp, #8]
	.loc	4 642 32 is_stmt 0      @ ../GD32E230_Firmware_Library/GD32E230_standard_peripheral/Source/gd32e230_timer.c:642:32
	ldr	r1, [r0, #72]
	ldr	r2, __arm_cp.30_0
	ands	r1, r2
	str	r1, [r0, #72]
	.loc	4 643 46 is_stmt 1      @ ../GD32E230_Firmware_Library/GD32E230_standard_peripheral/Source/gd32e230_timer.c:643:46
	ldr	r0, [sp, #4]
	.loc	4 643 61 is_stmt 0      @ ../GD32E230_Firmware_Library/GD32E230_standard_peripheral/Source/gd32e230_timer.c:643:61
	ldr	r1, [sp]
	.loc	4 643 59                @ ../GD32E230_Firmware_Library/GD32E230_standard_peripheral/Source/gd32e230_timer.c:643:59
	orrs	r0, r1
	.loc	4 643 5                 @ ../GD32E230_Firmware_Library/GD32E230_standard_peripheral/Source/gd32e230_timer.c:643:5
	ldr	r1, [sp, #8]
	.loc	4 643 32                @ ../GD32E230_Firmware_Library/GD32E230_standard_peripheral/Source/gd32e230_timer.c:643:32
	ldr	r2, [r1, #72]
	orrs	r2, r0
	str	r2, [r1, #72]
	.loc	4 644 1 is_stmt 1       @ ../GD32E230_Firmware_Library/GD32E230_standard_peripheral/Source/gd32e230_timer.c:644:1
	add	sp, #12
	bx	lr
.Ltmp115:
	.p2align	2
@ %bb.1:
	.loc	4 0 1 is_stmt 0         @ ../GD32E230_Firmware_Library/GD32E230_standard_peripheral/Source/gd32e230_timer.c:0:1
__arm_cp.30_0:
	.long	4294959328              @ 0xffffe0e0
.Lcpi_end19:
	.size	__arm_cp.30_0, .Lcpi_end19-__arm_cp.30_0
.Lfunc_end30:
	.size	timer_dma_transfer_config, .Lfunc_end30-timer_dma_transfer_config
	.cfi_endproc
	.cantunwind
	.fnend
                                        @ -- End function
	.section	.text.timer_event_software_generate,"ax",%progbits
	.hidden	timer_event_software_generate @ -- Begin function timer_event_software_generate
	.globl	timer_event_software_generate
	.p2align	1
	.type	timer_event_software_generate,%function
	.code	16                      @ @timer_event_software_generate
	.thumb_func
timer_event_software_generate:
.Lfunc_begin31:
	.loc	4 663 0 is_stmt 1       @ ../GD32E230_Firmware_Library/GD32E230_standard_peripheral/Source/gd32e230_timer.c:663:0
	.fnstart
	.cfi_startproc
@ %bb.0:
	.pad	#8
	sub	sp, #8
	.cfi_def_cfa_offset 8
	mov	r2, r1
	str	r0, [sp, #4]
	mov	r0, sp
	strh	r1, [r0]
.Ltmp116:
	.loc	4 664 44 prologue_end   @ ../GD32E230_Firmware_Library/GD32E230_standard_peripheral/Source/gd32e230_timer.c:664:44
	ldrh	r0, [r0]
	.loc	4 664 5 is_stmt 0       @ ../GD32E230_Firmware_Library/GD32E230_standard_peripheral/Source/gd32e230_timer.c:664:5
	ldr	r1, [sp, #4]
	.loc	4 664 31                @ ../GD32E230_Firmware_Library/GD32E230_standard_peripheral/Source/gd32e230_timer.c:664:31
	ldr	r3, [r1, #20]
	orrs	r3, r0
	str	r3, [r1, #20]
	.loc	4 665 1 is_stmt 1       @ ../GD32E230_Firmware_Library/GD32E230_standard_peripheral/Source/gd32e230_timer.c:665:1
	add	sp, #8
	bx	lr
.Ltmp117:
.Lfunc_end31:
	.size	timer_event_software_generate, .Lfunc_end31-timer_event_software_generate
	.cfi_endproc
	.cantunwind
	.fnend
                                        @ -- End function
	.section	.text.timer_break_struct_para_init,"ax",%progbits
	.hidden	timer_break_struct_para_init @ -- Begin function timer_break_struct_para_init
	.globl	timer_break_struct_para_init
	.p2align	1
	.type	timer_break_struct_para_init,%function
	.code	16                      @ @timer_break_struct_para_init
	.thumb_func
timer_break_struct_para_init:
.Lfunc_begin32:
	.loc	4 674 0                 @ ../GD32E230_Firmware_Library/GD32E230_standard_peripheral/Source/gd32e230_timer.c:674:0
	.fnstart
	.cfi_startproc
@ %bb.0:
	.pad	#4
	sub	sp, #4
	.cfi_def_cfa_offset 4
	str	r0, [sp]
.Ltmp118:
	.loc	4 676 5 prologue_end    @ ../GD32E230_Firmware_Library/GD32E230_standard_peripheral/Source/gd32e230_timer.c:676:5
	ldr	r0, [sp]
	movs	r1, #0
	.loc	4 676 32 is_stmt 0      @ ../GD32E230_Firmware_Library/GD32E230_standard_peripheral/Source/gd32e230_timer.c:676:32
	strh	r1, [r0]
	.loc	4 677 5 is_stmt 1       @ ../GD32E230_Firmware_Library/GD32E230_standard_peripheral/Source/gd32e230_timer.c:677:5
	ldr	r0, [sp]
	.loc	4 677 32 is_stmt 0      @ ../GD32E230_Firmware_Library/GD32E230_standard_peripheral/Source/gd32e230_timer.c:677:32
	strh	r1, [r0, #2]
	.loc	4 678 5 is_stmt 1       @ ../GD32E230_Firmware_Library/GD32E230_standard_peripheral/Source/gd32e230_timer.c:678:5
	ldr	r0, [sp]
	.loc	4 678 32 is_stmt 0      @ ../GD32E230_Firmware_Library/GD32E230_standard_peripheral/Source/gd32e230_timer.c:678:32
	strh	r1, [r0, #4]
	.loc	4 679 5 is_stmt 1       @ ../GD32E230_Firmware_Library/GD32E230_standard_peripheral/Source/gd32e230_timer.c:679:5
	ldr	r0, [sp]
	.loc	4 679 32 is_stmt 0      @ ../GD32E230_Firmware_Library/GD32E230_standard_peripheral/Source/gd32e230_timer.c:679:32
	strh	r1, [r0, #6]
	.loc	4 680 5 is_stmt 1       @ ../GD32E230_Firmware_Library/GD32E230_standard_peripheral/Source/gd32e230_timer.c:680:5
	ldr	r0, [sp]
	.loc	4 680 32 is_stmt 0      @ ../GD32E230_Firmware_Library/GD32E230_standard_peripheral/Source/gd32e230_timer.c:680:32
	strh	r1, [r0, #8]
	.loc	4 681 5 is_stmt 1       @ ../GD32E230_Firmware_Library/GD32E230_standard_peripheral/Source/gd32e230_timer.c:681:5
	ldr	r0, [sp]
	.loc	4 681 32 is_stmt 0      @ ../GD32E230_Firmware_Library/GD32E230_standard_peripheral/Source/gd32e230_timer.c:681:32
	strh	r1, [r0, #10]
	.loc	4 682 5 is_stmt 1       @ ../GD32E230_Firmware_Library/GD32E230_standard_peripheral/Source/gd32e230_timer.c:682:5
	ldr	r0, [sp]
	.loc	4 682 32 is_stmt 0      @ ../GD32E230_Firmware_Library/GD32E230_standard_peripheral/Source/gd32e230_timer.c:682:32
	strh	r1, [r0, #12]
	.loc	4 683 1 is_stmt 1       @ ../GD32E230_Firmware_Library/GD32E230_standard_peripheral/Source/gd32e230_timer.c:683:1
	add	sp, #4
	bx	lr
.Ltmp119:
.Lfunc_end32:
	.size	timer_break_struct_para_init, .Lfunc_end32-timer_break_struct_para_init
	.cfi_endproc
	.cantunwind
	.fnend
                                        @ -- End function
	.section	.text.timer_break_config,"ax",%progbits
	.hidden	timer_break_config      @ -- Begin function timer_break_config
	.globl	timer_break_config
	.p2align	1
	.type	timer_break_config,%function
	.code	16                      @ @timer_break_config
	.thumb_func
timer_break_config:
.Lfunc_begin33:
	.loc	4 700 0                 @ ../GD32E230_Firmware_Library/GD32E230_standard_peripheral/Source/gd32e230_timer.c:700:0
	.fnstart
	.cfi_startproc
@ %bb.0:
	.pad	#8
	sub	sp, #8
	.cfi_def_cfa_offset 8
	str	r0, [sp, #4]
	str	r1, [sp]
.Ltmp120:
	.loc	4 701 55 prologue_end   @ ../GD32E230_Firmware_Library/GD32E230_standard_peripheral/Source/gd32e230_timer.c:701:55
	ldr	r0, [sp]
	.loc	4 701 66 is_stmt 0      @ ../GD32E230_Firmware_Library/GD32E230_standard_peripheral/Source/gd32e230_timer.c:701:66
	ldrh	r1, [r0]
	.loc	4 702 66 is_stmt 1      @ ../GD32E230_Firmware_Library/GD32E230_standard_peripheral/Source/gd32e230_timer.c:702:66
	ldrh	r2, [r0, #2]
	.loc	4 701 79                @ ../GD32E230_Firmware_Library/GD32E230_standard_peripheral/Source/gd32e230_timer.c:701:79
	orrs	r1, r2
	.loc	4 703 66                @ ../GD32E230_Firmware_Library/GD32E230_standard_peripheral/Source/gd32e230_timer.c:703:66
	ldrh	r2, [r0, #4]
	.loc	4 702 80                @ ../GD32E230_Firmware_Library/GD32E230_standard_peripheral/Source/gd32e230_timer.c:702:80
	orrs	r1, r2
	.loc	4 704 66                @ ../GD32E230_Firmware_Library/GD32E230_standard_peripheral/Source/gd32e230_timer.c:704:66
	ldrh	r2, [r0, #6]
	.loc	4 703 76                @ ../GD32E230_Firmware_Library/GD32E230_standard_peripheral/Source/gd32e230_timer.c:703:76
	orrs	r1, r2
	.loc	4 705 66                @ ../GD32E230_Firmware_Library/GD32E230_standard_peripheral/Source/gd32e230_timer.c:705:66
	ldrh	r2, [r0, #8]
	.loc	4 704 81                @ ../GD32E230_Firmware_Library/GD32E230_standard_peripheral/Source/gd32e230_timer.c:704:81
	orrs	r1, r2
	.loc	4 706 66                @ ../GD32E230_Firmware_Library/GD32E230_standard_peripheral/Source/gd32e230_timer.c:706:66
	ldrh	r2, [r0, #10]
	.loc	4 705 84                @ ../GD32E230_Firmware_Library/GD32E230_standard_peripheral/Source/gd32e230_timer.c:705:84
	orrs	r1, r2
	.loc	4 707 66                @ ../GD32E230_Firmware_Library/GD32E230_standard_peripheral/Source/gd32e230_timer.c:707:66
	ldrh	r0, [r0, #12]
	.loc	4 706 79                @ ../GD32E230_Firmware_Library/GD32E230_standard_peripheral/Source/gd32e230_timer.c:706:79
	orrs	r1, r0
	.loc	4 701 5                 @ ../GD32E230_Firmware_Library/GD32E230_standard_peripheral/Source/gd32e230_timer.c:701:5
	ldr	r0, [sp, #4]
	.loc	4 701 30 is_stmt 0      @ ../GD32E230_Firmware_Library/GD32E230_standard_peripheral/Source/gd32e230_timer.c:701:30
	str	r1, [r0, #68]
	.loc	4 708 1 is_stmt 1       @ ../GD32E230_Firmware_Library/GD32E230_standard_peripheral/Source/gd32e230_timer.c:708:1
	add	sp, #8
	bx	lr
.Ltmp121:
.Lfunc_end33:
	.size	timer_break_config, .Lfunc_end33-timer_break_config
	.cfi_endproc
	.cantunwind
	.fnend
                                        @ -- End function
	.section	.text.timer_break_enable,"ax",%progbits
	.hidden	timer_break_enable      @ -- Begin function timer_break_enable
	.globl	timer_break_enable
	.p2align	1
	.type	timer_break_enable,%function
	.code	16                      @ @timer_break_enable
	.thumb_func
timer_break_enable:
.Lfunc_begin34:
	.loc	4 717 0                 @ ../GD32E230_Firmware_Library/GD32E230_standard_peripheral/Source/gd32e230_timer.c:717:0
	.fnstart
	.cfi_startproc
@ %bb.0:
	.pad	#4
	sub	sp, #4
	.cfi_def_cfa_offset 4
	str	r0, [sp]
.Ltmp122:
	.loc	4 718 5 prologue_end    @ ../GD32E230_Firmware_Library/GD32E230_standard_peripheral/Source/gd32e230_timer.c:718:5
	ldr	r0, [sp]
	.loc	4 718 30 is_stmt 0      @ ../GD32E230_Firmware_Library/GD32E230_standard_peripheral/Source/gd32e230_timer.c:718:30
	ldr	r1, [r0, #68]
	movw	r2, #4096
	orrs	r1, r2
	str	r1, [r0, #68]
	.loc	4 719 1 is_stmt 1       @ ../GD32E230_Firmware_Library/GD32E230_standard_peripheral/Source/gd32e230_timer.c:719:1
	add	sp, #4
	bx	lr
.Ltmp123:
.Lfunc_end34:
	.size	timer_break_enable, .Lfunc_end34-timer_break_enable
	.cfi_endproc
	.cantunwind
	.fnend
                                        @ -- End function
	.section	.text.timer_break_disable,"ax",%progbits
	.hidden	timer_break_disable     @ -- Begin function timer_break_disable
	.globl	timer_break_disable
	.p2align	1
	.type	timer_break_disable,%function
	.code	16                      @ @timer_break_disable
	.thumb_func
timer_break_disable:
.Lfunc_begin35:
	.loc	4 728 0                 @ ../GD32E230_Firmware_Library/GD32E230_standard_peripheral/Source/gd32e230_timer.c:728:0
	.fnstart
	.cfi_startproc
@ %bb.0:
	.pad	#4
	sub	sp, #4
	.cfi_def_cfa_offset 4
	str	r0, [sp]
.Ltmp124:
	.loc	4 729 5 prologue_end    @ ../GD32E230_Firmware_Library/GD32E230_standard_peripheral/Source/gd32e230_timer.c:729:5
	ldr	r0, [sp]
	.loc	4 729 30 is_stmt 0      @ ../GD32E230_Firmware_Library/GD32E230_standard_peripheral/Source/gd32e230_timer.c:729:30
	ldr	r1, [r0, #68]
	movw	r2, #4096
	bics	r1, r2
	str	r1, [r0, #68]
	.loc	4 730 1 is_stmt 1       @ ../GD32E230_Firmware_Library/GD32E230_standard_peripheral/Source/gd32e230_timer.c:730:1
	add	sp, #4
	bx	lr
.Ltmp125:
.Lfunc_end35:
	.size	timer_break_disable, .Lfunc_end35-timer_break_disable
	.cfi_endproc
	.cantunwind
	.fnend
                                        @ -- End function
	.section	.text.timer_automatic_output_enable,"ax",%progbits
	.hidden	timer_automatic_output_enable @ -- Begin function timer_automatic_output_enable
	.globl	timer_automatic_output_enable
	.p2align	1
	.type	timer_automatic_output_enable,%function
	.code	16                      @ @timer_automatic_output_enable
	.thumb_func
timer_automatic_output_enable:
.Lfunc_begin36:
	.loc	4 739 0                 @ ../GD32E230_Firmware_Library/GD32E230_standard_peripheral/Source/gd32e230_timer.c:739:0
	.fnstart
	.cfi_startproc
@ %bb.0:
	.pad	#4
	sub	sp, #4
	.cfi_def_cfa_offset 4
	str	r0, [sp]
.Ltmp126:
	.loc	4 740 5 prologue_end    @ ../GD32E230_Firmware_Library/GD32E230_standard_peripheral/Source/gd32e230_timer.c:740:5
	ldr	r0, [sp]
	.loc	4 740 30 is_stmt 0      @ ../GD32E230_Firmware_Library/GD32E230_standard_peripheral/Source/gd32e230_timer.c:740:30
	ldr	r1, [r0, #68]
	movw	r2, #16384
	orrs	r1, r2
	str	r1, [r0, #68]
	.loc	4 741 1 is_stmt 1       @ ../GD32E230_Firmware_Library/GD32E230_standard_peripheral/Source/gd32e230_timer.c:741:1
	add	sp, #4
	bx	lr
.Ltmp127:
.Lfunc_end36:
	.size	timer_automatic_output_enable, .Lfunc_end36-timer_automatic_output_enable
	.cfi_endproc
	.cantunwind
	.fnend
                                        @ -- End function
	.section	.text.timer_automatic_output_disable,"ax",%progbits
	.hidden	timer_automatic_output_disable @ -- Begin function timer_automatic_output_disable
	.globl	timer_automatic_output_disable
	.p2align	1
	.type	timer_automatic_output_disable,%function
	.code	16                      @ @timer_automatic_output_disable
	.thumb_func
timer_automatic_output_disable:
.Lfunc_begin37:
	.loc	4 750 0                 @ ../GD32E230_Firmware_Library/GD32E230_standard_peripheral/Source/gd32e230_timer.c:750:0
	.fnstart
	.cfi_startproc
@ %bb.0:
	.pad	#4
	sub	sp, #4
	.cfi_def_cfa_offset 4
	str	r0, [sp]
.Ltmp128:
	.loc	4 751 5 prologue_end    @ ../GD32E230_Firmware_Library/GD32E230_standard_peripheral/Source/gd32e230_timer.c:751:5
	ldr	r0, [sp]
	.loc	4 751 30 is_stmt 0      @ ../GD32E230_Firmware_Library/GD32E230_standard_peripheral/Source/gd32e230_timer.c:751:30
	ldr	r1, [r0, #68]
	movw	r2, #16384
	bics	r1, r2
	str	r1, [r0, #68]
	.loc	4 752 1 is_stmt 1       @ ../GD32E230_Firmware_Library/GD32E230_standard_peripheral/Source/gd32e230_timer.c:752:1
	add	sp, #4
	bx	lr
.Ltmp129:
.Lfunc_end37:
	.size	timer_automatic_output_disable, .Lfunc_end37-timer_automatic_output_disable
	.cfi_endproc
	.cantunwind
	.fnend
                                        @ -- End function
	.section	.text.timer_primary_output_config,"ax",%progbits
	.hidden	timer_primary_output_config @ -- Begin function timer_primary_output_config
	.globl	timer_primary_output_config
	.p2align	1
	.type	timer_primary_output_config,%function
	.code	16                      @ @timer_primary_output_config
	.thumb_func
timer_primary_output_config:
.Lfunc_begin38:
	.loc	4 762 0                 @ ../GD32E230_Firmware_Library/GD32E230_standard_peripheral/Source/gd32e230_timer.c:762:0
	.fnstart
	.cfi_startproc
@ %bb.0:
	.pad	#8
	sub	sp, #8
	.cfi_def_cfa_offset 8
	mov	r2, r1
	str	r0, [sp, #4]
	mov	r0, sp
	strb	r1, [r0]
.Ltmp130:
	.loc	4 763 18 prologue_end   @ ../GD32E230_Firmware_Library/GD32E230_standard_peripheral/Source/gd32e230_timer.c:763:18
	ldrb	r0, [r0]
.Ltmp131:
	.loc	4 763 8 is_stmt 0       @ ../GD32E230_Firmware_Library/GD32E230_standard_peripheral/Source/gd32e230_timer.c:763:8
	cmp	r0, #1
	bne	.LBB38_2
	b	.LBB38_1
.LBB38_1:
.Ltmp132:
	.loc	4 764 9 is_stmt 1       @ ../GD32E230_Firmware_Library/GD32E230_standard_peripheral/Source/gd32e230_timer.c:764:9
	ldr	r0, [sp, #4]
	.loc	4 764 34 is_stmt 0      @ ../GD32E230_Firmware_Library/GD32E230_standard_peripheral/Source/gd32e230_timer.c:764:34
	ldr	r1, [r0, #68]
	movw	r2, #32768
	orrs	r1, r2
	str	r1, [r0, #68]
	.loc	4 765 5 is_stmt 1       @ ../GD32E230_Firmware_Library/GD32E230_standard_peripheral/Source/gd32e230_timer.c:765:5
	b	.LBB38_3
.Ltmp133:
.LBB38_2:
	.loc	4 766 9                 @ ../GD32E230_Firmware_Library/GD32E230_standard_peripheral/Source/gd32e230_timer.c:766:9
	ldr	r0, [sp, #4]
	.loc	4 766 34 is_stmt 0      @ ../GD32E230_Firmware_Library/GD32E230_standard_peripheral/Source/gd32e230_timer.c:766:34
	ldr	r1, [r0, #68]
	movw	r2, #32768
	bics	r1, r2
	str	r1, [r0, #68]
	b	.LBB38_3
.Ltmp134:
.LBB38_3:
	.loc	4 768 1 is_stmt 1       @ ../GD32E230_Firmware_Library/GD32E230_standard_peripheral/Source/gd32e230_timer.c:768:1
	add	sp, #8
	bx	lr
.Ltmp135:
.Lfunc_end38:
	.size	timer_primary_output_config, .Lfunc_end38-timer_primary_output_config
	.cfi_endproc
	.cantunwind
	.fnend
                                        @ -- End function
	.section	.text.timer_channel_control_shadow_config,"ax",%progbits
	.hidden	timer_channel_control_shadow_config @ -- Begin function timer_channel_control_shadow_config
	.globl	timer_channel_control_shadow_config
	.p2align	1
	.type	timer_channel_control_shadow_config,%function
	.code	16                      @ @timer_channel_control_shadow_config
	.thumb_func
timer_channel_control_shadow_config:
.Lfunc_begin39:
	.loc	4 778 0                 @ ../GD32E230_Firmware_Library/GD32E230_standard_peripheral/Source/gd32e230_timer.c:778:0
	.fnstart
	.cfi_startproc
@ %bb.0:
	.pad	#8
	sub	sp, #8
	.cfi_def_cfa_offset 8
	mov	r2, r1
	str	r0, [sp, #4]
	mov	r0, sp
	strb	r1, [r0]
.Ltmp136:
	.loc	4 779 19 prologue_end   @ ../GD32E230_Firmware_Library/GD32E230_standard_peripheral/Source/gd32e230_timer.c:779:19
	ldrb	r0, [r0]
.Ltmp137:
	.loc	4 779 9 is_stmt 0       @ ../GD32E230_Firmware_Library/GD32E230_standard_peripheral/Source/gd32e230_timer.c:779:9
	cmp	r0, #1
	bne	.LBB39_2
	b	.LBB39_1
.LBB39_1:
.Ltmp138:
	.loc	4 780 9 is_stmt 1       @ ../GD32E230_Firmware_Library/GD32E230_standard_peripheral/Source/gd32e230_timer.c:780:9
	ldr	r0, [sp, #4]
	.loc	4 780 34 is_stmt 0      @ ../GD32E230_Firmware_Library/GD32E230_standard_peripheral/Source/gd32e230_timer.c:780:34
	ldr	r1, [r0, #4]
	movs	r2, #1
	orrs	r1, r2
	str	r1, [r0, #4]
	.loc	4 781 5 is_stmt 1       @ ../GD32E230_Firmware_Library/GD32E230_standard_peripheral/Source/gd32e230_timer.c:781:5
	b	.LBB39_3
.Ltmp139:
.LBB39_2:
	.loc	4 782 9                 @ ../GD32E230_Firmware_Library/GD32E230_standard_peripheral/Source/gd32e230_timer.c:782:9
	ldr	r0, [sp, #4]
	.loc	4 782 34 is_stmt 0      @ ../GD32E230_Firmware_Library/GD32E230_standard_peripheral/Source/gd32e230_timer.c:782:34
	ldr	r1, [r0, #4]
	movs	r2, #1
	bics	r1, r2
	str	r1, [r0, #4]
	b	.LBB39_3
.Ltmp140:
.LBB39_3:
	.loc	4 784 1 is_stmt 1       @ ../GD32E230_Firmware_Library/GD32E230_standard_peripheral/Source/gd32e230_timer.c:784:1
	add	sp, #8
	bx	lr
.Ltmp141:
.Lfunc_end39:
	.size	timer_channel_control_shadow_config, .Lfunc_end39-timer_channel_control_shadow_config
	.cfi_endproc
	.cantunwind
	.fnend
                                        @ -- End function
	.section	.text.timer_channel_control_shadow_update_config,"ax",%progbits
	.hidden	timer_channel_control_shadow_update_config @ -- Begin function timer_channel_control_shadow_update_config
	.globl	timer_channel_control_shadow_update_config
	.p2align	1
	.type	timer_channel_control_shadow_update_config,%function
	.code	16                      @ @timer_channel_control_shadow_update_config
	.thumb_func
timer_channel_control_shadow_update_config:
.Lfunc_begin40:
	.loc	4 797 0                 @ ../GD32E230_Firmware_Library/GD32E230_standard_peripheral/Source/gd32e230_timer.c:797:0
	.fnstart
	.cfi_startproc
@ %bb.0:
	.pad	#8
	sub	sp, #8
	.cfi_def_cfa_offset 8
	mov	r2, r1
	str	r0, [sp, #4]
	mov	r0, sp
	strb	r1, [r0]
.Ltmp142:
	.loc	4 798 31 prologue_end   @ ../GD32E230_Firmware_Library/GD32E230_standard_peripheral/Source/gd32e230_timer.c:798:31
	ldrb	r0, [r0]
.Ltmp143:
	.loc	4 798 8 is_stmt 0       @ ../GD32E230_Firmware_Library/GD32E230_standard_peripheral/Source/gd32e230_timer.c:798:8
	cmp	r0, #0
	bne	.LBB40_2
	b	.LBB40_1
.LBB40_1:
.Ltmp144:
	.loc	4 799 9 is_stmt 1       @ ../GD32E230_Firmware_Library/GD32E230_standard_peripheral/Source/gd32e230_timer.c:799:9
	ldr	r0, [sp, #4]
	.loc	4 799 34 is_stmt 0      @ ../GD32E230_Firmware_Library/GD32E230_standard_peripheral/Source/gd32e230_timer.c:799:34
	ldr	r1, [r0, #4]
	movs	r2, #4
	bics	r1, r2
	str	r1, [r0, #4]
	.loc	4 800 5 is_stmt 1       @ ../GD32E230_Firmware_Library/GD32E230_standard_peripheral/Source/gd32e230_timer.c:800:5
	b	.LBB40_6
.Ltmp145:
.LBB40_2:
	.loc	4 0 5 is_stmt 0         @ ../GD32E230_Firmware_Library/GD32E230_standard_peripheral/Source/gd32e230_timer.c:0:5
	mov	r0, sp
.Ltmp146:
	.loc	4 800 40                @ ../GD32E230_Firmware_Library/GD32E230_standard_peripheral/Source/gd32e230_timer.c:800:40
	ldrb	r0, [r0]
.Ltmp147:
	.loc	4 800 14                @ ../GD32E230_Firmware_Library/GD32E230_standard_peripheral/Source/gd32e230_timer.c:800:14
	cmp	r0, #4
	bne	.LBB40_4
	b	.LBB40_3
.LBB40_3:
.Ltmp148:
	.loc	4 801 9 is_stmt 1       @ ../GD32E230_Firmware_Library/GD32E230_standard_peripheral/Source/gd32e230_timer.c:801:9
	ldr	r0, [sp, #4]
	.loc	4 801 34 is_stmt 0      @ ../GD32E230_Firmware_Library/GD32E230_standard_peripheral/Source/gd32e230_timer.c:801:34
	ldr	r1, [r0, #4]
	movs	r2, #4
	orrs	r1, r2
	str	r1, [r0, #4]
	.loc	4 802 5 is_stmt 1       @ ../GD32E230_Firmware_Library/GD32E230_standard_peripheral/Source/gd32e230_timer.c:802:5
	b	.LBB40_5
.Ltmp149:
.LBB40_4:
	.loc	4 0 5 is_stmt 0         @ ../GD32E230_Firmware_Library/GD32E230_standard_peripheral/Source/gd32e230_timer.c:0:5
	b	.LBB40_5
.LBB40_5:
	b	.LBB40_6
.LBB40_6:
	.loc	4 805 1 is_stmt 1       @ ../GD32E230_Firmware_Library/GD32E230_standard_peripheral/Source/gd32e230_timer.c:805:1
	add	sp, #8
	bx	lr
.Ltmp150:
.Lfunc_end40:
	.size	timer_channel_control_shadow_update_config, .Lfunc_end40-timer_channel_control_shadow_update_config
	.cfi_endproc
	.cantunwind
	.fnend
                                        @ -- End function
	.section	.text.timer_channel_output_struct_para_init,"ax",%progbits
	.hidden	timer_channel_output_struct_para_init @ -- Begin function timer_channel_output_struct_para_init
	.globl	timer_channel_output_struct_para_init
	.p2align	1
	.type	timer_channel_output_struct_para_init,%function
	.code	16                      @ @timer_channel_output_struct_para_init
	.thumb_func
timer_channel_output_struct_para_init:
.Lfunc_begin41:
	.loc	4 814 0                 @ ../GD32E230_Firmware_Library/GD32E230_standard_peripheral/Source/gd32e230_timer.c:814:0
	.fnstart
	.cfi_startproc
@ %bb.0:
	.pad	#4
	sub	sp, #4
	.cfi_def_cfa_offset 4
	str	r0, [sp]
.Ltmp151:
	.loc	4 816 5 prologue_end    @ ../GD32E230_Firmware_Library/GD32E230_standard_peripheral/Source/gd32e230_timer.c:816:5
	ldr	r0, [sp]
	movs	r1, #0
	.loc	4 816 26 is_stmt 0      @ ../GD32E230_Firmware_Library/GD32E230_standard_peripheral/Source/gd32e230_timer.c:816:26
	strh	r1, [r0]
	.loc	4 817 5 is_stmt 1       @ ../GD32E230_Firmware_Library/GD32E230_standard_peripheral/Source/gd32e230_timer.c:817:5
	ldr	r0, [sp]
	.loc	4 817 26 is_stmt 0      @ ../GD32E230_Firmware_Library/GD32E230_standard_peripheral/Source/gd32e230_timer.c:817:26
	strh	r1, [r0, #2]
	.loc	4 818 5 is_stmt 1       @ ../GD32E230_Firmware_Library/GD32E230_standard_peripheral/Source/gd32e230_timer.c:818:5
	ldr	r0, [sp]
	.loc	4 818 26 is_stmt 0      @ ../GD32E230_Firmware_Library/GD32E230_standard_peripheral/Source/gd32e230_timer.c:818:26
	strh	r1, [r0, #4]
	.loc	4 819 5 is_stmt 1       @ ../GD32E230_Firmware_Library/GD32E230_standard_peripheral/Source/gd32e230_timer.c:819:5
	ldr	r0, [sp]
	.loc	4 819 26 is_stmt 0      @ ../GD32E230_Firmware_Library/GD32E230_standard_peripheral/Source/gd32e230_timer.c:819:26
	strh	r1, [r0, #6]
	.loc	4 820 5 is_stmt 1       @ ../GD32E230_Firmware_Library/GD32E230_standard_peripheral/Source/gd32e230_timer.c:820:5
	ldr	r0, [sp]
	.loc	4 820 26 is_stmt 0      @ ../GD32E230_Firmware_Library/GD32E230_standard_peripheral/Source/gd32e230_timer.c:820:26
	strh	r1, [r0, #8]
	.loc	4 821 5 is_stmt 1       @ ../GD32E230_Firmware_Library/GD32E230_standard_peripheral/Source/gd32e230_timer.c:821:5
	ldr	r0, [sp]
	.loc	4 821 26 is_stmt 0      @ ../GD32E230_Firmware_Library/GD32E230_standard_peripheral/Source/gd32e230_timer.c:821:26
	strh	r1, [r0, #10]
	.loc	4 822 1 is_stmt 1       @ ../GD32E230_Firmware_Library/GD32E230_standard_peripheral/Source/gd32e230_timer.c:822:1
	add	sp, #4
	bx	lr
.Ltmp152:
.Lfunc_end41:
	.size	timer_channel_output_struct_para_init, .Lfunc_end41-timer_channel_output_struct_para_init
	.cfi_endproc
	.cantunwind
	.fnend
                                        @ -- End function
	.section	.text.timer_channel_output_config,"ax",%progbits
	.hidden	timer_channel_output_config @ -- Begin function timer_channel_output_config
	.globl	timer_channel_output_config
	.p2align	2
	.type	timer_channel_output_config,%function
	.code	16                      @ @timer_channel_output_config
	.thumb_func
timer_channel_output_config:
.Lfunc_begin42:
	.loc	4 844 0                 @ ../GD32E230_Firmware_Library/GD32E230_standard_peripheral/Source/gd32e230_timer.c:844:0
	.fnstart
	.cfi_startproc
@ %bb.0:
	.pad	#16
	sub	sp, #16
	.cfi_def_cfa_offset 16
	mov	r3, r1
	str	r0, [sp, #12]
	add	r0, sp, #8
	strh	r1, [r0]
	str	r2, [sp, #4]
.Ltmp153:
	.loc	4 845 12 prologue_end   @ ../GD32E230_Firmware_Library/GD32E230_standard_peripheral/Source/gd32e230_timer.c:845:12
	ldrh	r0, [r0]
	.loc	4 845 5 is_stmt 0       @ ../GD32E230_Firmware_Library/GD32E230_standard_peripheral/Source/gd32e230_timer.c:845:5
	cmp	r0, #3
	str	r0, [sp]                @ 4-byte Spill
	bls	.LBB42_1
	b	.LBB42_20
.LBB42_1:
	.loc	4 0 5                   @ ../GD32E230_Firmware_Library/GD32E230_standard_peripheral/Source/gd32e230_timer.c:0:5
	ldr	r0, [sp]                @ 4-byte Reload
	lsls	r1, r0, #2
	adr	r2, .LJTI42_0
	adds	r1, r2, r1
	mov	pc, r1
@ %bb.2:
	.p2align	2
.LJTI42_0:
	b.w	.LBB42_3
	b.w	.LBB42_9
	b.w	.LBB42_14
	b.w	.LBB42_17
.LBB42_3:
.Ltmp154:
	.loc	4 849 9 is_stmt 1       @ ../GD32E230_Firmware_Library/GD32E230_standard_peripheral/Source/gd32e230_timer.c:849:9
	ldr	r0, [sp, #12]
	.loc	4 849 36 is_stmt 0      @ ../GD32E230_Firmware_Library/GD32E230_standard_peripheral/Source/gd32e230_timer.c:849:36
	ldr	r1, [r0, #32]
	movs	r2, #1
	bics	r1, r2
	str	r1, [r0, #32]
	.loc	4 850 9 is_stmt 1       @ ../GD32E230_Firmware_Library/GD32E230_standard_peripheral/Source/gd32e230_timer.c:850:9
	ldr	r0, [sp, #12]
	.loc	4 850 36 is_stmt 0      @ ../GD32E230_Firmware_Library/GD32E230_standard_peripheral/Source/gd32e230_timer.c:850:36
	ldr	r1, [r0, #24]
	movs	r2, #3
	bics	r1, r2
	str	r1, [r0, #24]
	.loc	4 852 49 is_stmt 1      @ ../GD32E230_Firmware_Library/GD32E230_standard_peripheral/Source/gd32e230_timer.c:852:49
	ldr	r0, [sp, #4]
	.loc	4 852 57 is_stmt 0      @ ../GD32E230_Firmware_Library/GD32E230_standard_peripheral/Source/gd32e230_timer.c:852:57
	ldrh	r0, [r0]
	.loc	4 852 9                 @ ../GD32E230_Firmware_Library/GD32E230_standard_peripheral/Source/gd32e230_timer.c:852:9
	ldr	r1, [sp, #12]
	.loc	4 852 36                @ ../GD32E230_Firmware_Library/GD32E230_standard_peripheral/Source/gd32e230_timer.c:852:36
	ldr	r2, [r1, #32]
	orrs	r2, r0
	str	r2, [r1, #32]
	.loc	4 854 9 is_stmt 1       @ ../GD32E230_Firmware_Library/GD32E230_standard_peripheral/Source/gd32e230_timer.c:854:9
	ldr	r0, [sp, #12]
	.loc	4 854 36 is_stmt 0      @ ../GD32E230_Firmware_Library/GD32E230_standard_peripheral/Source/gd32e230_timer.c:854:36
	ldr	r1, [r0, #32]
	movs	r2, #2
	bics	r1, r2
	str	r1, [r0, #32]
	.loc	4 856 49 is_stmt 1      @ ../GD32E230_Firmware_Library/GD32E230_standard_peripheral/Source/gd32e230_timer.c:856:49
	ldr	r0, [sp, #4]
	.loc	4 856 57 is_stmt 0      @ ../GD32E230_Firmware_Library/GD32E230_standard_peripheral/Source/gd32e230_timer.c:856:57
	ldrh	r0, [r0, #4]
	.loc	4 856 9                 @ ../GD32E230_Firmware_Library/GD32E230_standard_peripheral/Source/gd32e230_timer.c:856:9
	ldr	r1, [sp, #12]
	.loc	4 856 36                @ ../GD32E230_Firmware_Library/GD32E230_standard_peripheral/Source/gd32e230_timer.c:856:36
	ldr	r2, [r1, #32]
	orrs	r2, r0
	str	r2, [r1, #32]
.Ltmp155:
	.loc	4 858 23 is_stmt 1      @ ../GD32E230_Firmware_Library/GD32E230_standard_peripheral/Source/gd32e230_timer.c:858:23
	ldr	r0, [sp, #12]
	ldr	r1, __arm_cp.42_0
	.loc	4 858 37 is_stmt 0      @ ../GD32E230_Firmware_Library/GD32E230_standard_peripheral/Source/gd32e230_timer.c:858:37
	cmp	r0, r1
	beq	.LBB42_7
	b	.LBB42_4
.LBB42_4:
	.loc	4 858 52                @ ../GD32E230_Firmware_Library/GD32E230_standard_peripheral/Source/gd32e230_timer.c:858:52
	ldr	r0, [sp, #12]
	ldr	r1, __arm_cp.42_1
	.loc	4 858 66                @ ../GD32E230_Firmware_Library/GD32E230_standard_peripheral/Source/gd32e230_timer.c:858:66
	cmp	r0, r1
	beq	.LBB42_7
	b	.LBB42_5
.LBB42_5:
	.loc	4 858 81                @ ../GD32E230_Firmware_Library/GD32E230_standard_peripheral/Source/gd32e230_timer.c:858:81
	ldr	r0, [sp, #12]
	ldr	r1, __arm_cp.42_2
	.loc	4 858 95                @ ../GD32E230_Firmware_Library/GD32E230_standard_peripheral/Source/gd32e230_timer.c:858:95
	cmp	r0, r1
	beq	.LBB42_7
	b	.LBB42_6
.LBB42_6:
	.loc	4 858 110               @ ../GD32E230_Firmware_Library/GD32E230_standard_peripheral/Source/gd32e230_timer.c:858:110
	ldr	r0, [sp, #12]
	ldr	r1, __arm_cp.42_3
.Ltmp156:
	.loc	4 858 12                @ ../GD32E230_Firmware_Library/GD32E230_standard_peripheral/Source/gd32e230_timer.c:858:12
	cmp	r0, r1
	bne	.LBB42_8
	b	.LBB42_7
.LBB42_7:
.Ltmp157:
	.loc	4 860 13 is_stmt 1      @ ../GD32E230_Firmware_Library/GD32E230_standard_peripheral/Source/gd32e230_timer.c:860:13
	ldr	r0, [sp, #12]
	.loc	4 860 40 is_stmt 0      @ ../GD32E230_Firmware_Library/GD32E230_standard_peripheral/Source/gd32e230_timer.c:860:40
	ldr	r1, [r0, #32]
	movs	r2, #4
	bics	r1, r2
	str	r1, [r0, #32]
	.loc	4 862 53 is_stmt 1      @ ../GD32E230_Firmware_Library/GD32E230_standard_peripheral/Source/gd32e230_timer.c:862:53
	ldr	r0, [sp, #4]
	.loc	4 862 61 is_stmt 0      @ ../GD32E230_Firmware_Library/GD32E230_standard_peripheral/Source/gd32e230_timer.c:862:61
	ldrh	r0, [r0, #2]
	.loc	4 862 13                @ ../GD32E230_Firmware_Library/GD32E230_standard_peripheral/Source/gd32e230_timer.c:862:13
	ldr	r1, [sp, #12]
	.loc	4 862 40                @ ../GD32E230_Firmware_Library/GD32E230_standard_peripheral/Source/gd32e230_timer.c:862:40
	ldr	r2, [r1, #32]
	orrs	r2, r0
	str	r2, [r1, #32]
	.loc	4 864 13 is_stmt 1      @ ../GD32E230_Firmware_Library/GD32E230_standard_peripheral/Source/gd32e230_timer.c:864:13
	ldr	r0, [sp, #12]
	.loc	4 864 40 is_stmt 0      @ ../GD32E230_Firmware_Library/GD32E230_standard_peripheral/Source/gd32e230_timer.c:864:40
	ldr	r1, [r0, #32]
	movs	r2, #8
	bics	r1, r2
	str	r1, [r0, #32]
	.loc	4 866 53 is_stmt 1      @ ../GD32E230_Firmware_Library/GD32E230_standard_peripheral/Source/gd32e230_timer.c:866:53
	ldr	r0, [sp, #4]
	.loc	4 866 61 is_stmt 0      @ ../GD32E230_Firmware_Library/GD32E230_standard_peripheral/Source/gd32e230_timer.c:866:61
	ldrh	r0, [r0, #6]
	.loc	4 866 13                @ ../GD32E230_Firmware_Library/GD32E230_standard_peripheral/Source/gd32e230_timer.c:866:13
	ldr	r1, [sp, #12]
	.loc	4 866 40                @ ../GD32E230_Firmware_Library/GD32E230_standard_peripheral/Source/gd32e230_timer.c:866:40
	ldr	r2, [r1, #32]
	orrs	r2, r0
	str	r2, [r1, #32]
	.loc	4 868 13 is_stmt 1      @ ../GD32E230_Firmware_Library/GD32E230_standard_peripheral/Source/gd32e230_timer.c:868:13
	ldr	r0, [sp, #12]
	.loc	4 868 38 is_stmt 0      @ ../GD32E230_Firmware_Library/GD32E230_standard_peripheral/Source/gd32e230_timer.c:868:38
	ldr	r1, [r0, #4]
	movw	r2, #256
	bics	r1, r2
	str	r1, [r0, #4]
	.loc	4 870 51 is_stmt 1      @ ../GD32E230_Firmware_Library/GD32E230_standard_peripheral/Source/gd32e230_timer.c:870:51
	ldr	r0, [sp, #4]
	.loc	4 870 59 is_stmt 0      @ ../GD32E230_Firmware_Library/GD32E230_standard_peripheral/Source/gd32e230_timer.c:870:59
	ldrh	r0, [r0, #8]
	.loc	4 870 13                @ ../GD32E230_Firmware_Library/GD32E230_standard_peripheral/Source/gd32e230_timer.c:870:13
	ldr	r1, [sp, #12]
	.loc	4 870 38                @ ../GD32E230_Firmware_Library/GD32E230_standard_peripheral/Source/gd32e230_timer.c:870:38
	ldr	r2, [r1, #4]
	orrs	r2, r0
	str	r2, [r1, #4]
	.loc	4 872 13 is_stmt 1      @ ../GD32E230_Firmware_Library/GD32E230_standard_peripheral/Source/gd32e230_timer.c:872:13
	ldr	r0, [sp, #12]
	.loc	4 872 38 is_stmt 0      @ ../GD32E230_Firmware_Library/GD32E230_standard_peripheral/Source/gd32e230_timer.c:872:38
	ldr	r1, [r0, #4]
	movw	r2, #512
	bics	r1, r2
	str	r1, [r0, #4]
	.loc	4 874 51 is_stmt 1      @ ../GD32E230_Firmware_Library/GD32E230_standard_peripheral/Source/gd32e230_timer.c:874:51
	ldr	r0, [sp, #4]
	.loc	4 874 59 is_stmt 0      @ ../GD32E230_Firmware_Library/GD32E230_standard_peripheral/Source/gd32e230_timer.c:874:59
	ldrh	r0, [r0, #10]
	.loc	4 874 13                @ ../GD32E230_Firmware_Library/GD32E230_standard_peripheral/Source/gd32e230_timer.c:874:13
	ldr	r1, [sp, #12]
	.loc	4 874 38                @ ../GD32E230_Firmware_Library/GD32E230_standard_peripheral/Source/gd32e230_timer.c:874:38
	ldr	r2, [r1, #4]
	orrs	r2, r0
	str	r2, [r1, #4]
	.loc	4 875 9 is_stmt 1       @ ../GD32E230_Firmware_Library/GD32E230_standard_peripheral/Source/gd32e230_timer.c:875:9
	b	.LBB42_8
.Ltmp158:
.LBB42_8:
	.loc	4 876 9                 @ ../GD32E230_Firmware_Library/GD32E230_standard_peripheral/Source/gd32e230_timer.c:876:9
	b	.LBB42_21
.LBB42_9:
	.loc	4 880 9                 @ ../GD32E230_Firmware_Library/GD32E230_standard_peripheral/Source/gd32e230_timer.c:880:9
	ldr	r0, [sp, #12]
	.loc	4 880 36 is_stmt 0      @ ../GD32E230_Firmware_Library/GD32E230_standard_peripheral/Source/gd32e230_timer.c:880:36
	ldr	r1, [r0, #32]
	movs	r2, #16
	bics	r1, r2
	str	r1, [r0, #32]
	.loc	4 881 9 is_stmt 1       @ ../GD32E230_Firmware_Library/GD32E230_standard_peripheral/Source/gd32e230_timer.c:881:9
	ldr	r0, [sp, #12]
	.loc	4 881 36 is_stmt 0      @ ../GD32E230_Firmware_Library/GD32E230_standard_peripheral/Source/gd32e230_timer.c:881:36
	ldr	r1, [r0, #24]
	movw	r2, #768
	bics	r1, r2
	str	r1, [r0, #24]
	.loc	4 883 60 is_stmt 1      @ ../GD32E230_Firmware_Library/GD32E230_standard_peripheral/Source/gd32e230_timer.c:883:60
	ldr	r0, [sp, #4]
	.loc	4 883 68 is_stmt 0      @ ../GD32E230_Firmware_Library/GD32E230_standard_peripheral/Source/gd32e230_timer.c:883:68
	ldrh	r0, [r0]
	.loc	4 883 80                @ ../GD32E230_Firmware_Library/GD32E230_standard_peripheral/Source/gd32e230_timer.c:883:80
	lsls	r0, r0, #4
	.loc	4 883 9                 @ ../GD32E230_Firmware_Library/GD32E230_standard_peripheral/Source/gd32e230_timer.c:883:9
	ldr	r1, [sp, #12]
	.loc	4 883 36                @ ../GD32E230_Firmware_Library/GD32E230_standard_peripheral/Source/gd32e230_timer.c:883:36
	ldr	r2, [r1, #32]
	orrs	r2, r0
	str	r2, [r1, #32]
	.loc	4 885 9 is_stmt 1       @ ../GD32E230_Firmware_Library/GD32E230_standard_peripheral/Source/gd32e230_timer.c:885:9
	ldr	r0, [sp, #12]
	.loc	4 885 36 is_stmt 0      @ ../GD32E230_Firmware_Library/GD32E230_standard_peripheral/Source/gd32e230_timer.c:885:36
	ldr	r1, [r0, #32]
	movs	r2, #32
	bics	r1, r2
	str	r1, [r0, #32]
	.loc	4 887 61 is_stmt 1      @ ../GD32E230_Firmware_Library/GD32E230_standard_peripheral/Source/gd32e230_timer.c:887:61
	ldr	r0, [sp, #4]
	.loc	4 887 69 is_stmt 0      @ ../GD32E230_Firmware_Library/GD32E230_standard_peripheral/Source/gd32e230_timer.c:887:69
	ldrh	r0, [r0, #4]
	.loc	4 887 81                @ ../GD32E230_Firmware_Library/GD32E230_standard_peripheral/Source/gd32e230_timer.c:887:81
	lsls	r0, r0, #4
	.loc	4 887 9                 @ ../GD32E230_Firmware_Library/GD32E230_standard_peripheral/Source/gd32e230_timer.c:887:9
	ldr	r1, [sp, #12]
	.loc	4 887 36                @ ../GD32E230_Firmware_Library/GD32E230_standard_peripheral/Source/gd32e230_timer.c:887:36
	ldr	r2, [r1, #32]
	orrs	r2, r0
	str	r2, [r1, #32]
.Ltmp159:
	.loc	4 889 22 is_stmt 1      @ ../GD32E230_Firmware_Library/GD32E230_standard_peripheral/Source/gd32e230_timer.c:889:22
	ldr	r0, [sp, #12]
	ldr	r1, __arm_cp.42_0
.Ltmp160:
	.loc	4 889 12 is_stmt 0      @ ../GD32E230_Firmware_Library/GD32E230_standard_peripheral/Source/gd32e230_timer.c:889:12
	cmp	r0, r1
	bne	.LBB42_11
	b	.LBB42_10
.LBB42_10:
.Ltmp161:
	.loc	4 891 13 is_stmt 1      @ ../GD32E230_Firmware_Library/GD32E230_standard_peripheral/Source/gd32e230_timer.c:891:13
	ldr	r0, [sp, #12]
	.loc	4 891 40 is_stmt 0      @ ../GD32E230_Firmware_Library/GD32E230_standard_peripheral/Source/gd32e230_timer.c:891:40
	ldr	r1, [r0, #32]
	movs	r2, #64
	bics	r1, r2
	str	r1, [r0, #32]
	.loc	4 893 65 is_stmt 1      @ ../GD32E230_Firmware_Library/GD32E230_standard_peripheral/Source/gd32e230_timer.c:893:65
	ldr	r0, [sp, #4]
	.loc	4 893 73 is_stmt 0      @ ../GD32E230_Firmware_Library/GD32E230_standard_peripheral/Source/gd32e230_timer.c:893:73
	ldrh	r0, [r0, #2]
	.loc	4 893 87                @ ../GD32E230_Firmware_Library/GD32E230_standard_peripheral/Source/gd32e230_timer.c:893:87
	lsls	r0, r0, #4
	.loc	4 893 13                @ ../GD32E230_Firmware_Library/GD32E230_standard_peripheral/Source/gd32e230_timer.c:893:13
	ldr	r1, [sp, #12]
	.loc	4 893 40                @ ../GD32E230_Firmware_Library/GD32E230_standard_peripheral/Source/gd32e230_timer.c:893:40
	ldr	r2, [r1, #32]
	orrs	r2, r0
	str	r2, [r1, #32]
	.loc	4 895 13 is_stmt 1      @ ../GD32E230_Firmware_Library/GD32E230_standard_peripheral/Source/gd32e230_timer.c:895:13
	ldr	r0, [sp, #12]
	.loc	4 895 40 is_stmt 0      @ ../GD32E230_Firmware_Library/GD32E230_standard_peripheral/Source/gd32e230_timer.c:895:40
	ldr	r1, [r0, #32]
	movs	r2, #128
	bics	r1, r2
	str	r1, [r0, #32]
	.loc	4 897 65 is_stmt 1      @ ../GD32E230_Firmware_Library/GD32E230_standard_peripheral/Source/gd32e230_timer.c:897:65
	ldr	r0, [sp, #4]
	.loc	4 897 73 is_stmt 0      @ ../GD32E230_Firmware_Library/GD32E230_standard_peripheral/Source/gd32e230_timer.c:897:73
	ldrh	r0, [r0, #6]
	.loc	4 897 86                @ ../GD32E230_Firmware_Library/GD32E230_standard_peripheral/Source/gd32e230_timer.c:897:86
	lsls	r0, r0, #4
	.loc	4 897 13                @ ../GD32E230_Firmware_Library/GD32E230_standard_peripheral/Source/gd32e230_timer.c:897:13
	ldr	r1, [sp, #12]
	.loc	4 897 40                @ ../GD32E230_Firmware_Library/GD32E230_standard_peripheral/Source/gd32e230_timer.c:897:40
	ldr	r2, [r1, #32]
	orrs	r2, r0
	str	r2, [r1, #32]
	.loc	4 899 13 is_stmt 1      @ ../GD32E230_Firmware_Library/GD32E230_standard_peripheral/Source/gd32e230_timer.c:899:13
	ldr	r0, [sp, #12]
	.loc	4 899 38 is_stmt 0      @ ../GD32E230_Firmware_Library/GD32E230_standard_peripheral/Source/gd32e230_timer.c:899:38
	ldr	r1, [r0, #4]
	movw	r2, #1024
	bics	r1, r2
	str	r1, [r0, #4]
	.loc	4 901 63 is_stmt 1      @ ../GD32E230_Firmware_Library/GD32E230_standard_peripheral/Source/gd32e230_timer.c:901:63
	ldr	r0, [sp, #4]
	.loc	4 901 71 is_stmt 0      @ ../GD32E230_Firmware_Library/GD32E230_standard_peripheral/Source/gd32e230_timer.c:901:71
	ldrh	r0, [r0, #8]
	.loc	4 901 84                @ ../GD32E230_Firmware_Library/GD32E230_standard_peripheral/Source/gd32e230_timer.c:901:84
	lsls	r0, r0, #2
	.loc	4 901 13                @ ../GD32E230_Firmware_Library/GD32E230_standard_peripheral/Source/gd32e230_timer.c:901:13
	ldr	r1, [sp, #12]
	.loc	4 901 38                @ ../GD32E230_Firmware_Library/GD32E230_standard_peripheral/Source/gd32e230_timer.c:901:38
	ldr	r2, [r1, #4]
	orrs	r2, r0
	str	r2, [r1, #4]
	.loc	4 903 13 is_stmt 1      @ ../GD32E230_Firmware_Library/GD32E230_standard_peripheral/Source/gd32e230_timer.c:903:13
	ldr	r0, [sp, #12]
	.loc	4 903 38 is_stmt 0      @ ../GD32E230_Firmware_Library/GD32E230_standard_peripheral/Source/gd32e230_timer.c:903:38
	ldr	r1, [r0, #4]
	movw	r2, #2048
	bics	r1, r2
	str	r1, [r0, #4]
	.loc	4 905 63 is_stmt 1      @ ../GD32E230_Firmware_Library/GD32E230_standard_peripheral/Source/gd32e230_timer.c:905:63
	ldr	r0, [sp, #4]
	.loc	4 905 71 is_stmt 0      @ ../GD32E230_Firmware_Library/GD32E230_standard_peripheral/Source/gd32e230_timer.c:905:71
	ldrh	r0, [r0, #10]
	.loc	4 905 85                @ ../GD32E230_Firmware_Library/GD32E230_standard_peripheral/Source/gd32e230_timer.c:905:85
	lsls	r0, r0, #2
	.loc	4 905 13                @ ../GD32E230_Firmware_Library/GD32E230_standard_peripheral/Source/gd32e230_timer.c:905:13
	ldr	r1, [sp, #12]
	.loc	4 905 38                @ ../GD32E230_Firmware_Library/GD32E230_standard_peripheral/Source/gd32e230_timer.c:905:38
	ldr	r2, [r1, #4]
	orrs	r2, r0
	str	r2, [r1, #4]
	.loc	4 906 9 is_stmt 1       @ ../GD32E230_Firmware_Library/GD32E230_standard_peripheral/Source/gd32e230_timer.c:906:9
	b	.LBB42_11
.Ltmp162:
.LBB42_11:
	.loc	4 908 23                @ ../GD32E230_Firmware_Library/GD32E230_standard_peripheral/Source/gd32e230_timer.c:908:23
	ldr	r0, [sp, #12]
	ldr	r1, __arm_cp.42_1
.Ltmp163:
	.loc	4 908 12 is_stmt 0      @ ../GD32E230_Firmware_Library/GD32E230_standard_peripheral/Source/gd32e230_timer.c:908:12
	cmp	r0, r1
	bne	.LBB42_13
	b	.LBB42_12
.LBB42_12:
.Ltmp164:
	.loc	4 910 13 is_stmt 1      @ ../GD32E230_Firmware_Library/GD32E230_standard_peripheral/Source/gd32e230_timer.c:910:13
	ldr	r0, [sp, #12]
	.loc	4 910 38 is_stmt 0      @ ../GD32E230_Firmware_Library/GD32E230_standard_peripheral/Source/gd32e230_timer.c:910:38
	ldr	r1, [r0, #4]
	movw	r2, #1024
	bics	r1, r2
	str	r1, [r0, #4]
	.loc	4 912 63 is_stmt 1      @ ../GD32E230_Firmware_Library/GD32E230_standard_peripheral/Source/gd32e230_timer.c:912:63
	ldr	r0, [sp, #4]
	.loc	4 912 71 is_stmt 0      @ ../GD32E230_Firmware_Library/GD32E230_standard_peripheral/Source/gd32e230_timer.c:912:71
	ldrh	r0, [r0, #8]
	.loc	4 912 84                @ ../GD32E230_Firmware_Library/GD32E230_standard_peripheral/Source/gd32e230_timer.c:912:84
	lsls	r0, r0, #2
	.loc	4 912 13                @ ../GD32E230_Firmware_Library/GD32E230_standard_peripheral/Source/gd32e230_timer.c:912:13
	ldr	r1, [sp, #12]
	.loc	4 912 38                @ ../GD32E230_Firmware_Library/GD32E230_standard_peripheral/Source/gd32e230_timer.c:912:38
	ldr	r2, [r1, #4]
	orrs	r2, r0
	str	r2, [r1, #4]
	.loc	4 913 9 is_stmt 1       @ ../GD32E230_Firmware_Library/GD32E230_standard_peripheral/Source/gd32e230_timer.c:913:9
	b	.LBB42_13
.Ltmp165:
.LBB42_13:
	.loc	4 915 9                 @ ../GD32E230_Firmware_Library/GD32E230_standard_peripheral/Source/gd32e230_timer.c:915:9
	b	.LBB42_21
.LBB42_14:
	.loc	4 919 9                 @ ../GD32E230_Firmware_Library/GD32E230_standard_peripheral/Source/gd32e230_timer.c:919:9
	ldr	r0, [sp, #12]
	.loc	4 919 36 is_stmt 0      @ ../GD32E230_Firmware_Library/GD32E230_standard_peripheral/Source/gd32e230_timer.c:919:36
	ldr	r1, [r0, #32]
	movw	r2, #256
	bics	r1, r2
	str	r1, [r0, #32]
	.loc	4 920 9 is_stmt 1       @ ../GD32E230_Firmware_Library/GD32E230_standard_peripheral/Source/gd32e230_timer.c:920:9
	ldr	r0, [sp, #12]
	.loc	4 920 36 is_stmt 0      @ ../GD32E230_Firmware_Library/GD32E230_standard_peripheral/Source/gd32e230_timer.c:920:36
	ldr	r1, [r0, #28]
	movs	r2, #3
	bics	r1, r2
	str	r1, [r0, #28]
	.loc	4 922 60 is_stmt 1      @ ../GD32E230_Firmware_Library/GD32E230_standard_peripheral/Source/gd32e230_timer.c:922:60
	ldr	r0, [sp, #4]
	.loc	4 922 68 is_stmt 0      @ ../GD32E230_Firmware_Library/GD32E230_standard_peripheral/Source/gd32e230_timer.c:922:68
	ldrh	r0, [r0]
	.loc	4 922 80                @ ../GD32E230_Firmware_Library/GD32E230_standard_peripheral/Source/gd32e230_timer.c:922:80
	lsls	r0, r0, #8
	.loc	4 922 9                 @ ../GD32E230_Firmware_Library/GD32E230_standard_peripheral/Source/gd32e230_timer.c:922:9
	ldr	r1, [sp, #12]
	.loc	4 922 36                @ ../GD32E230_Firmware_Library/GD32E230_standard_peripheral/Source/gd32e230_timer.c:922:36
	ldr	r2, [r1, #32]
	orrs	r2, r0
	str	r2, [r1, #32]
	.loc	4 924 9 is_stmt 1       @ ../GD32E230_Firmware_Library/GD32E230_standard_peripheral/Source/gd32e230_timer.c:924:9
	ldr	r0, [sp, #12]
	.loc	4 924 36 is_stmt 0      @ ../GD32E230_Firmware_Library/GD32E230_standard_peripheral/Source/gd32e230_timer.c:924:36
	ldr	r1, [r0, #32]
	movw	r2, #512
	bics	r1, r2
	str	r1, [r0, #32]
	.loc	4 926 61 is_stmt 1      @ ../GD32E230_Firmware_Library/GD32E230_standard_peripheral/Source/gd32e230_timer.c:926:61
	ldr	r0, [sp, #4]
	.loc	4 926 69 is_stmt 0      @ ../GD32E230_Firmware_Library/GD32E230_standard_peripheral/Source/gd32e230_timer.c:926:69
	ldrh	r0, [r0, #4]
	.loc	4 926 81                @ ../GD32E230_Firmware_Library/GD32E230_standard_peripheral/Source/gd32e230_timer.c:926:81
	lsls	r0, r0, #8
	.loc	4 926 9                 @ ../GD32E230_Firmware_Library/GD32E230_standard_peripheral/Source/gd32e230_timer.c:926:9
	ldr	r1, [sp, #12]
	.loc	4 926 36                @ ../GD32E230_Firmware_Library/GD32E230_standard_peripheral/Source/gd32e230_timer.c:926:36
	ldr	r2, [r1, #32]
	orrs	r2, r0
	str	r2, [r1, #32]
.Ltmp166:
	.loc	4 928 22 is_stmt 1      @ ../GD32E230_Firmware_Library/GD32E230_standard_peripheral/Source/gd32e230_timer.c:928:22
	ldr	r0, [sp, #12]
	ldr	r1, __arm_cp.42_0
.Ltmp167:
	.loc	4 928 12 is_stmt 0      @ ../GD32E230_Firmware_Library/GD32E230_standard_peripheral/Source/gd32e230_timer.c:928:12
	cmp	r0, r1
	bne	.LBB42_16
	b	.LBB42_15
.LBB42_15:
.Ltmp168:
	.loc	4 930 13 is_stmt 1      @ ../GD32E230_Firmware_Library/GD32E230_standard_peripheral/Source/gd32e230_timer.c:930:13
	ldr	r0, [sp, #12]
	.loc	4 930 40 is_stmt 0      @ ../GD32E230_Firmware_Library/GD32E230_standard_peripheral/Source/gd32e230_timer.c:930:40
	ldr	r1, [r0, #32]
	movw	r2, #1024
	bics	r1, r2
	str	r1, [r0, #32]
	.loc	4 932 65 is_stmt 1      @ ../GD32E230_Firmware_Library/GD32E230_standard_peripheral/Source/gd32e230_timer.c:932:65
	ldr	r0, [sp, #4]
	.loc	4 932 73 is_stmt 0      @ ../GD32E230_Firmware_Library/GD32E230_standard_peripheral/Source/gd32e230_timer.c:932:73
	ldrh	r0, [r0, #2]
	.loc	4 932 87                @ ../GD32E230_Firmware_Library/GD32E230_standard_peripheral/Source/gd32e230_timer.c:932:87
	lsls	r0, r0, #8
	.loc	4 932 13                @ ../GD32E230_Firmware_Library/GD32E230_standard_peripheral/Source/gd32e230_timer.c:932:13
	ldr	r1, [sp, #12]
	.loc	4 932 40                @ ../GD32E230_Firmware_Library/GD32E230_standard_peripheral/Source/gd32e230_timer.c:932:40
	ldr	r2, [r1, #32]
	orrs	r2, r0
	str	r2, [r1, #32]
	.loc	4 934 13 is_stmt 1      @ ../GD32E230_Firmware_Library/GD32E230_standard_peripheral/Source/gd32e230_timer.c:934:13
	ldr	r0, [sp, #12]
	.loc	4 934 40 is_stmt 0      @ ../GD32E230_Firmware_Library/GD32E230_standard_peripheral/Source/gd32e230_timer.c:934:40
	ldr	r1, [r0, #32]
	movw	r2, #2048
	bics	r1, r2
	str	r1, [r0, #32]
	.loc	4 936 65 is_stmt 1      @ ../GD32E230_Firmware_Library/GD32E230_standard_peripheral/Source/gd32e230_timer.c:936:65
	ldr	r0, [sp, #4]
	.loc	4 936 73 is_stmt 0      @ ../GD32E230_Firmware_Library/GD32E230_standard_peripheral/Source/gd32e230_timer.c:936:73
	ldrh	r0, [r0, #6]
	.loc	4 936 86                @ ../GD32E230_Firmware_Library/GD32E230_standard_peripheral/Source/gd32e230_timer.c:936:86
	lsls	r0, r0, #8
	.loc	4 936 13                @ ../GD32E230_Firmware_Library/GD32E230_standard_peripheral/Source/gd32e230_timer.c:936:13
	ldr	r1, [sp, #12]
	.loc	4 936 40                @ ../GD32E230_Firmware_Library/GD32E230_standard_peripheral/Source/gd32e230_timer.c:936:40
	ldr	r2, [r1, #32]
	orrs	r2, r0
	str	r2, [r1, #32]
	.loc	4 938 13 is_stmt 1      @ ../GD32E230_Firmware_Library/GD32E230_standard_peripheral/Source/gd32e230_timer.c:938:13
	ldr	r0, [sp, #12]
	.loc	4 938 38 is_stmt 0      @ ../GD32E230_Firmware_Library/GD32E230_standard_peripheral/Source/gd32e230_timer.c:938:38
	ldr	r1, [r0, #4]
	movw	r2, #4096
	bics	r1, r2
	str	r1, [r0, #4]
	.loc	4 940 63 is_stmt 1      @ ../GD32E230_Firmware_Library/GD32E230_standard_peripheral/Source/gd32e230_timer.c:940:63
	ldr	r0, [sp, #4]
	.loc	4 940 71 is_stmt 0      @ ../GD32E230_Firmware_Library/GD32E230_standard_peripheral/Source/gd32e230_timer.c:940:71
	ldrh	r0, [r0, #8]
	.loc	4 940 84                @ ../GD32E230_Firmware_Library/GD32E230_standard_peripheral/Source/gd32e230_timer.c:940:84
	lsls	r0, r0, #4
	.loc	4 940 13                @ ../GD32E230_Firmware_Library/GD32E230_standard_peripheral/Source/gd32e230_timer.c:940:13
	ldr	r1, [sp, #12]
	.loc	4 940 38                @ ../GD32E230_Firmware_Library/GD32E230_standard_peripheral/Source/gd32e230_timer.c:940:38
	ldr	r2, [r1, #4]
	orrs	r2, r0
	str	r2, [r1, #4]
	.loc	4 942 13 is_stmt 1      @ ../GD32E230_Firmware_Library/GD32E230_standard_peripheral/Source/gd32e230_timer.c:942:13
	ldr	r0, [sp, #12]
	.loc	4 942 38 is_stmt 0      @ ../GD32E230_Firmware_Library/GD32E230_standard_peripheral/Source/gd32e230_timer.c:942:38
	ldr	r1, [r0, #4]
	movw	r2, #8192
	bics	r1, r2
	str	r1, [r0, #4]
	.loc	4 944 63 is_stmt 1      @ ../GD32E230_Firmware_Library/GD32E230_standard_peripheral/Source/gd32e230_timer.c:944:63
	ldr	r0, [sp, #4]
	.loc	4 944 71 is_stmt 0      @ ../GD32E230_Firmware_Library/GD32E230_standard_peripheral/Source/gd32e230_timer.c:944:71
	ldrh	r0, [r0, #10]
	.loc	4 944 85                @ ../GD32E230_Firmware_Library/GD32E230_standard_peripheral/Source/gd32e230_timer.c:944:85
	lsls	r0, r0, #4
	.loc	4 944 13                @ ../GD32E230_Firmware_Library/GD32E230_standard_peripheral/Source/gd32e230_timer.c:944:13
	ldr	r1, [sp, #12]
	.loc	4 944 38                @ ../GD32E230_Firmware_Library/GD32E230_standard_peripheral/Source/gd32e230_timer.c:944:38
	ldr	r2, [r1, #4]
	orrs	r2, r0
	str	r2, [r1, #4]
	.loc	4 945 9 is_stmt 1       @ ../GD32E230_Firmware_Library/GD32E230_standard_peripheral/Source/gd32e230_timer.c:945:9
	b	.LBB42_16
.Ltmp169:
.LBB42_16:
	.loc	4 946 9                 @ ../GD32E230_Firmware_Library/GD32E230_standard_peripheral/Source/gd32e230_timer.c:946:9
	b	.LBB42_21
.LBB42_17:
	.loc	4 950 9                 @ ../GD32E230_Firmware_Library/GD32E230_standard_peripheral/Source/gd32e230_timer.c:950:9
	ldr	r0, [sp, #12]
	.loc	4 950 36 is_stmt 0      @ ../GD32E230_Firmware_Library/GD32E230_standard_peripheral/Source/gd32e230_timer.c:950:36
	ldr	r1, [r0, #32]
	movw	r2, #4096
	bics	r1, r2
	str	r1, [r0, #32]
	.loc	4 951 9 is_stmt 1       @ ../GD32E230_Firmware_Library/GD32E230_standard_peripheral/Source/gd32e230_timer.c:951:9
	ldr	r0, [sp, #12]
	.loc	4 951 36 is_stmt 0      @ ../GD32E230_Firmware_Library/GD32E230_standard_peripheral/Source/gd32e230_timer.c:951:36
	ldr	r1, [r0, #28]
	movw	r2, #768
	bics	r1, r2
	str	r1, [r0, #28]
	.loc	4 953 60 is_stmt 1      @ ../GD32E230_Firmware_Library/GD32E230_standard_peripheral/Source/gd32e230_timer.c:953:60
	ldr	r0, [sp, #4]
	.loc	4 953 68 is_stmt 0      @ ../GD32E230_Firmware_Library/GD32E230_standard_peripheral/Source/gd32e230_timer.c:953:68
	ldrh	r0, [r0]
	.loc	4 953 80                @ ../GD32E230_Firmware_Library/GD32E230_standard_peripheral/Source/gd32e230_timer.c:953:80
	lsls	r0, r0, #12
	.loc	4 953 9                 @ ../GD32E230_Firmware_Library/GD32E230_standard_peripheral/Source/gd32e230_timer.c:953:9
	ldr	r1, [sp, #12]
	.loc	4 953 36                @ ../GD32E230_Firmware_Library/GD32E230_standard_peripheral/Source/gd32e230_timer.c:953:36
	ldr	r2, [r1, #32]
	orrs	r2, r0
	str	r2, [r1, #32]
	.loc	4 955 9 is_stmt 1       @ ../GD32E230_Firmware_Library/GD32E230_standard_peripheral/Source/gd32e230_timer.c:955:9
	ldr	r0, [sp, #12]
	.loc	4 955 36 is_stmt 0      @ ../GD32E230_Firmware_Library/GD32E230_standard_peripheral/Source/gd32e230_timer.c:955:36
	ldr	r1, [r0, #32]
	movw	r2, #8192
	bics	r1, r2
	str	r1, [r0, #32]
	.loc	4 957 61 is_stmt 1      @ ../GD32E230_Firmware_Library/GD32E230_standard_peripheral/Source/gd32e230_timer.c:957:61
	ldr	r0, [sp, #4]
	.loc	4 957 69 is_stmt 0      @ ../GD32E230_Firmware_Library/GD32E230_standard_peripheral/Source/gd32e230_timer.c:957:69
	ldrh	r0, [r0, #4]
	.loc	4 957 81                @ ../GD32E230_Firmware_Library/GD32E230_standard_peripheral/Source/gd32e230_timer.c:957:81
	lsls	r0, r0, #12
	.loc	4 957 9                 @ ../GD32E230_Firmware_Library/GD32E230_standard_peripheral/Source/gd32e230_timer.c:957:9
	ldr	r1, [sp, #12]
	.loc	4 957 36                @ ../GD32E230_Firmware_Library/GD32E230_standard_peripheral/Source/gd32e230_timer.c:957:36
	ldr	r2, [r1, #32]
	orrs	r2, r0
	str	r2, [r1, #32]
.Ltmp170:
	.loc	4 959 22 is_stmt 1      @ ../GD32E230_Firmware_Library/GD32E230_standard_peripheral/Source/gd32e230_timer.c:959:22
	ldr	r0, [sp, #12]
	ldr	r1, __arm_cp.42_0
.Ltmp171:
	.loc	4 959 12 is_stmt 0      @ ../GD32E230_Firmware_Library/GD32E230_standard_peripheral/Source/gd32e230_timer.c:959:12
	cmp	r0, r1
	bne	.LBB42_19
	b	.LBB42_18
.LBB42_18:
.Ltmp172:
	.loc	4 961 13 is_stmt 1      @ ../GD32E230_Firmware_Library/GD32E230_standard_peripheral/Source/gd32e230_timer.c:961:13
	ldr	r0, [sp, #12]
	.loc	4 961 38 is_stmt 0      @ ../GD32E230_Firmware_Library/GD32E230_standard_peripheral/Source/gd32e230_timer.c:961:38
	ldr	r1, [r0, #4]
	movw	r2, #16384
	bics	r1, r2
	str	r1, [r0, #4]
	.loc	4 963 63 is_stmt 1      @ ../GD32E230_Firmware_Library/GD32E230_standard_peripheral/Source/gd32e230_timer.c:963:63
	ldr	r0, [sp, #4]
	.loc	4 963 71 is_stmt 0      @ ../GD32E230_Firmware_Library/GD32E230_standard_peripheral/Source/gd32e230_timer.c:963:71
	ldrh	r0, [r0, #8]
	.loc	4 963 84                @ ../GD32E230_Firmware_Library/GD32E230_standard_peripheral/Source/gd32e230_timer.c:963:84
	lsls	r0, r0, #6
	.loc	4 963 13                @ ../GD32E230_Firmware_Library/GD32E230_standard_peripheral/Source/gd32e230_timer.c:963:13
	ldr	r1, [sp, #12]
	.loc	4 963 38                @ ../GD32E230_Firmware_Library/GD32E230_standard_peripheral/Source/gd32e230_timer.c:963:38
	ldr	r2, [r1, #4]
	orrs	r2, r0
	str	r2, [r1, #4]
	.loc	4 964 9 is_stmt 1       @ ../GD32E230_Firmware_Library/GD32E230_standard_peripheral/Source/gd32e230_timer.c:964:9
	b	.LBB42_19
.Ltmp173:
.LBB42_19:
	.loc	4 965 9                 @ ../GD32E230_Firmware_Library/GD32E230_standard_peripheral/Source/gd32e230_timer.c:965:9
	b	.LBB42_21
.LBB42_20:
	.loc	4 967 9                 @ ../GD32E230_Firmware_Library/GD32E230_standard_peripheral/Source/gd32e230_timer.c:967:9
	b	.LBB42_21
.Ltmp174:
.LBB42_21:
	.loc	4 969 1                 @ ../GD32E230_Firmware_Library/GD32E230_standard_peripheral/Source/gd32e230_timer.c:969:1
	add	sp, #16
	bx	lr
.Ltmp175:
	.p2align	2
@ %bb.22:
	.loc	4 0 1 is_stmt 0         @ ../GD32E230_Firmware_Library/GD32E230_standard_peripheral/Source/gd32e230_timer.c:0:1
__arm_cp.42_0:
	.long	1073818624              @ 0x40012c00
.Lcpi_end20:
	.size	__arm_cp.42_0, .Lcpi_end20-__arm_cp.42_0
__arm_cp.42_1:
	.long	1073823744              @ 0x40014000
.Lcpi_end21:
	.size	__arm_cp.42_1, .Lcpi_end21-__arm_cp.42_1
__arm_cp.42_2:
	.long	1073824768              @ 0x40014400
.Lcpi_end22:
	.size	__arm_cp.42_2, .Lcpi_end22-__arm_cp.42_2
__arm_cp.42_3:
	.long	1073825792              @ 0x40014800
.Lcpi_end23:
	.size	__arm_cp.42_3, .Lcpi_end23-__arm_cp.42_3
.Lfunc_end42:
	.size	timer_channel_output_config, .Lfunc_end42-timer_channel_output_config
	.cfi_endproc
	.cantunwind
	.fnend
                                        @ -- End function
	.section	.text.timer_channel_output_mode_config,"ax",%progbits
	.hidden	timer_channel_output_mode_config @ -- Begin function timer_channel_output_mode_config
	.globl	timer_channel_output_mode_config
	.p2align	2
	.type	timer_channel_output_mode_config,%function
	.code	16                      @ @timer_channel_output_mode_config
	.thumb_func
timer_channel_output_mode_config:
.Lfunc_begin43:
	.loc	4 994 0 is_stmt 1       @ ../GD32E230_Firmware_Library/GD32E230_standard_peripheral/Source/gd32e230_timer.c:994:0
	.fnstart
	.cfi_startproc
@ %bb.0:
	.save	{r4, lr}
	push	{r4, lr}
	.cfi_def_cfa_offset 8
	.cfi_offset lr, -4
	.cfi_offset r4, -8
	.pad	#16
	sub	sp, #16
	.cfi_def_cfa_offset 24
	mov	r3, r2
	mov	r4, r1
	str	r0, [sp, #12]
	add	r0, sp, #8
	strh	r1, [r0]
	add	r1, sp, #4
	strh	r2, [r1]
.Ltmp176:
	.loc	4 995 12 prologue_end   @ ../GD32E230_Firmware_Library/GD32E230_standard_peripheral/Source/gd32e230_timer.c:995:12
	ldrh	r0, [r0]
	.loc	4 995 5 is_stmt 0       @ ../GD32E230_Firmware_Library/GD32E230_standard_peripheral/Source/gd32e230_timer.c:995:5
	cmp	r0, #3
	str	r0, [sp]                @ 4-byte Spill
	bhi	.LBB43_7
@ %bb.1:
	.loc	4 0 5                   @ ../GD32E230_Firmware_Library/GD32E230_standard_peripheral/Source/gd32e230_timer.c:0:5
	ldr	r0, [sp]                @ 4-byte Reload
	lsls	r1, r0, #2
	adr	r2, .LJTI43_0
	adds	r1, r2, r1
	mov	pc, r1
@ %bb.2:
	.p2align	2
.LJTI43_0:
	b.w	.LBB43_3
	b.w	.LBB43_4
	b.w	.LBB43_5
	b.w	.LBB43_6
.LBB43_3:
.Ltmp177:
	.loc	4 998 9 is_stmt 1       @ ../GD32E230_Firmware_Library/GD32E230_standard_peripheral/Source/gd32e230_timer.c:998:9
	ldr	r0, [sp, #12]
	.loc	4 998 36 is_stmt 0      @ ../GD32E230_Firmware_Library/GD32E230_standard_peripheral/Source/gd32e230_timer.c:998:36
	ldr	r1, [r0, #24]
	movs	r2, #112
	bics	r1, r2
	str	r1, [r0, #24]
	add	r0, sp, #4
	.loc	4 999 49 is_stmt 1      @ ../GD32E230_Firmware_Library/GD32E230_standard_peripheral/Source/gd32e230_timer.c:999:49
	ldrh	r0, [r0]
	.loc	4 999 9 is_stmt 0       @ ../GD32E230_Firmware_Library/GD32E230_standard_peripheral/Source/gd32e230_timer.c:999:9
	ldr	r1, [sp, #12]
	.loc	4 999 36                @ ../GD32E230_Firmware_Library/GD32E230_standard_peripheral/Source/gd32e230_timer.c:999:36
	ldr	r2, [r1, #24]
	orrs	r2, r0
	str	r2, [r1, #24]
	.loc	4 1000 9 is_stmt 1      @ ../GD32E230_Firmware_Library/GD32E230_standard_peripheral/Source/gd32e230_timer.c:1000:9
	b	.LBB43_8
.LBB43_4:
	.loc	4 1003 9                @ ../GD32E230_Firmware_Library/GD32E230_standard_peripheral/Source/gd32e230_timer.c:1003:9
	ldr	r0, [sp, #12]
	.loc	4 1003 36 is_stmt 0     @ ../GD32E230_Firmware_Library/GD32E230_standard_peripheral/Source/gd32e230_timer.c:1003:36
	ldr	r1, [r0, #24]
	movw	r2, #28672
	bics	r1, r2
	str	r1, [r0, #24]
	add	r0, sp, #4
	.loc	4 1004 61 is_stmt 1     @ ../GD32E230_Firmware_Library/GD32E230_standard_peripheral/Source/gd32e230_timer.c:1004:61
	ldrh	r0, [r0]
	.loc	4 1004 69 is_stmt 0     @ ../GD32E230_Firmware_Library/GD32E230_standard_peripheral/Source/gd32e230_timer.c:1004:69
	lsls	r0, r0, #8
	.loc	4 1004 9                @ ../GD32E230_Firmware_Library/GD32E230_standard_peripheral/Source/gd32e230_timer.c:1004:9
	ldr	r1, [sp, #12]
	.loc	4 1004 36               @ ../GD32E230_Firmware_Library/GD32E230_standard_peripheral/Source/gd32e230_timer.c:1004:36
	ldr	r2, [r1, #24]
	orrs	r2, r0
	str	r2, [r1, #24]
	.loc	4 1005 9 is_stmt 1      @ ../GD32E230_Firmware_Library/GD32E230_standard_peripheral/Source/gd32e230_timer.c:1005:9
	b	.LBB43_8
.LBB43_5:
	.loc	4 1008 9                @ ../GD32E230_Firmware_Library/GD32E230_standard_peripheral/Source/gd32e230_timer.c:1008:9
	ldr	r0, [sp, #12]
	.loc	4 1008 36 is_stmt 0     @ ../GD32E230_Firmware_Library/GD32E230_standard_peripheral/Source/gd32e230_timer.c:1008:36
	ldr	r1, [r0, #28]
	movs	r2, #112
	bics	r1, r2
	str	r1, [r0, #28]
	add	r0, sp, #4
	.loc	4 1009 49 is_stmt 1     @ ../GD32E230_Firmware_Library/GD32E230_standard_peripheral/Source/gd32e230_timer.c:1009:49
	ldrh	r0, [r0]
	.loc	4 1009 9 is_stmt 0      @ ../GD32E230_Firmware_Library/GD32E230_standard_peripheral/Source/gd32e230_timer.c:1009:9
	ldr	r1, [sp, #12]
	.loc	4 1009 36               @ ../GD32E230_Firmware_Library/GD32E230_standard_peripheral/Source/gd32e230_timer.c:1009:36
	ldr	r2, [r1, #28]
	orrs	r2, r0
	str	r2, [r1, #28]
	.loc	4 1010 9 is_stmt 1      @ ../GD32E230_Firmware_Library/GD32E230_standard_peripheral/Source/gd32e230_timer.c:1010:9
	b	.LBB43_8
.LBB43_6:
	.loc	4 1013 9                @ ../GD32E230_Firmware_Library/GD32E230_standard_peripheral/Source/gd32e230_timer.c:1013:9
	ldr	r0, [sp, #12]
	.loc	4 1013 36 is_stmt 0     @ ../GD32E230_Firmware_Library/GD32E230_standard_peripheral/Source/gd32e230_timer.c:1013:36
	ldr	r1, [r0, #28]
	movw	r2, #28672
	bics	r1, r2
	str	r1, [r0, #28]
	add	r0, sp, #4
	.loc	4 1014 61 is_stmt 1     @ ../GD32E230_Firmware_Library/GD32E230_standard_peripheral/Source/gd32e230_timer.c:1014:61
	ldrh	r0, [r0]
	.loc	4 1014 69 is_stmt 0     @ ../GD32E230_Firmware_Library/GD32E230_standard_peripheral/Source/gd32e230_timer.c:1014:69
	lsls	r0, r0, #8
	.loc	4 1014 9                @ ../GD32E230_Firmware_Library/GD32E230_standard_peripheral/Source/gd32e230_timer.c:1014:9
	ldr	r1, [sp, #12]
	.loc	4 1014 36               @ ../GD32E230_Firmware_Library/GD32E230_standard_peripheral/Source/gd32e230_timer.c:1014:36
	ldr	r2, [r1, #28]
	orrs	r2, r0
	str	r2, [r1, #28]
	.loc	4 1015 9 is_stmt 1      @ ../GD32E230_Firmware_Library/GD32E230_standard_peripheral/Source/gd32e230_timer.c:1015:9
	b	.LBB43_8
.LBB43_7:
	.loc	4 1017 9                @ ../GD32E230_Firmware_Library/GD32E230_standard_peripheral/Source/gd32e230_timer.c:1017:9
	b	.LBB43_8
.Ltmp178:
.LBB43_8:
	.loc	4 1019 1                @ ../GD32E230_Firmware_Library/GD32E230_standard_peripheral/Source/gd32e230_timer.c:1019:1
	add	sp, #16
	pop	{r4, pc}
.Ltmp179:
.Lfunc_end43:
	.size	timer_channel_output_mode_config, .Lfunc_end43-timer_channel_output_mode_config
	.cfi_endproc
	.cantunwind
	.fnend
                                        @ -- End function
	.section	.text.timer_channel_output_pulse_value_config,"ax",%progbits
	.hidden	timer_channel_output_pulse_value_config @ -- Begin function timer_channel_output_pulse_value_config
	.globl	timer_channel_output_pulse_value_config
	.p2align	2
	.type	timer_channel_output_pulse_value_config,%function
	.code	16                      @ @timer_channel_output_pulse_value_config
	.thumb_func
timer_channel_output_pulse_value_config:
.Lfunc_begin44:
	.loc	4 1035 0                @ ../GD32E230_Firmware_Library/GD32E230_standard_peripheral/Source/gd32e230_timer.c:1035:0
	.fnstart
	.cfi_startproc
@ %bb.0:
	.pad	#16
	sub	sp, #16
	.cfi_def_cfa_offset 16
	mov	r3, r1
	str	r0, [sp, #12]
	add	r0, sp, #8
	strh	r1, [r0]
	str	r2, [sp, #4]
.Ltmp180:
	.loc	4 1036 12 prologue_end  @ ../GD32E230_Firmware_Library/GD32E230_standard_peripheral/Source/gd32e230_timer.c:1036:12
	ldrh	r0, [r0]
	.loc	4 1036 5 is_stmt 0      @ ../GD32E230_Firmware_Library/GD32E230_standard_peripheral/Source/gd32e230_timer.c:1036:5
	cmp	r0, #3
	str	r0, [sp]                @ 4-byte Spill
	bhi	.LBB44_7
@ %bb.1:
	.loc	4 0 5                   @ ../GD32E230_Firmware_Library/GD32E230_standard_peripheral/Source/gd32e230_timer.c:0:5
	ldr	r0, [sp]                @ 4-byte Reload
	lsls	r1, r0, #2
	adr	r2, .LJTI44_0
	adds	r1, r2, r1
	mov	pc, r1
@ %bb.2:
	.p2align	2
.LJTI44_0:
	b.w	.LBB44_3
	b.w	.LBB44_4
	b.w	.LBB44_5
	b.w	.LBB44_6
.LBB44_3:
.Ltmp181:
	.loc	4 1039 47 is_stmt 1     @ ../GD32E230_Firmware_Library/GD32E230_standard_peripheral/Source/gd32e230_timer.c:1039:47
	ldr	r0, [sp, #4]
	.loc	4 1039 9 is_stmt 0      @ ../GD32E230_Firmware_Library/GD32E230_standard_peripheral/Source/gd32e230_timer.c:1039:9
	ldr	r1, [sp, #12]
	.loc	4 1039 35               @ ../GD32E230_Firmware_Library/GD32E230_standard_peripheral/Source/gd32e230_timer.c:1039:35
	str	r0, [r1, #52]
	.loc	4 1040 9 is_stmt 1      @ ../GD32E230_Firmware_Library/GD32E230_standard_peripheral/Source/gd32e230_timer.c:1040:9
	b	.LBB44_8
.LBB44_4:
	.loc	4 1043 47               @ ../GD32E230_Firmware_Library/GD32E230_standard_peripheral/Source/gd32e230_timer.c:1043:47
	ldr	r0, [sp, #4]
	.loc	4 1043 9 is_stmt 0      @ ../GD32E230_Firmware_Library/GD32E230_standard_peripheral/Source/gd32e230_timer.c:1043:9
	ldr	r1, [sp, #12]
	.loc	4 1043 35               @ ../GD32E230_Firmware_Library/GD32E230_standard_peripheral/Source/gd32e230_timer.c:1043:35
	str	r0, [r1, #56]
	.loc	4 1044 9 is_stmt 1      @ ../GD32E230_Firmware_Library/GD32E230_standard_peripheral/Source/gd32e230_timer.c:1044:9
	b	.LBB44_8
.LBB44_5:
	.loc	4 1047 47               @ ../GD32E230_Firmware_Library/GD32E230_standard_peripheral/Source/gd32e230_timer.c:1047:47
	ldr	r0, [sp, #4]
	.loc	4 1047 9 is_stmt 0      @ ../GD32E230_Firmware_Library/GD32E230_standard_peripheral/Source/gd32e230_timer.c:1047:9
	ldr	r1, [sp, #12]
	.loc	4 1047 35               @ ../GD32E230_Firmware_Library/GD32E230_standard_peripheral/Source/gd32e230_timer.c:1047:35
	str	r0, [r1, #60]
	.loc	4 1048 9 is_stmt 1      @ ../GD32E230_Firmware_Library/GD32E230_standard_peripheral/Source/gd32e230_timer.c:1048:9
	b	.LBB44_8
.LBB44_6:
	.loc	4 1051 48               @ ../GD32E230_Firmware_Library/GD32E230_standard_peripheral/Source/gd32e230_timer.c:1051:48
	ldr	r0, [sp, #4]
	.loc	4 1051 10 is_stmt 0     @ ../GD32E230_Firmware_Library/GD32E230_standard_peripheral/Source/gd32e230_timer.c:1051:10
	ldr	r1, [sp, #12]
	.loc	4 1051 36               @ ../GD32E230_Firmware_Library/GD32E230_standard_peripheral/Source/gd32e230_timer.c:1051:36
	str	r0, [r1, #64]
	.loc	4 1052 9 is_stmt 1      @ ../GD32E230_Firmware_Library/GD32E230_standard_peripheral/Source/gd32e230_timer.c:1052:9
	b	.LBB44_8
.LBB44_7:
	.loc	4 1054 9                @ ../GD32E230_Firmware_Library/GD32E230_standard_peripheral/Source/gd32e230_timer.c:1054:9
	b	.LBB44_8
.Ltmp182:
.LBB44_8:
	.loc	4 1056 1                @ ../GD32E230_Firmware_Library/GD32E230_standard_peripheral/Source/gd32e230_timer.c:1056:1
	add	sp, #16
	bx	lr
.Ltmp183:
.Lfunc_end44:
	.size	timer_channel_output_pulse_value_config, .Lfunc_end44-timer_channel_output_pulse_value_config
	.cfi_endproc
	.cantunwind
	.fnend
                                        @ -- End function
	.section	.text.timer_channel_output_shadow_config,"ax",%progbits
	.hidden	timer_channel_output_shadow_config @ -- Begin function timer_channel_output_shadow_config
	.globl	timer_channel_output_shadow_config
	.p2align	2
	.type	timer_channel_output_shadow_config,%function
	.code	16                      @ @timer_channel_output_shadow_config
	.thumb_func
timer_channel_output_shadow_config:
.Lfunc_begin45:
	.loc	4 1075 0                @ ../GD32E230_Firmware_Library/GD32E230_standard_peripheral/Source/gd32e230_timer.c:1075:0
	.fnstart
	.cfi_startproc
@ %bb.0:
	.save	{r4, lr}
	push	{r4, lr}
	.cfi_def_cfa_offset 8
	.cfi_offset lr, -4
	.cfi_offset r4, -8
	.pad	#16
	sub	sp, #16
	.cfi_def_cfa_offset 24
	mov	r3, r2
	mov	r4, r1
	str	r0, [sp, #12]
	add	r0, sp, #8
	strh	r1, [r0]
	add	r1, sp, #4
	strh	r2, [r1]
.Ltmp184:
	.loc	4 1076 12 prologue_end  @ ../GD32E230_Firmware_Library/GD32E230_standard_peripheral/Source/gd32e230_timer.c:1076:12
	ldrh	r0, [r0]
	.loc	4 1076 5 is_stmt 0      @ ../GD32E230_Firmware_Library/GD32E230_standard_peripheral/Source/gd32e230_timer.c:1076:5
	cmp	r0, #3
	str	r0, [sp]                @ 4-byte Spill
	bhi	.LBB45_7
@ %bb.1:
	.loc	4 0 5                   @ ../GD32E230_Firmware_Library/GD32E230_standard_peripheral/Source/gd32e230_timer.c:0:5
	ldr	r0, [sp]                @ 4-byte Reload
	lsls	r1, r0, #2
	adr	r2, .LJTI45_0
	adds	r1, r2, r1
	mov	pc, r1
@ %bb.2:
	.p2align	2
.LJTI45_0:
	b.w	.LBB45_3
	b.w	.LBB45_4
	b.w	.LBB45_5
	b.w	.LBB45_6
.LBB45_3:
.Ltmp185:
	.loc	4 1079 9 is_stmt 1      @ ../GD32E230_Firmware_Library/GD32E230_standard_peripheral/Source/gd32e230_timer.c:1079:9
	ldr	r0, [sp, #12]
	.loc	4 1079 36 is_stmt 0     @ ../GD32E230_Firmware_Library/GD32E230_standard_peripheral/Source/gd32e230_timer.c:1079:36
	ldr	r1, [r0, #24]
	movs	r2, #8
	bics	r1, r2
	str	r1, [r0, #24]
	add	r0, sp, #4
	.loc	4 1080 49 is_stmt 1     @ ../GD32E230_Firmware_Library/GD32E230_standard_peripheral/Source/gd32e230_timer.c:1080:49
	ldrh	r0, [r0]
	.loc	4 1080 9 is_stmt 0      @ ../GD32E230_Firmware_Library/GD32E230_standard_peripheral/Source/gd32e230_timer.c:1080:9
	ldr	r1, [sp, #12]
	.loc	4 1080 36               @ ../GD32E230_Firmware_Library/GD32E230_standard_peripheral/Source/gd32e230_timer.c:1080:36
	ldr	r2, [r1, #24]
	orrs	r2, r0
	str	r2, [r1, #24]
	.loc	4 1081 9 is_stmt 1      @ ../GD32E230_Firmware_Library/GD32E230_standard_peripheral/Source/gd32e230_timer.c:1081:9
	b	.LBB45_8
.LBB45_4:
	.loc	4 1084 9                @ ../GD32E230_Firmware_Library/GD32E230_standard_peripheral/Source/gd32e230_timer.c:1084:9
	ldr	r0, [sp, #12]
	.loc	4 1084 36 is_stmt 0     @ ../GD32E230_Firmware_Library/GD32E230_standard_peripheral/Source/gd32e230_timer.c:1084:36
	ldr	r1, [r0, #24]
	movw	r2, #2048
	bics	r1, r2
	str	r1, [r0, #24]
	add	r0, sp, #4
	.loc	4 1085 61 is_stmt 1     @ ../GD32E230_Firmware_Library/GD32E230_standard_peripheral/Source/gd32e230_timer.c:1085:61
	ldrh	r0, [r0]
	.loc	4 1085 71 is_stmt 0     @ ../GD32E230_Firmware_Library/GD32E230_standard_peripheral/Source/gd32e230_timer.c:1085:71
	lsls	r0, r0, #8
	.loc	4 1085 9                @ ../GD32E230_Firmware_Library/GD32E230_standard_peripheral/Source/gd32e230_timer.c:1085:9
	ldr	r1, [sp, #12]
	.loc	4 1085 36               @ ../GD32E230_Firmware_Library/GD32E230_standard_peripheral/Source/gd32e230_timer.c:1085:36
	ldr	r2, [r1, #24]
	orrs	r2, r0
	str	r2, [r1, #24]
	.loc	4 1086 9 is_stmt 1      @ ../GD32E230_Firmware_Library/GD32E230_standard_peripheral/Source/gd32e230_timer.c:1086:9
	b	.LBB45_8
.LBB45_5:
	.loc	4 1089 9                @ ../GD32E230_Firmware_Library/GD32E230_standard_peripheral/Source/gd32e230_timer.c:1089:9
	ldr	r0, [sp, #12]
	.loc	4 1089 36 is_stmt 0     @ ../GD32E230_Firmware_Library/GD32E230_standard_peripheral/Source/gd32e230_timer.c:1089:36
	ldr	r1, [r0, #28]
	movs	r2, #8
	bics	r1, r2
	str	r1, [r0, #28]
	add	r0, sp, #4
	.loc	4 1090 49 is_stmt 1     @ ../GD32E230_Firmware_Library/GD32E230_standard_peripheral/Source/gd32e230_timer.c:1090:49
	ldrh	r0, [r0]
	.loc	4 1090 9 is_stmt 0      @ ../GD32E230_Firmware_Library/GD32E230_standard_peripheral/Source/gd32e230_timer.c:1090:9
	ldr	r1, [sp, #12]
	.loc	4 1090 36               @ ../GD32E230_Firmware_Library/GD32E230_standard_peripheral/Source/gd32e230_timer.c:1090:36
	ldr	r2, [r1, #28]
	orrs	r2, r0
	str	r2, [r1, #28]
	.loc	4 1091 9 is_stmt 1      @ ../GD32E230_Firmware_Library/GD32E230_standard_peripheral/Source/gd32e230_timer.c:1091:9
	b	.LBB45_8
.LBB45_6:
	.loc	4 1094 9                @ ../GD32E230_Firmware_Library/GD32E230_standard_peripheral/Source/gd32e230_timer.c:1094:9
	ldr	r0, [sp, #12]
	.loc	4 1094 36 is_stmt 0     @ ../GD32E230_Firmware_Library/GD32E230_standard_peripheral/Source/gd32e230_timer.c:1094:36
	ldr	r1, [r0, #28]
	movw	r2, #2048
	bics	r1, r2
	str	r1, [r0, #28]
	add	r0, sp, #4
	.loc	4 1095 61 is_stmt 1     @ ../GD32E230_Firmware_Library/GD32E230_standard_peripheral/Source/gd32e230_timer.c:1095:61
	ldrh	r0, [r0]
	.loc	4 1095 71 is_stmt 0     @ ../GD32E230_Firmware_Library/GD32E230_standard_peripheral/Source/gd32e230_timer.c:1095:71
	lsls	r0, r0, #8
	.loc	4 1095 9                @ ../GD32E230_Firmware_Library/GD32E230_standard_peripheral/Source/gd32e230_timer.c:1095:9
	ldr	r1, [sp, #12]
	.loc	4 1095 36               @ ../GD32E230_Firmware_Library/GD32E230_standard_peripheral/Source/gd32e230_timer.c:1095:36
	ldr	r2, [r1, #28]
	orrs	r2, r0
	str	r2, [r1, #28]
	.loc	4 1096 9 is_stmt 1      @ ../GD32E230_Firmware_Library/GD32E230_standard_peripheral/Source/gd32e230_timer.c:1096:9
	b	.LBB45_8
.LBB45_7:
	.loc	4 1098 9                @ ../GD32E230_Firmware_Library/GD32E230_standard_peripheral/Source/gd32e230_timer.c:1098:9
	b	.LBB45_8
.Ltmp186:
.LBB45_8:
	.loc	4 1100 1                @ ../GD32E230_Firmware_Library/GD32E230_standard_peripheral/Source/gd32e230_timer.c:1100:1
	add	sp, #16
	pop	{r4, pc}
.Ltmp187:
.Lfunc_end45:
	.size	timer_channel_output_shadow_config, .Lfunc_end45-timer_channel_output_shadow_config
	.cfi_endproc
	.cantunwind
	.fnend
                                        @ -- End function
	.section	.text.timer_channel_output_fast_config,"ax",%progbits
	.hidden	timer_channel_output_fast_config @ -- Begin function timer_channel_output_fast_config
	.globl	timer_channel_output_fast_config
	.p2align	2
	.type	timer_channel_output_fast_config,%function
	.code	16                      @ @timer_channel_output_fast_config
	.thumb_func
timer_channel_output_fast_config:
.Lfunc_begin46:
	.loc	4 1119 0                @ ../GD32E230_Firmware_Library/GD32E230_standard_peripheral/Source/gd32e230_timer.c:1119:0
	.fnstart
	.cfi_startproc
@ %bb.0:
	.save	{r4, lr}
	push	{r4, lr}
	.cfi_def_cfa_offset 8
	.cfi_offset lr, -4
	.cfi_offset r4, -8
	.pad	#16
	sub	sp, #16
	.cfi_def_cfa_offset 24
	mov	r3, r2
	mov	r4, r1
	str	r0, [sp, #12]
	add	r0, sp, #8
	strh	r1, [r0]
	add	r1, sp, #4
	strh	r2, [r1]
.Ltmp188:
	.loc	4 1120 12 prologue_end  @ ../GD32E230_Firmware_Library/GD32E230_standard_peripheral/Source/gd32e230_timer.c:1120:12
	ldrh	r0, [r0]
	.loc	4 1120 5 is_stmt 0      @ ../GD32E230_Firmware_Library/GD32E230_standard_peripheral/Source/gd32e230_timer.c:1120:5
	cmp	r0, #3
	str	r0, [sp]                @ 4-byte Spill
	bhi	.LBB46_7
@ %bb.1:
	.loc	4 0 5                   @ ../GD32E230_Firmware_Library/GD32E230_standard_peripheral/Source/gd32e230_timer.c:0:5
	ldr	r0, [sp]                @ 4-byte Reload
	lsls	r1, r0, #2
	adr	r2, .LJTI46_0
	adds	r1, r2, r1
	mov	pc, r1
@ %bb.2:
	.p2align	2
.LJTI46_0:
	b.w	.LBB46_3
	b.w	.LBB46_4
	b.w	.LBB46_5
	b.w	.LBB46_6
.LBB46_3:
.Ltmp189:
	.loc	4 1123 9 is_stmt 1      @ ../GD32E230_Firmware_Library/GD32E230_standard_peripheral/Source/gd32e230_timer.c:1123:9
	ldr	r0, [sp, #12]
	.loc	4 1123 36 is_stmt 0     @ ../GD32E230_Firmware_Library/GD32E230_standard_peripheral/Source/gd32e230_timer.c:1123:36
	ldr	r1, [r0, #24]
	movs	r2, #4
	bics	r1, r2
	str	r1, [r0, #24]
	add	r0, sp, #4
	.loc	4 1124 49 is_stmt 1     @ ../GD32E230_Firmware_Library/GD32E230_standard_peripheral/Source/gd32e230_timer.c:1124:49
	ldrh	r0, [r0]
	.loc	4 1124 9 is_stmt 0      @ ../GD32E230_Firmware_Library/GD32E230_standard_peripheral/Source/gd32e230_timer.c:1124:9
	ldr	r1, [sp, #12]
	.loc	4 1124 36               @ ../GD32E230_Firmware_Library/GD32E230_standard_peripheral/Source/gd32e230_timer.c:1124:36
	ldr	r2, [r1, #24]
	orrs	r2, r0
	str	r2, [r1, #24]
	.loc	4 1125 9 is_stmt 1      @ ../GD32E230_Firmware_Library/GD32E230_standard_peripheral/Source/gd32e230_timer.c:1125:9
	b	.LBB46_8
.LBB46_4:
	.loc	4 1128 9                @ ../GD32E230_Firmware_Library/GD32E230_standard_peripheral/Source/gd32e230_timer.c:1128:9
	ldr	r0, [sp, #12]
	.loc	4 1128 36 is_stmt 0     @ ../GD32E230_Firmware_Library/GD32E230_standard_peripheral/Source/gd32e230_timer.c:1128:36
	ldr	r1, [r0, #24]
	movw	r2, #1024
	bics	r1, r2
	str	r1, [r0, #24]
	add	r0, sp, #4
	.loc	4 1129 60 is_stmt 1     @ ../GD32E230_Firmware_Library/GD32E230_standard_peripheral/Source/gd32e230_timer.c:1129:60
	ldrh	r0, [r0]
	.loc	4 1129 67 is_stmt 0     @ ../GD32E230_Firmware_Library/GD32E230_standard_peripheral/Source/gd32e230_timer.c:1129:67
	lsls	r0, r0, #8
	.loc	4 1129 9                @ ../GD32E230_Firmware_Library/GD32E230_standard_peripheral/Source/gd32e230_timer.c:1129:9
	ldr	r1, [sp, #12]
	.loc	4 1129 36               @ ../GD32E230_Firmware_Library/GD32E230_standard_peripheral/Source/gd32e230_timer.c:1129:36
	ldr	r2, [r1, #24]
	orrs	r2, r0
	str	r2, [r1, #24]
	.loc	4 1130 9 is_stmt 1      @ ../GD32E230_Firmware_Library/GD32E230_standard_peripheral/Source/gd32e230_timer.c:1130:9
	b	.LBB46_8
.LBB46_5:
	.loc	4 1133 9                @ ../GD32E230_Firmware_Library/GD32E230_standard_peripheral/Source/gd32e230_timer.c:1133:9
	ldr	r0, [sp, #12]
	.loc	4 1133 36 is_stmt 0     @ ../GD32E230_Firmware_Library/GD32E230_standard_peripheral/Source/gd32e230_timer.c:1133:36
	ldr	r1, [r0, #28]
	movs	r2, #4
	bics	r1, r2
	str	r1, [r0, #28]
	add	r0, sp, #4
	.loc	4 1134 49 is_stmt 1     @ ../GD32E230_Firmware_Library/GD32E230_standard_peripheral/Source/gd32e230_timer.c:1134:49
	ldrh	r0, [r0]
	.loc	4 1134 9 is_stmt 0      @ ../GD32E230_Firmware_Library/GD32E230_standard_peripheral/Source/gd32e230_timer.c:1134:9
	ldr	r1, [sp, #12]
	.loc	4 1134 36               @ ../GD32E230_Firmware_Library/GD32E230_standard_peripheral/Source/gd32e230_timer.c:1134:36
	ldr	r2, [r1, #28]
	orrs	r2, r0
	str	r2, [r1, #28]
	.loc	4 1135 9 is_stmt 1      @ ../GD32E230_Firmware_Library/GD32E230_standard_peripheral/Source/gd32e230_timer.c:1135:9
	b	.LBB46_8
.LBB46_6:
	.loc	4 1138 9                @ ../GD32E230_Firmware_Library/GD32E230_standard_peripheral/Source/gd32e230_timer.c:1138:9
	ldr	r0, [sp, #12]
	.loc	4 1138 36 is_stmt 0     @ ../GD32E230_Firmware_Library/GD32E230_standard_peripheral/Source/gd32e230_timer.c:1138:36
	ldr	r1, [r0, #28]
	movw	r2, #1024
	bics	r1, r2
	str	r1, [r0, #28]
	add	r0, sp, #4
	.loc	4 1139 60 is_stmt 1     @ ../GD32E230_Firmware_Library/GD32E230_standard_peripheral/Source/gd32e230_timer.c:1139:60
	ldrh	r0, [r0]
	.loc	4 1139 67 is_stmt 0     @ ../GD32E230_Firmware_Library/GD32E230_standard_peripheral/Source/gd32e230_timer.c:1139:67
	lsls	r0, r0, #8
	.loc	4 1139 9                @ ../GD32E230_Firmware_Library/GD32E230_standard_peripheral/Source/gd32e230_timer.c:1139:9
	ldr	r1, [sp, #12]
	.loc	4 1139 36               @ ../GD32E230_Firmware_Library/GD32E230_standard_peripheral/Source/gd32e230_timer.c:1139:36
	ldr	r2, [r1, #28]
	orrs	r2, r0
	str	r2, [r1, #28]
	.loc	4 1140 9 is_stmt 1      @ ../GD32E230_Firmware_Library/GD32E230_standard_peripheral/Source/gd32e230_timer.c:1140:9
	b	.LBB46_8
.LBB46_7:
	.loc	4 1142 9                @ ../GD32E230_Firmware_Library/GD32E230_standard_peripheral/Source/gd32e230_timer.c:1142:9
	b	.LBB46_8
.Ltmp190:
.LBB46_8:
	.loc	4 1144 1                @ ../GD32E230_Firmware_Library/GD32E230_standard_peripheral/Source/gd32e230_timer.c:1144:1
	add	sp, #16
	pop	{r4, pc}
.Ltmp191:
.Lfunc_end46:
	.size	timer_channel_output_fast_config, .Lfunc_end46-timer_channel_output_fast_config
	.cfi_endproc
	.cantunwind
	.fnend
                                        @ -- End function
	.section	.text.timer_channel_output_clear_config,"ax",%progbits
	.hidden	timer_channel_output_clear_config @ -- Begin function timer_channel_output_clear_config
	.globl	timer_channel_output_clear_config
	.p2align	2
	.type	timer_channel_output_clear_config,%function
	.code	16                      @ @timer_channel_output_clear_config
	.thumb_func
timer_channel_output_clear_config:
.Lfunc_begin47:
	.loc	4 1163 0                @ ../GD32E230_Firmware_Library/GD32E230_standard_peripheral/Source/gd32e230_timer.c:1163:0
	.fnstart
	.cfi_startproc
@ %bb.0:
	.save	{r4, lr}
	push	{r4, lr}
	.cfi_def_cfa_offset 8
	.cfi_offset lr, -4
	.cfi_offset r4, -8
	.pad	#16
	sub	sp, #16
	.cfi_def_cfa_offset 24
	mov	r3, r2
	mov	r4, r1
	str	r0, [sp, #12]
	add	r0, sp, #8
	strh	r1, [r0]
	add	r1, sp, #4
	strh	r2, [r1]
.Ltmp192:
	.loc	4 1164 12 prologue_end  @ ../GD32E230_Firmware_Library/GD32E230_standard_peripheral/Source/gd32e230_timer.c:1164:12
	ldrh	r0, [r0]
	.loc	4 1164 5 is_stmt 0      @ ../GD32E230_Firmware_Library/GD32E230_standard_peripheral/Source/gd32e230_timer.c:1164:5
	cmp	r0, #3
	str	r0, [sp]                @ 4-byte Spill
	bhi	.LBB47_7
@ %bb.1:
	.loc	4 0 5                   @ ../GD32E230_Firmware_Library/GD32E230_standard_peripheral/Source/gd32e230_timer.c:0:5
	ldr	r0, [sp]                @ 4-byte Reload
	lsls	r1, r0, #2
	adr	r2, .LJTI47_0
	adds	r1, r2, r1
	mov	pc, r1
@ %bb.2:
	.p2align	2
.LJTI47_0:
	b.w	.LBB47_3
	b.w	.LBB47_4
	b.w	.LBB47_5
	b.w	.LBB47_6
.LBB47_3:
.Ltmp193:
	.loc	4 1167 9 is_stmt 1      @ ../GD32E230_Firmware_Library/GD32E230_standard_peripheral/Source/gd32e230_timer.c:1167:9
	ldr	r0, [sp, #12]
	.loc	4 1167 36 is_stmt 0     @ ../GD32E230_Firmware_Library/GD32E230_standard_peripheral/Source/gd32e230_timer.c:1167:36
	ldr	r1, [r0, #24]
	movs	r2, #128
	bics	r1, r2
	str	r1, [r0, #24]
	add	r0, sp, #4
	.loc	4 1168 49 is_stmt 1     @ ../GD32E230_Firmware_Library/GD32E230_standard_peripheral/Source/gd32e230_timer.c:1168:49
	ldrh	r0, [r0]
	.loc	4 1168 9 is_stmt 0      @ ../GD32E230_Firmware_Library/GD32E230_standard_peripheral/Source/gd32e230_timer.c:1168:9
	ldr	r1, [sp, #12]
	.loc	4 1168 36               @ ../GD32E230_Firmware_Library/GD32E230_standard_peripheral/Source/gd32e230_timer.c:1168:36
	ldr	r2, [r1, #24]
	orrs	r2, r0
	str	r2, [r1, #24]
	.loc	4 1169 9 is_stmt 1      @ ../GD32E230_Firmware_Library/GD32E230_standard_peripheral/Source/gd32e230_timer.c:1169:9
	b	.LBB47_8
.LBB47_4:
	.loc	4 1172 9                @ ../GD32E230_Firmware_Library/GD32E230_standard_peripheral/Source/gd32e230_timer.c:1172:9
	ldr	r0, [sp, #12]
	.loc	4 1172 36 is_stmt 0     @ ../GD32E230_Firmware_Library/GD32E230_standard_peripheral/Source/gd32e230_timer.c:1172:36
	ldr	r1, [r0, #24]
	movw	r2, #32768
	bics	r1, r2
	str	r1, [r0, #24]
	add	r0, sp, #4
	.loc	4 1173 60 is_stmt 1     @ ../GD32E230_Firmware_Library/GD32E230_standard_peripheral/Source/gd32e230_timer.c:1173:60
	ldrh	r0, [r0]
	.loc	4 1173 68 is_stmt 0     @ ../GD32E230_Firmware_Library/GD32E230_standard_peripheral/Source/gd32e230_timer.c:1173:68
	lsls	r0, r0, #8
	.loc	4 1173 9                @ ../GD32E230_Firmware_Library/GD32E230_standard_peripheral/Source/gd32e230_timer.c:1173:9
	ldr	r1, [sp, #12]
	.loc	4 1173 36               @ ../GD32E230_Firmware_Library/GD32E230_standard_peripheral/Source/gd32e230_timer.c:1173:36
	ldr	r2, [r1, #24]
	orrs	r2, r0
	str	r2, [r1, #24]
	.loc	4 1174 9 is_stmt 1      @ ../GD32E230_Firmware_Library/GD32E230_standard_peripheral/Source/gd32e230_timer.c:1174:9
	b	.LBB47_8
.LBB47_5:
	.loc	4 1177 9                @ ../GD32E230_Firmware_Library/GD32E230_standard_peripheral/Source/gd32e230_timer.c:1177:9
	ldr	r0, [sp, #12]
	.loc	4 1177 36 is_stmt 0     @ ../GD32E230_Firmware_Library/GD32E230_standard_peripheral/Source/gd32e230_timer.c:1177:36
	ldr	r1, [r0, #28]
	movs	r2, #128
	bics	r1, r2
	str	r1, [r0, #28]
	add	r0, sp, #4
	.loc	4 1178 49 is_stmt 1     @ ../GD32E230_Firmware_Library/GD32E230_standard_peripheral/Source/gd32e230_timer.c:1178:49
	ldrh	r0, [r0]
	.loc	4 1178 9 is_stmt 0      @ ../GD32E230_Firmware_Library/GD32E230_standard_peripheral/Source/gd32e230_timer.c:1178:9
	ldr	r1, [sp, #12]
	.loc	4 1178 36               @ ../GD32E230_Firmware_Library/GD32E230_standard_peripheral/Source/gd32e230_timer.c:1178:36
	ldr	r2, [r1, #28]
	orrs	r2, r0
	str	r2, [r1, #28]
	.loc	4 1179 9 is_stmt 1      @ ../GD32E230_Firmware_Library/GD32E230_standard_peripheral/Source/gd32e230_timer.c:1179:9
	b	.LBB47_8
.LBB47_6:
	.loc	4 1182 9                @ ../GD32E230_Firmware_Library/GD32E230_standard_peripheral/Source/gd32e230_timer.c:1182:9
	ldr	r0, [sp, #12]
	.loc	4 1182 36 is_stmt 0     @ ../GD32E230_Firmware_Library/GD32E230_standard_peripheral/Source/gd32e230_timer.c:1182:36
	ldr	r1, [r0, #28]
	movw	r2, #32768
	bics	r1, r2
	str	r1, [r0, #28]
	add	r0, sp, #4
	.loc	4 1183 60 is_stmt 1     @ ../GD32E230_Firmware_Library/GD32E230_standard_peripheral/Source/gd32e230_timer.c:1183:60
	ldrh	r0, [r0]
	.loc	4 1183 68 is_stmt 0     @ ../GD32E230_Firmware_Library/GD32E230_standard_peripheral/Source/gd32e230_timer.c:1183:68
	lsls	r0, r0, #8
	.loc	4 1183 9                @ ../GD32E230_Firmware_Library/GD32E230_standard_peripheral/Source/gd32e230_timer.c:1183:9
	ldr	r1, [sp, #12]
	.loc	4 1183 36               @ ../GD32E230_Firmware_Library/GD32E230_standard_peripheral/Source/gd32e230_timer.c:1183:36
	ldr	r2, [r1, #28]
	orrs	r2, r0
	str	r2, [r1, #28]
	.loc	4 1184 9 is_stmt 1      @ ../GD32E230_Firmware_Library/GD32E230_standard_peripheral/Source/gd32e230_timer.c:1184:9
	b	.LBB47_8
.LBB47_7:
	.loc	4 1186 9                @ ../GD32E230_Firmware_Library/GD32E230_standard_peripheral/Source/gd32e230_timer.c:1186:9
	b	.LBB47_8
.Ltmp194:
.LBB47_8:
	.loc	4 1188 1                @ ../GD32E230_Firmware_Library/GD32E230_standard_peripheral/Source/gd32e230_timer.c:1188:1
	add	sp, #16
	pop	{r4, pc}
.Ltmp195:
.Lfunc_end47:
	.size	timer_channel_output_clear_config, .Lfunc_end47-timer_channel_output_clear_config
	.cfi_endproc
	.cantunwind
	.fnend
                                        @ -- End function
	.section	.text.timer_channel_output_polarity_config,"ax",%progbits
	.hidden	timer_channel_output_polarity_config @ -- Begin function timer_channel_output_polarity_config
	.globl	timer_channel_output_polarity_config
	.p2align	2
	.type	timer_channel_output_polarity_config,%function
	.code	16                      @ @timer_channel_output_polarity_config
	.thumb_func
timer_channel_output_polarity_config:
.Lfunc_begin48:
	.loc	4 1207 0                @ ../GD32E230_Firmware_Library/GD32E230_standard_peripheral/Source/gd32e230_timer.c:1207:0
	.fnstart
	.cfi_startproc
@ %bb.0:
	.save	{r4, lr}
	push	{r4, lr}
	.cfi_def_cfa_offset 8
	.cfi_offset lr, -4
	.cfi_offset r4, -8
	.pad	#16
	sub	sp, #16
	.cfi_def_cfa_offset 24
	mov	r3, r2
	mov	r4, r1
	str	r0, [sp, #12]
	add	r0, sp, #8
	strh	r1, [r0]
	add	r1, sp, #4
	strh	r2, [r1]
.Ltmp196:
	.loc	4 1208 12 prologue_end  @ ../GD32E230_Firmware_Library/GD32E230_standard_peripheral/Source/gd32e230_timer.c:1208:12
	ldrh	r0, [r0]
	.loc	4 1208 5 is_stmt 0      @ ../GD32E230_Firmware_Library/GD32E230_standard_peripheral/Source/gd32e230_timer.c:1208:5
	cmp	r0, #3
	str	r0, [sp]                @ 4-byte Spill
	bhi	.LBB48_7
@ %bb.1:
	.loc	4 0 5                   @ ../GD32E230_Firmware_Library/GD32E230_standard_peripheral/Source/gd32e230_timer.c:0:5
	ldr	r0, [sp]                @ 4-byte Reload
	lsls	r1, r0, #2
	adr	r2, .LJTI48_0
	adds	r1, r2, r1
	mov	pc, r1
@ %bb.2:
	.p2align	2
.LJTI48_0:
	b.w	.LBB48_3
	b.w	.LBB48_4
	b.w	.LBB48_5
	b.w	.LBB48_6
.LBB48_3:
.Ltmp197:
	.loc	4 1211 9 is_stmt 1      @ ../GD32E230_Firmware_Library/GD32E230_standard_peripheral/Source/gd32e230_timer.c:1211:9
	ldr	r0, [sp, #12]
	.loc	4 1211 36 is_stmt 0     @ ../GD32E230_Firmware_Library/GD32E230_standard_peripheral/Source/gd32e230_timer.c:1211:36
	ldr	r1, [r0, #32]
	movs	r2, #2
	bics	r1, r2
	str	r1, [r0, #32]
	add	r0, sp, #4
	.loc	4 1212 49 is_stmt 1     @ ../GD32E230_Firmware_Library/GD32E230_standard_peripheral/Source/gd32e230_timer.c:1212:49
	ldrh	r0, [r0]
	.loc	4 1212 9 is_stmt 0      @ ../GD32E230_Firmware_Library/GD32E230_standard_peripheral/Source/gd32e230_timer.c:1212:9
	ldr	r1, [sp, #12]
	.loc	4 1212 36               @ ../GD32E230_Firmware_Library/GD32E230_standard_peripheral/Source/gd32e230_timer.c:1212:36
	ldr	r2, [r1, #32]
	orrs	r2, r0
	str	r2, [r1, #32]
	.loc	4 1213 9 is_stmt 1      @ ../GD32E230_Firmware_Library/GD32E230_standard_peripheral/Source/gd32e230_timer.c:1213:9
	b	.LBB48_8
.LBB48_4:
	.loc	4 1216 9                @ ../GD32E230_Firmware_Library/GD32E230_standard_peripheral/Source/gd32e230_timer.c:1216:9
	ldr	r0, [sp, #12]
	.loc	4 1216 36 is_stmt 0     @ ../GD32E230_Firmware_Library/GD32E230_standard_peripheral/Source/gd32e230_timer.c:1216:36
	ldr	r1, [r0, #32]
	movs	r2, #32
	bics	r1, r2
	str	r1, [r0, #32]
	add	r0, sp, #4
	.loc	4 1217 60 is_stmt 1     @ ../GD32E230_Firmware_Library/GD32E230_standard_peripheral/Source/gd32e230_timer.c:1217:60
	ldrh	r0, [r0]
	.loc	4 1217 71 is_stmt 0     @ ../GD32E230_Firmware_Library/GD32E230_standard_peripheral/Source/gd32e230_timer.c:1217:71
	lsls	r0, r0, #4
	.loc	4 1217 9                @ ../GD32E230_Firmware_Library/GD32E230_standard_peripheral/Source/gd32e230_timer.c:1217:9
	ldr	r1, [sp, #12]
	.loc	4 1217 36               @ ../GD32E230_Firmware_Library/GD32E230_standard_peripheral/Source/gd32e230_timer.c:1217:36
	ldr	r2, [r1, #32]
	orrs	r2, r0
	str	r2, [r1, #32]
	.loc	4 1218 9 is_stmt 1      @ ../GD32E230_Firmware_Library/GD32E230_standard_peripheral/Source/gd32e230_timer.c:1218:9
	b	.LBB48_8
.LBB48_5:
	.loc	4 1221 9                @ ../GD32E230_Firmware_Library/GD32E230_standard_peripheral/Source/gd32e230_timer.c:1221:9
	ldr	r0, [sp, #12]
	.loc	4 1221 36 is_stmt 0     @ ../GD32E230_Firmware_Library/GD32E230_standard_peripheral/Source/gd32e230_timer.c:1221:36
	ldr	r1, [r0, #32]
	movw	r2, #512
	bics	r1, r2
	str	r1, [r0, #32]
	add	r0, sp, #4
	.loc	4 1222 60 is_stmt 1     @ ../GD32E230_Firmware_Library/GD32E230_standard_peripheral/Source/gd32e230_timer.c:1222:60
	ldrh	r0, [r0]
	.loc	4 1222 71 is_stmt 0     @ ../GD32E230_Firmware_Library/GD32E230_standard_peripheral/Source/gd32e230_timer.c:1222:71
	lsls	r0, r0, #8
	.loc	4 1222 9                @ ../GD32E230_Firmware_Library/GD32E230_standard_peripheral/Source/gd32e230_timer.c:1222:9
	ldr	r1, [sp, #12]
	.loc	4 1222 36               @ ../GD32E230_Firmware_Library/GD32E230_standard_peripheral/Source/gd32e230_timer.c:1222:36
	ldr	r2, [r1, #32]
	orrs	r2, r0
	str	r2, [r1, #32]
	.loc	4 1223 9 is_stmt 1      @ ../GD32E230_Firmware_Library/GD32E230_standard_peripheral/Source/gd32e230_timer.c:1223:9
	b	.LBB48_8
.LBB48_6:
	.loc	4 1226 9                @ ../GD32E230_Firmware_Library/GD32E230_standard_peripheral/Source/gd32e230_timer.c:1226:9
	ldr	r0, [sp, #12]
	.loc	4 1226 36 is_stmt 0     @ ../GD32E230_Firmware_Library/GD32E230_standard_peripheral/Source/gd32e230_timer.c:1226:36
	ldr	r1, [r0, #32]
	movw	r2, #8192
	bics	r1, r2
	str	r1, [r0, #32]
	add	r0, sp, #4
	.loc	4 1227 60 is_stmt 1     @ ../GD32E230_Firmware_Library/GD32E230_standard_peripheral/Source/gd32e230_timer.c:1227:60
	ldrh	r0, [r0]
	.loc	4 1227 71 is_stmt 0     @ ../GD32E230_Firmware_Library/GD32E230_standard_peripheral/Source/gd32e230_timer.c:1227:71
	lsls	r0, r0, #12
	.loc	4 1227 9                @ ../GD32E230_Firmware_Library/GD32E230_standard_peripheral/Source/gd32e230_timer.c:1227:9
	ldr	r1, [sp, #12]
	.loc	4 1227 36               @ ../GD32E230_Firmware_Library/GD32E230_standard_peripheral/Source/gd32e230_timer.c:1227:36
	ldr	r2, [r1, #32]
	orrs	r2, r0
	str	r2, [r1, #32]
	.loc	4 1228 9 is_stmt 1      @ ../GD32E230_Firmware_Library/GD32E230_standard_peripheral/Source/gd32e230_timer.c:1228:9
	b	.LBB48_8
.LBB48_7:
	.loc	4 1230 9                @ ../GD32E230_Firmware_Library/GD32E230_standard_peripheral/Source/gd32e230_timer.c:1230:9
	b	.LBB48_8
.Ltmp198:
.LBB48_8:
	.loc	4 1232 1                @ ../GD32E230_Firmware_Library/GD32E230_standard_peripheral/Source/gd32e230_timer.c:1232:1
	add	sp, #16
	pop	{r4, pc}
.Ltmp199:
.Lfunc_end48:
	.size	timer_channel_output_polarity_config, .Lfunc_end48-timer_channel_output_polarity_config
	.cfi_endproc
	.cantunwind
	.fnend
                                        @ -- End function
	.section	.text.timer_channel_complementary_output_polarity_config,"ax",%progbits
	.hidden	timer_channel_complementary_output_polarity_config @ -- Begin function timer_channel_complementary_output_polarity_config
	.globl	timer_channel_complementary_output_polarity_config
	.p2align	2
	.type	timer_channel_complementary_output_polarity_config,%function
	.code	16                      @ @timer_channel_complementary_output_polarity_config
	.thumb_func
timer_channel_complementary_output_polarity_config:
.Lfunc_begin49:
	.loc	4 1251 0                @ ../GD32E230_Firmware_Library/GD32E230_standard_peripheral/Source/gd32e230_timer.c:1251:0
	.fnstart
	.cfi_startproc
@ %bb.0:
	.save	{r4, lr}
	push	{r4, lr}
	.cfi_def_cfa_offset 8
	.cfi_offset lr, -4
	.cfi_offset r4, -8
	.pad	#16
	sub	sp, #16
	.cfi_def_cfa_offset 24
	mov	r3, r2
	mov	r4, r1
	str	r0, [sp, #12]
	add	r0, sp, #8
	strh	r1, [r0]
	add	r1, sp, #4
	strh	r2, [r1]
.Ltmp200:
	.loc	4 1252 12 prologue_end  @ ../GD32E230_Firmware_Library/GD32E230_standard_peripheral/Source/gd32e230_timer.c:1252:12
	ldrh	r0, [r0]
	.loc	4 1252 5 is_stmt 0      @ ../GD32E230_Firmware_Library/GD32E230_standard_peripheral/Source/gd32e230_timer.c:1252:5
	cmp	r0, #3
	str	r0, [sp]                @ 4-byte Spill
	bhi	.LBB49_7
@ %bb.1:
	.loc	4 0 5                   @ ../GD32E230_Firmware_Library/GD32E230_standard_peripheral/Source/gd32e230_timer.c:0:5
	ldr	r0, [sp]                @ 4-byte Reload
	lsls	r1, r0, #2
	adr	r2, .LJTI49_0
	adds	r1, r2, r1
	mov	pc, r1
@ %bb.2:
	.p2align	2
.LJTI49_0:
	b.w	.LBB49_3
	b.w	.LBB49_4
	b.w	.LBB49_5
	b.w	.LBB49_6
.LBB49_3:
.Ltmp201:
	.loc	4 1255 9 is_stmt 1      @ ../GD32E230_Firmware_Library/GD32E230_standard_peripheral/Source/gd32e230_timer.c:1255:9
	ldr	r0, [sp, #12]
	.loc	4 1255 36 is_stmt 0     @ ../GD32E230_Firmware_Library/GD32E230_standard_peripheral/Source/gd32e230_timer.c:1255:36
	ldr	r1, [r0, #32]
	movs	r2, #8
	bics	r1, r2
	str	r1, [r0, #32]
	add	r0, sp, #4
	.loc	4 1256 49 is_stmt 1     @ ../GD32E230_Firmware_Library/GD32E230_standard_peripheral/Source/gd32e230_timer.c:1256:49
	ldrh	r0, [r0]
	.loc	4 1256 9 is_stmt 0      @ ../GD32E230_Firmware_Library/GD32E230_standard_peripheral/Source/gd32e230_timer.c:1256:9
	ldr	r1, [sp, #12]
	.loc	4 1256 36               @ ../GD32E230_Firmware_Library/GD32E230_standard_peripheral/Source/gd32e230_timer.c:1256:36
	ldr	r2, [r1, #32]
	orrs	r2, r0
	str	r2, [r1, #32]
	.loc	4 1257 9 is_stmt 1      @ ../GD32E230_Firmware_Library/GD32E230_standard_peripheral/Source/gd32e230_timer.c:1257:9
	b	.LBB49_8
.LBB49_4:
	.loc	4 1260 9                @ ../GD32E230_Firmware_Library/GD32E230_standard_peripheral/Source/gd32e230_timer.c:1260:9
	ldr	r0, [sp, #12]
	.loc	4 1260 36 is_stmt 0     @ ../GD32E230_Firmware_Library/GD32E230_standard_peripheral/Source/gd32e230_timer.c:1260:36
	ldr	r1, [r0, #32]
	movs	r2, #128
	bics	r1, r2
	str	r1, [r0, #32]
	add	r0, sp, #4
	.loc	4 1261 60 is_stmt 1     @ ../GD32E230_Firmware_Library/GD32E230_standard_peripheral/Source/gd32e230_timer.c:1261:60
	ldrh	r0, [r0]
	.loc	4 1261 72 is_stmt 0     @ ../GD32E230_Firmware_Library/GD32E230_standard_peripheral/Source/gd32e230_timer.c:1261:72
	lsls	r0, r0, #4
	.loc	4 1261 9                @ ../GD32E230_Firmware_Library/GD32E230_standard_peripheral/Source/gd32e230_timer.c:1261:9
	ldr	r1, [sp, #12]
	.loc	4 1261 36               @ ../GD32E230_Firmware_Library/GD32E230_standard_peripheral/Source/gd32e230_timer.c:1261:36
	ldr	r2, [r1, #32]
	orrs	r2, r0
	str	r2, [r1, #32]
	.loc	4 1262 9 is_stmt 1      @ ../GD32E230_Firmware_Library/GD32E230_standard_peripheral/Source/gd32e230_timer.c:1262:9
	b	.LBB49_8
.LBB49_5:
	.loc	4 1265 9                @ ../GD32E230_Firmware_Library/GD32E230_standard_peripheral/Source/gd32e230_timer.c:1265:9
	ldr	r0, [sp, #12]
	.loc	4 1265 36 is_stmt 0     @ ../GD32E230_Firmware_Library/GD32E230_standard_peripheral/Source/gd32e230_timer.c:1265:36
	ldr	r1, [r0, #32]
	movw	r2, #2048
	bics	r1, r2
	str	r1, [r0, #32]
	add	r0, sp, #4
	.loc	4 1266 60 is_stmt 1     @ ../GD32E230_Firmware_Library/GD32E230_standard_peripheral/Source/gd32e230_timer.c:1266:60
	ldrh	r0, [r0]
	.loc	4 1266 72 is_stmt 0     @ ../GD32E230_Firmware_Library/GD32E230_standard_peripheral/Source/gd32e230_timer.c:1266:72
	lsls	r0, r0, #8
	.loc	4 1266 9                @ ../GD32E230_Firmware_Library/GD32E230_standard_peripheral/Source/gd32e230_timer.c:1266:9
	ldr	r1, [sp, #12]
	.loc	4 1266 36               @ ../GD32E230_Firmware_Library/GD32E230_standard_peripheral/Source/gd32e230_timer.c:1266:36
	ldr	r2, [r1, #32]
	orrs	r2, r0
	str	r2, [r1, #32]
	.loc	4 1267 9 is_stmt 1      @ ../GD32E230_Firmware_Library/GD32E230_standard_peripheral/Source/gd32e230_timer.c:1267:9
	b	.LBB49_8
.LBB49_6:
	.loc	4 1270 9                @ ../GD32E230_Firmware_Library/GD32E230_standard_peripheral/Source/gd32e230_timer.c:1270:9
	ldr	r0, [sp, #12]
	.loc	4 1270 36 is_stmt 0     @ ../GD32E230_Firmware_Library/GD32E230_standard_peripheral/Source/gd32e230_timer.c:1270:36
	ldr	r1, [r0, #32]
	movw	r2, #32768
	bics	r1, r2
	str	r1, [r0, #32]
	add	r0, sp, #4
	.loc	4 1271 60 is_stmt 1     @ ../GD32E230_Firmware_Library/GD32E230_standard_peripheral/Source/gd32e230_timer.c:1271:60
	ldrh	r0, [r0]
	.loc	4 1271 72 is_stmt 0     @ ../GD32E230_Firmware_Library/GD32E230_standard_peripheral/Source/gd32e230_timer.c:1271:72
	lsls	r0, r0, #12
	.loc	4 1271 9                @ ../GD32E230_Firmware_Library/GD32E230_standard_peripheral/Source/gd32e230_timer.c:1271:9
	ldr	r1, [sp, #12]
	.loc	4 1271 36               @ ../GD32E230_Firmware_Library/GD32E230_standard_peripheral/Source/gd32e230_timer.c:1271:36
	ldr	r2, [r1, #32]
	orrs	r2, r0
	str	r2, [r1, #32]
	.loc	4 1272 9 is_stmt 1      @ ../GD32E230_Firmware_Library/GD32E230_standard_peripheral/Source/gd32e230_timer.c:1272:9
	b	.LBB49_8
.LBB49_7:
	.loc	4 1274 9                @ ../GD32E230_Firmware_Library/GD32E230_standard_peripheral/Source/gd32e230_timer.c:1274:9
	b	.LBB49_8
.Ltmp202:
.LBB49_8:
	.loc	4 1276 1                @ ../GD32E230_Firmware_Library/GD32E230_standard_peripheral/Source/gd32e230_timer.c:1276:1
	add	sp, #16
	pop	{r4, pc}
.Ltmp203:
.Lfunc_end49:
	.size	timer_channel_complementary_output_polarity_config, .Lfunc_end49-timer_channel_complementary_output_polarity_config
	.cfi_endproc
	.cantunwind
	.fnend
                                        @ -- End function
	.section	.text.timer_channel_output_state_config,"ax",%progbits
	.hidden	timer_channel_output_state_config @ -- Begin function timer_channel_output_state_config
	.globl	timer_channel_output_state_config
	.p2align	2
	.type	timer_channel_output_state_config,%function
	.code	16                      @ @timer_channel_output_state_config
	.thumb_func
timer_channel_output_state_config:
.Lfunc_begin50:
	.loc	4 1295 0                @ ../GD32E230_Firmware_Library/GD32E230_standard_peripheral/Source/gd32e230_timer.c:1295:0
	.fnstart
	.cfi_startproc
@ %bb.0:
	.pad	#16
	sub	sp, #16
	.cfi_def_cfa_offset 16
	mov	r3, r1
	str	r0, [sp, #12]
	add	r0, sp, #8
	strh	r1, [r0]
	str	r2, [sp, #4]
.Ltmp204:
	.loc	4 1296 12 prologue_end  @ ../GD32E230_Firmware_Library/GD32E230_standard_peripheral/Source/gd32e230_timer.c:1296:12
	ldrh	r0, [r0]
	.loc	4 1296 5 is_stmt 0      @ ../GD32E230_Firmware_Library/GD32E230_standard_peripheral/Source/gd32e230_timer.c:1296:5
	cmp	r0, #3
	str	r0, [sp]                @ 4-byte Spill
	bhi	.LBB50_7
@ %bb.1:
	.loc	4 0 5                   @ ../GD32E230_Firmware_Library/GD32E230_standard_peripheral/Source/gd32e230_timer.c:0:5
	ldr	r0, [sp]                @ 4-byte Reload
	lsls	r1, r0, #2
	adr	r2, .LJTI50_0
	adds	r1, r2, r1
	mov	pc, r1
@ %bb.2:
	.p2align	2
.LJTI50_0:
	b.w	.LBB50_3
	b.w	.LBB50_4
	b.w	.LBB50_5
	b.w	.LBB50_6
.LBB50_3:
.Ltmp205:
	.loc	4 1299 9 is_stmt 1      @ ../GD32E230_Firmware_Library/GD32E230_standard_peripheral/Source/gd32e230_timer.c:1299:9
	ldr	r0, [sp, #12]
	.loc	4 1299 36 is_stmt 0     @ ../GD32E230_Firmware_Library/GD32E230_standard_peripheral/Source/gd32e230_timer.c:1299:36
	ldr	r1, [r0, #32]
	movs	r2, #1
	bics	r1, r2
	str	r1, [r0, #32]
	.loc	4 1300 49 is_stmt 1     @ ../GD32E230_Firmware_Library/GD32E230_standard_peripheral/Source/gd32e230_timer.c:1300:49
	ldr	r0, [sp, #4]
	.loc	4 1300 9 is_stmt 0      @ ../GD32E230_Firmware_Library/GD32E230_standard_peripheral/Source/gd32e230_timer.c:1300:9
	ldr	r1, [sp, #12]
	.loc	4 1300 36               @ ../GD32E230_Firmware_Library/GD32E230_standard_peripheral/Source/gd32e230_timer.c:1300:36
	ldr	r2, [r1, #32]
	orrs	r2, r0
	str	r2, [r1, #32]
	.loc	4 1301 9 is_stmt 1      @ ../GD32E230_Firmware_Library/GD32E230_standard_peripheral/Source/gd32e230_timer.c:1301:9
	b	.LBB50_8
.LBB50_4:
	.loc	4 1304 9                @ ../GD32E230_Firmware_Library/GD32E230_standard_peripheral/Source/gd32e230_timer.c:1304:9
	ldr	r0, [sp, #12]
	.loc	4 1304 36 is_stmt 0     @ ../GD32E230_Firmware_Library/GD32E230_standard_peripheral/Source/gd32e230_timer.c:1304:36
	ldr	r1, [r0, #32]
	movs	r2, #16
	bics	r1, r2
	str	r1, [r0, #32]
	.loc	4 1305 60 is_stmt 1     @ ../GD32E230_Firmware_Library/GD32E230_standard_peripheral/Source/gd32e230_timer.c:1305:60
	ldr	r0, [sp, #4]
	.loc	4 1305 66 is_stmt 0     @ ../GD32E230_Firmware_Library/GD32E230_standard_peripheral/Source/gd32e230_timer.c:1305:66
	lsls	r0, r0, #4
	.loc	4 1305 9                @ ../GD32E230_Firmware_Library/GD32E230_standard_peripheral/Source/gd32e230_timer.c:1305:9
	ldr	r1, [sp, #12]
	.loc	4 1305 36               @ ../GD32E230_Firmware_Library/GD32E230_standard_peripheral/Source/gd32e230_timer.c:1305:36
	ldr	r2, [r1, #32]
	orrs	r2, r0
	str	r2, [r1, #32]
	.loc	4 1306 9 is_stmt 1      @ ../GD32E230_Firmware_Library/GD32E230_standard_peripheral/Source/gd32e230_timer.c:1306:9
	b	.LBB50_8
.LBB50_5:
	.loc	4 1309 9                @ ../GD32E230_Firmware_Library/GD32E230_standard_peripheral/Source/gd32e230_timer.c:1309:9
	ldr	r0, [sp, #12]
	.loc	4 1309 36 is_stmt 0     @ ../GD32E230_Firmware_Library/GD32E230_standard_peripheral/Source/gd32e230_timer.c:1309:36
	ldr	r1, [r0, #32]
	movw	r2, #256
	bics	r1, r2
	str	r1, [r0, #32]
	.loc	4 1310 60 is_stmt 1     @ ../GD32E230_Firmware_Library/GD32E230_standard_peripheral/Source/gd32e230_timer.c:1310:60
	ldr	r0, [sp, #4]
	.loc	4 1310 66 is_stmt 0     @ ../GD32E230_Firmware_Library/GD32E230_standard_peripheral/Source/gd32e230_timer.c:1310:66
	lsls	r0, r0, #8
	.loc	4 1310 9                @ ../GD32E230_Firmware_Library/GD32E230_standard_peripheral/Source/gd32e230_timer.c:1310:9
	ldr	r1, [sp, #12]
	.loc	4 1310 36               @ ../GD32E230_Firmware_Library/GD32E230_standard_peripheral/Source/gd32e230_timer.c:1310:36
	ldr	r2, [r1, #32]
	orrs	r2, r0
	str	r2, [r1, #32]
	.loc	4 1311 9 is_stmt 1      @ ../GD32E230_Firmware_Library/GD32E230_standard_peripheral/Source/gd32e230_timer.c:1311:9
	b	.LBB50_8
.LBB50_6:
	.loc	4 1314 9                @ ../GD32E230_Firmware_Library/GD32E230_standard_peripheral/Source/gd32e230_timer.c:1314:9
	ldr	r0, [sp, #12]
	.loc	4 1314 36 is_stmt 0     @ ../GD32E230_Firmware_Library/GD32E230_standard_peripheral/Source/gd32e230_timer.c:1314:36
	ldr	r1, [r0, #32]
	movw	r2, #4096
	bics	r1, r2
	str	r1, [r0, #32]
	.loc	4 1315 60 is_stmt 1     @ ../GD32E230_Firmware_Library/GD32E230_standard_peripheral/Source/gd32e230_timer.c:1315:60
	ldr	r0, [sp, #4]
	.loc	4 1315 66 is_stmt 0     @ ../GD32E230_Firmware_Library/GD32E230_standard_peripheral/Source/gd32e230_timer.c:1315:66
	lsls	r0, r0, #12
	.loc	4 1315 9                @ ../GD32E230_Firmware_Library/GD32E230_standard_peripheral/Source/gd32e230_timer.c:1315:9
	ldr	r1, [sp, #12]
	.loc	4 1315 36               @ ../GD32E230_Firmware_Library/GD32E230_standard_peripheral/Source/gd32e230_timer.c:1315:36
	ldr	r2, [r1, #32]
	orrs	r2, r0
	str	r2, [r1, #32]
	.loc	4 1316 9 is_stmt 1      @ ../GD32E230_Firmware_Library/GD32E230_standard_peripheral/Source/gd32e230_timer.c:1316:9
	b	.LBB50_8
.LBB50_7:
	.loc	4 1318 9                @ ../GD32E230_Firmware_Library/GD32E230_standard_peripheral/Source/gd32e230_timer.c:1318:9
	b	.LBB50_8
.Ltmp206:
.LBB50_8:
	.loc	4 1320 1                @ ../GD32E230_Firmware_Library/GD32E230_standard_peripheral/Source/gd32e230_timer.c:1320:1
	add	sp, #16
	bx	lr
.Ltmp207:
.Lfunc_end50:
	.size	timer_channel_output_state_config, .Lfunc_end50-timer_channel_output_state_config
	.cfi_endproc
	.cantunwind
	.fnend
                                        @ -- End function
	.section	.text.timer_channel_complementary_output_state_config,"ax",%progbits
	.hidden	timer_channel_complementary_output_state_config @ -- Begin function timer_channel_complementary_output_state_config
	.globl	timer_channel_complementary_output_state_config
	.p2align	1
	.type	timer_channel_complementary_output_state_config,%function
	.code	16                      @ @timer_channel_complementary_output_state_config
	.thumb_func
timer_channel_complementary_output_state_config:
.Lfunc_begin51:
	.loc	4 1338 0                @ ../GD32E230_Firmware_Library/GD32E230_standard_peripheral/Source/gd32e230_timer.c:1338:0
	.fnstart
	.cfi_startproc
@ %bb.0:
	.save	{r4, lr}
	push	{r4, lr}
	.cfi_def_cfa_offset 8
	.cfi_offset lr, -4
	.cfi_offset r4, -8
	.pad	#16
	sub	sp, #16
	.cfi_def_cfa_offset 24
	mov	r3, r2
	mov	r4, r1
	str	r0, [sp, #12]
	add	r0, sp, #8
	strh	r1, [r0]
	add	r1, sp, #4
	strh	r2, [r1]
.Ltmp208:
	.loc	4 1339 12 prologue_end  @ ../GD32E230_Firmware_Library/GD32E230_standard_peripheral/Source/gd32e230_timer.c:1339:12
	ldrh	r0, [r0]
	.loc	4 1339 5 is_stmt 0      @ ../GD32E230_Firmware_Library/GD32E230_standard_peripheral/Source/gd32e230_timer.c:1339:5
	cmp	r0, #0
	str	r0, [sp]                @ 4-byte Spill
	beq	.LBB51_3
	b	.LBB51_1
.LBB51_1:
	ldr	r0, [sp]                @ 4-byte Reload
	cmp	r0, #1
	beq	.LBB51_4
	b	.LBB51_2
.LBB51_2:
	ldr	r0, [sp]                @ 4-byte Reload
	cmp	r0, #2
	beq	.LBB51_5
	b	.LBB51_6
.LBB51_3:
.Ltmp209:
	.loc	4 1342 9 is_stmt 1      @ ../GD32E230_Firmware_Library/GD32E230_standard_peripheral/Source/gd32e230_timer.c:1342:9
	ldr	r0, [sp, #12]
	.loc	4 1342 36 is_stmt 0     @ ../GD32E230_Firmware_Library/GD32E230_standard_peripheral/Source/gd32e230_timer.c:1342:36
	ldr	r1, [r0, #32]
	movs	r2, #4
	bics	r1, r2
	str	r1, [r0, #32]
	add	r0, sp, #4
	.loc	4 1343 49 is_stmt 1     @ ../GD32E230_Firmware_Library/GD32E230_standard_peripheral/Source/gd32e230_timer.c:1343:49
	ldrh	r0, [r0]
	.loc	4 1343 9 is_stmt 0      @ ../GD32E230_Firmware_Library/GD32E230_standard_peripheral/Source/gd32e230_timer.c:1343:9
	ldr	r1, [sp, #12]
	.loc	4 1343 36               @ ../GD32E230_Firmware_Library/GD32E230_standard_peripheral/Source/gd32e230_timer.c:1343:36
	ldr	r2, [r1, #32]
	orrs	r2, r0
	str	r2, [r1, #32]
	.loc	4 1344 9 is_stmt 1      @ ../GD32E230_Firmware_Library/GD32E230_standard_peripheral/Source/gd32e230_timer.c:1344:9
	b	.LBB51_7
.LBB51_4:
	.loc	4 1347 9                @ ../GD32E230_Firmware_Library/GD32E230_standard_peripheral/Source/gd32e230_timer.c:1347:9
	ldr	r0, [sp, #12]
	.loc	4 1347 36 is_stmt 0     @ ../GD32E230_Firmware_Library/GD32E230_standard_peripheral/Source/gd32e230_timer.c:1347:36
	ldr	r1, [r0, #32]
	movs	r2, #64
	bics	r1, r2
	str	r1, [r0, #32]
	add	r0, sp, #4
	.loc	4 1348 60 is_stmt 1     @ ../GD32E230_Firmware_Library/GD32E230_standard_peripheral/Source/gd32e230_timer.c:1348:60
	ldrh	r0, [r0]
	.loc	4 1348 69 is_stmt 0     @ ../GD32E230_Firmware_Library/GD32E230_standard_peripheral/Source/gd32e230_timer.c:1348:69
	lsls	r0, r0, #4
	.loc	4 1348 9                @ ../GD32E230_Firmware_Library/GD32E230_standard_peripheral/Source/gd32e230_timer.c:1348:9
	ldr	r1, [sp, #12]
	.loc	4 1348 36               @ ../GD32E230_Firmware_Library/GD32E230_standard_peripheral/Source/gd32e230_timer.c:1348:36
	ldr	r2, [r1, #32]
	orrs	r2, r0
	str	r2, [r1, #32]
	.loc	4 1349 9 is_stmt 1      @ ../GD32E230_Firmware_Library/GD32E230_standard_peripheral/Source/gd32e230_timer.c:1349:9
	b	.LBB51_7
.LBB51_5:
	.loc	4 1352 9                @ ../GD32E230_Firmware_Library/GD32E230_standard_peripheral/Source/gd32e230_timer.c:1352:9
	ldr	r0, [sp, #12]
	.loc	4 1352 36 is_stmt 0     @ ../GD32E230_Firmware_Library/GD32E230_standard_peripheral/Source/gd32e230_timer.c:1352:36
	ldr	r1, [r0, #32]
	movw	r2, #1024
	bics	r1, r2
	str	r1, [r0, #32]
	add	r0, sp, #4
	.loc	4 1353 60 is_stmt 1     @ ../GD32E230_Firmware_Library/GD32E230_standard_peripheral/Source/gd32e230_timer.c:1353:60
	ldrh	r0, [r0]
	.loc	4 1353 69 is_stmt 0     @ ../GD32E230_Firmware_Library/GD32E230_standard_peripheral/Source/gd32e230_timer.c:1353:69
	lsls	r0, r0, #8
	.loc	4 1353 9                @ ../GD32E230_Firmware_Library/GD32E230_standard_peripheral/Source/gd32e230_timer.c:1353:9
	ldr	r1, [sp, #12]
	.loc	4 1353 36               @ ../GD32E230_Firmware_Library/GD32E230_standard_peripheral/Source/gd32e230_timer.c:1353:36
	ldr	r2, [r1, #32]
	orrs	r2, r0
	str	r2, [r1, #32]
	.loc	4 1354 9 is_stmt 1      @ ../GD32E230_Firmware_Library/GD32E230_standard_peripheral/Source/gd32e230_timer.c:1354:9
	b	.LBB51_7
.LBB51_6:
	.loc	4 1356 9                @ ../GD32E230_Firmware_Library/GD32E230_standard_peripheral/Source/gd32e230_timer.c:1356:9
	b	.LBB51_7
.Ltmp210:
.LBB51_7:
	.loc	4 1358 1                @ ../GD32E230_Firmware_Library/GD32E230_standard_peripheral/Source/gd32e230_timer.c:1358:1
	add	sp, #16
	pop	{r4, pc}
.Ltmp211:
.Lfunc_end51:
	.size	timer_channel_complementary_output_state_config, .Lfunc_end51-timer_channel_complementary_output_state_config
	.cfi_endproc
	.cantunwind
	.fnend
                                        @ -- End function
	.section	.text.timer_channel_input_struct_para_init,"ax",%progbits
	.hidden	timer_channel_input_struct_para_init @ -- Begin function timer_channel_input_struct_para_init
	.globl	timer_channel_input_struct_para_init
	.p2align	1
	.type	timer_channel_input_struct_para_init,%function
	.code	16                      @ @timer_channel_input_struct_para_init
	.thumb_func
timer_channel_input_struct_para_init:
.Lfunc_begin52:
	.loc	4 1367 0                @ ../GD32E230_Firmware_Library/GD32E230_standard_peripheral/Source/gd32e230_timer.c:1367:0
	.fnstart
	.cfi_startproc
@ %bb.0:
	.pad	#4
	sub	sp, #4
	.cfi_def_cfa_offset 4
	str	r0, [sp]
.Ltmp212:
	.loc	4 1369 5 prologue_end   @ ../GD32E230_Firmware_Library/GD32E230_standard_peripheral/Source/gd32e230_timer.c:1369:5
	ldr	r0, [sp]
	movs	r1, #0
	.loc	4 1369 25 is_stmt 0     @ ../GD32E230_Firmware_Library/GD32E230_standard_peripheral/Source/gd32e230_timer.c:1369:25
	strh	r1, [r0]
	.loc	4 1370 5 is_stmt 1      @ ../GD32E230_Firmware_Library/GD32E230_standard_peripheral/Source/gd32e230_timer.c:1370:5
	ldr	r0, [sp]
	movs	r2, #1
	.loc	4 1370 25 is_stmt 0     @ ../GD32E230_Firmware_Library/GD32E230_standard_peripheral/Source/gd32e230_timer.c:1370:25
	strh	r2, [r0, #2]
	.loc	4 1371 5 is_stmt 1      @ ../GD32E230_Firmware_Library/GD32E230_standard_peripheral/Source/gd32e230_timer.c:1371:5
	ldr	r0, [sp]
	.loc	4 1371 25 is_stmt 0     @ ../GD32E230_Firmware_Library/GD32E230_standard_peripheral/Source/gd32e230_timer.c:1371:25
	strh	r1, [r0, #4]
	.loc	4 1372 5 is_stmt 1      @ ../GD32E230_Firmware_Library/GD32E230_standard_peripheral/Source/gd32e230_timer.c:1372:5
	ldr	r0, [sp]
	.loc	4 1372 25 is_stmt 0     @ ../GD32E230_Firmware_Library/GD32E230_standard_peripheral/Source/gd32e230_timer.c:1372:25
	strh	r1, [r0, #6]
	.loc	4 1373 1 is_stmt 1      @ ../GD32E230_Firmware_Library/GD32E230_standard_peripheral/Source/gd32e230_timer.c:1373:1
	add	sp, #4
	bx	lr
.Ltmp213:
.Lfunc_end52:
	.size	timer_channel_input_struct_para_init, .Lfunc_end52-timer_channel_input_struct_para_init
	.cfi_endproc
	.cantunwind
	.fnend
                                        @ -- End function
	.section	.text.timer_input_capture_config,"ax",%progbits
	.hidden	timer_input_capture_config @ -- Begin function timer_input_capture_config
	.globl	timer_input_capture_config
	.p2align	2
	.type	timer_input_capture_config,%function
	.code	16                      @ @timer_input_capture_config
	.thumb_func
timer_input_capture_config:
.Lfunc_begin53:
	.loc	4 1393 0                @ ../GD32E230_Firmware_Library/GD32E230_standard_peripheral/Source/gd32e230_timer.c:1393:0
	.fnstart
	.cfi_startproc
@ %bb.0:
	.save	{r7, lr}
	push	{r7, lr}
	.cfi_def_cfa_offset 8
	.cfi_offset lr, -4
	.cfi_offset r7, -8
	.pad	#16
	sub	sp, #16
	.cfi_def_cfa_offset 24
	mov	r3, r1
	str	r0, [sp, #12]
	add	r0, sp, #8
	strh	r1, [r0]
	str	r2, [sp, #4]
.Ltmp214:
	.loc	4 1394 12 prologue_end  @ ../GD32E230_Firmware_Library/GD32E230_standard_peripheral/Source/gd32e230_timer.c:1394:12
	ldrh	r0, [r0]
	.loc	4 1394 5 is_stmt 0      @ ../GD32E230_Firmware_Library/GD32E230_standard_peripheral/Source/gd32e230_timer.c:1394:5
	cmp	r0, #3
	str	r0, [sp]                @ 4-byte Spill
	bls	.LBB53_1
	b	.LBB53_7
.LBB53_1:
	.loc	4 0 5                   @ ../GD32E230_Firmware_Library/GD32E230_standard_peripheral/Source/gd32e230_timer.c:0:5
	ldr	r0, [sp]                @ 4-byte Reload
	lsls	r1, r0, #2
	adr	r2, .LJTI53_0
	adds	r1, r2, r1
	mov	pc, r1
@ %bb.2:
	.p2align	2
.LJTI53_0:
	b.w	.LBB53_3
	b.w	.LBB53_4
	b.w	.LBB53_5
	b.w	.LBB53_6
.LBB53_3:
.Ltmp215:
	.loc	4 1398 9 is_stmt 1      @ ../GD32E230_Firmware_Library/GD32E230_standard_peripheral/Source/gd32e230_timer.c:1398:9
	ldr	r0, [sp, #12]
	.loc	4 1398 36 is_stmt 0     @ ../GD32E230_Firmware_Library/GD32E230_standard_peripheral/Source/gd32e230_timer.c:1398:36
	ldr	r1, [r0, #32]
	movs	r2, #1
	bics	r1, r2
	str	r1, [r0, #32]
	.loc	4 1401 9 is_stmt 1      @ ../GD32E230_Firmware_Library/GD32E230_standard_peripheral/Source/gd32e230_timer.c:1401:9
	ldr	r0, [sp, #12]
	.loc	4 1401 36 is_stmt 0     @ ../GD32E230_Firmware_Library/GD32E230_standard_peripheral/Source/gd32e230_timer.c:1401:36
	ldr	r1, [r0, #32]
	movs	r3, #10
	bics	r1, r3
	str	r1, [r0, #32]
	.loc	4 1402 50 is_stmt 1     @ ../GD32E230_Firmware_Library/GD32E230_standard_peripheral/Source/gd32e230_timer.c:1402:50
	ldr	r0, [sp, #4]
	.loc	4 1402 58 is_stmt 0     @ ../GD32E230_Firmware_Library/GD32E230_standard_peripheral/Source/gd32e230_timer.c:1402:58
	ldrh	r0, [r0]
	.loc	4 1402 9                @ ../GD32E230_Firmware_Library/GD32E230_standard_peripheral/Source/gd32e230_timer.c:1402:9
	ldr	r1, [sp, #12]
	.loc	4 1402 36               @ ../GD32E230_Firmware_Library/GD32E230_standard_peripheral/Source/gd32e230_timer.c:1402:36
	ldr	r3, [r1, #32]
	orrs	r3, r0
	str	r3, [r1, #32]
	.loc	4 1404 9 is_stmt 1      @ ../GD32E230_Firmware_Library/GD32E230_standard_peripheral/Source/gd32e230_timer.c:1404:9
	ldr	r0, [sp, #12]
	.loc	4 1404 36 is_stmt 0     @ ../GD32E230_Firmware_Library/GD32E230_standard_peripheral/Source/gd32e230_timer.c:1404:36
	ldr	r1, [r0, #24]
	movs	r3, #3
	bics	r1, r3
	str	r1, [r0, #24]
	.loc	4 1405 50 is_stmt 1     @ ../GD32E230_Firmware_Library/GD32E230_standard_peripheral/Source/gd32e230_timer.c:1405:50
	ldr	r0, [sp, #4]
	.loc	4 1405 58 is_stmt 0     @ ../GD32E230_Firmware_Library/GD32E230_standard_peripheral/Source/gd32e230_timer.c:1405:58
	ldrh	r0, [r0, #2]
	.loc	4 1405 9                @ ../GD32E230_Firmware_Library/GD32E230_standard_peripheral/Source/gd32e230_timer.c:1405:9
	ldr	r1, [sp, #12]
	.loc	4 1405 36               @ ../GD32E230_Firmware_Library/GD32E230_standard_peripheral/Source/gd32e230_timer.c:1405:36
	ldr	r3, [r1, #24]
	orrs	r3, r0
	str	r3, [r1, #24]
	.loc	4 1407 9 is_stmt 1      @ ../GD32E230_Firmware_Library/GD32E230_standard_peripheral/Source/gd32e230_timer.c:1407:9
	ldr	r0, [sp, #12]
	.loc	4 1407 36 is_stmt 0     @ ../GD32E230_Firmware_Library/GD32E230_standard_peripheral/Source/gd32e230_timer.c:1407:36
	ldr	r1, [r0, #24]
	movs	r3, #240
	bics	r1, r3
	str	r1, [r0, #24]
	.loc	4 1408 61 is_stmt 1     @ ../GD32E230_Firmware_Library/GD32E230_standard_peripheral/Source/gd32e230_timer.c:1408:61
	ldr	r0, [sp, #4]
	.loc	4 1408 69 is_stmt 0     @ ../GD32E230_Firmware_Library/GD32E230_standard_peripheral/Source/gd32e230_timer.c:1408:69
	ldrh	r0, [r0, #6]
	.loc	4 1408 79               @ ../GD32E230_Firmware_Library/GD32E230_standard_peripheral/Source/gd32e230_timer.c:1408:79
	lsls	r0, r0, #4
	.loc	4 1408 9                @ ../GD32E230_Firmware_Library/GD32E230_standard_peripheral/Source/gd32e230_timer.c:1408:9
	ldr	r1, [sp, #12]
	.loc	4 1408 36               @ ../GD32E230_Firmware_Library/GD32E230_standard_peripheral/Source/gd32e230_timer.c:1408:36
	ldr	r3, [r1, #24]
	orrs	r3, r0
	str	r3, [r1, #24]
	.loc	4 1411 9 is_stmt 1      @ ../GD32E230_Firmware_Library/GD32E230_standard_peripheral/Source/gd32e230_timer.c:1411:9
	ldr	r0, [sp, #12]
	.loc	4 1411 36 is_stmt 0     @ ../GD32E230_Firmware_Library/GD32E230_standard_peripheral/Source/gd32e230_timer.c:1411:36
	ldr	r1, [r0, #32]
	orrs	r1, r2
	str	r1, [r0, #32]
	.loc	4 1412 9 is_stmt 1      @ ../GD32E230_Firmware_Library/GD32E230_standard_peripheral/Source/gd32e230_timer.c:1412:9
	b	.LBB53_8
.LBB53_4:
	.loc	4 1417 9                @ ../GD32E230_Firmware_Library/GD32E230_standard_peripheral/Source/gd32e230_timer.c:1417:9
	ldr	r0, [sp, #12]
	.loc	4 1417 36 is_stmt 0     @ ../GD32E230_Firmware_Library/GD32E230_standard_peripheral/Source/gd32e230_timer.c:1417:36
	ldr	r1, [r0, #32]
	movs	r2, #16
	bics	r1, r2
	str	r1, [r0, #32]
	.loc	4 1420 9 is_stmt 1      @ ../GD32E230_Firmware_Library/GD32E230_standard_peripheral/Source/gd32e230_timer.c:1420:9
	ldr	r0, [sp, #12]
	.loc	4 1420 36 is_stmt 0     @ ../GD32E230_Firmware_Library/GD32E230_standard_peripheral/Source/gd32e230_timer.c:1420:36
	ldr	r1, [r0, #32]
	movs	r3, #160
	bics	r1, r3
	str	r1, [r0, #32]
	.loc	4 1421 61 is_stmt 1     @ ../GD32E230_Firmware_Library/GD32E230_standard_peripheral/Source/gd32e230_timer.c:1421:61
	ldr	r0, [sp, #4]
	.loc	4 1421 69 is_stmt 0     @ ../GD32E230_Firmware_Library/GD32E230_standard_peripheral/Source/gd32e230_timer.c:1421:69
	ldrh	r0, [r0]
	.loc	4 1421 81               @ ../GD32E230_Firmware_Library/GD32E230_standard_peripheral/Source/gd32e230_timer.c:1421:81
	lsls	r0, r0, #4
	.loc	4 1421 9                @ ../GD32E230_Firmware_Library/GD32E230_standard_peripheral/Source/gd32e230_timer.c:1421:9
	ldr	r1, [sp, #12]
	.loc	4 1421 36               @ ../GD32E230_Firmware_Library/GD32E230_standard_peripheral/Source/gd32e230_timer.c:1421:36
	ldr	r3, [r1, #32]
	orrs	r3, r0
	str	r3, [r1, #32]
	.loc	4 1423 9 is_stmt 1      @ ../GD32E230_Firmware_Library/GD32E230_standard_peripheral/Source/gd32e230_timer.c:1423:9
	ldr	r0, [sp, #12]
	.loc	4 1423 36 is_stmt 0     @ ../GD32E230_Firmware_Library/GD32E230_standard_peripheral/Source/gd32e230_timer.c:1423:36
	ldr	r1, [r0, #24]
	movw	r3, #768
	bics	r1, r3
	str	r1, [r0, #24]
	.loc	4 1424 61 is_stmt 1     @ ../GD32E230_Firmware_Library/GD32E230_standard_peripheral/Source/gd32e230_timer.c:1424:61
	ldr	r0, [sp, #4]
	.loc	4 1424 69 is_stmt 0     @ ../GD32E230_Firmware_Library/GD32E230_standard_peripheral/Source/gd32e230_timer.c:1424:69
	ldrh	r0, [r0, #2]
	.loc	4 1424 82               @ ../GD32E230_Firmware_Library/GD32E230_standard_peripheral/Source/gd32e230_timer.c:1424:82
	lsls	r0, r0, #8
	.loc	4 1424 9                @ ../GD32E230_Firmware_Library/GD32E230_standard_peripheral/Source/gd32e230_timer.c:1424:9
	ldr	r1, [sp, #12]
	.loc	4 1424 36               @ ../GD32E230_Firmware_Library/GD32E230_standard_peripheral/Source/gd32e230_timer.c:1424:36
	ldr	r3, [r1, #24]
	orrs	r3, r0
	str	r3, [r1, #24]
	.loc	4 1426 9 is_stmt 1      @ ../GD32E230_Firmware_Library/GD32E230_standard_peripheral/Source/gd32e230_timer.c:1426:9
	ldr	r0, [sp, #12]
	.loc	4 1426 36 is_stmt 0     @ ../GD32E230_Firmware_Library/GD32E230_standard_peripheral/Source/gd32e230_timer.c:1426:36
	ldr	r1, [r0, #24]
	movw	r3, #61440
	bics	r1, r3
	str	r1, [r0, #24]
	.loc	4 1427 61 is_stmt 1     @ ../GD32E230_Firmware_Library/GD32E230_standard_peripheral/Source/gd32e230_timer.c:1427:61
	ldr	r0, [sp, #4]
	.loc	4 1427 69 is_stmt 0     @ ../GD32E230_Firmware_Library/GD32E230_standard_peripheral/Source/gd32e230_timer.c:1427:69
	ldrh	r0, [r0, #6]
	.loc	4 1427 79               @ ../GD32E230_Firmware_Library/GD32E230_standard_peripheral/Source/gd32e230_timer.c:1427:79
	lsls	r0, r0, #12
	.loc	4 1427 9                @ ../GD32E230_Firmware_Library/GD32E230_standard_peripheral/Source/gd32e230_timer.c:1427:9
	ldr	r1, [sp, #12]
	.loc	4 1427 36               @ ../GD32E230_Firmware_Library/GD32E230_standard_peripheral/Source/gd32e230_timer.c:1427:36
	ldr	r3, [r1, #24]
	orrs	r3, r0
	str	r3, [r1, #24]
	.loc	4 1430 9 is_stmt 1      @ ../GD32E230_Firmware_Library/GD32E230_standard_peripheral/Source/gd32e230_timer.c:1430:9
	ldr	r0, [sp, #12]
	.loc	4 1430 36 is_stmt 0     @ ../GD32E230_Firmware_Library/GD32E230_standard_peripheral/Source/gd32e230_timer.c:1430:36
	ldr	r1, [r0, #32]
	orrs	r1, r2
	str	r1, [r0, #32]
	.loc	4 1431 9 is_stmt 1      @ ../GD32E230_Firmware_Library/GD32E230_standard_peripheral/Source/gd32e230_timer.c:1431:9
	b	.LBB53_8
.LBB53_5:
	.loc	4 1435 9                @ ../GD32E230_Firmware_Library/GD32E230_standard_peripheral/Source/gd32e230_timer.c:1435:9
	ldr	r0, [sp, #12]
	.loc	4 1435 36 is_stmt 0     @ ../GD32E230_Firmware_Library/GD32E230_standard_peripheral/Source/gd32e230_timer.c:1435:36
	ldr	r1, [r0, #32]
	movw	r2, #256
	bics	r1, r2
	str	r1, [r0, #32]
	.loc	4 1438 9 is_stmt 1      @ ../GD32E230_Firmware_Library/GD32E230_standard_peripheral/Source/gd32e230_timer.c:1438:9
	ldr	r0, [sp, #12]
	.loc	4 1438 36 is_stmt 0     @ ../GD32E230_Firmware_Library/GD32E230_standard_peripheral/Source/gd32e230_timer.c:1438:36
	ldr	r1, [r0, #32]
	movw	r3, #2560
	bics	r1, r3
	str	r1, [r0, #32]
	.loc	4 1439 61 is_stmt 1     @ ../GD32E230_Firmware_Library/GD32E230_standard_peripheral/Source/gd32e230_timer.c:1439:61
	ldr	r0, [sp, #4]
	.loc	4 1439 69 is_stmt 0     @ ../GD32E230_Firmware_Library/GD32E230_standard_peripheral/Source/gd32e230_timer.c:1439:69
	ldrh	r0, [r0]
	.loc	4 1439 81               @ ../GD32E230_Firmware_Library/GD32E230_standard_peripheral/Source/gd32e230_timer.c:1439:81
	lsls	r0, r0, #8
	.loc	4 1439 9                @ ../GD32E230_Firmware_Library/GD32E230_standard_peripheral/Source/gd32e230_timer.c:1439:9
	ldr	r1, [sp, #12]
	.loc	4 1439 36               @ ../GD32E230_Firmware_Library/GD32E230_standard_peripheral/Source/gd32e230_timer.c:1439:36
	ldr	r3, [r1, #32]
	orrs	r3, r0
	str	r3, [r1, #32]
	.loc	4 1442 9 is_stmt 1      @ ../GD32E230_Firmware_Library/GD32E230_standard_peripheral/Source/gd32e230_timer.c:1442:9
	ldr	r0, [sp, #12]
	.loc	4 1442 36 is_stmt 0     @ ../GD32E230_Firmware_Library/GD32E230_standard_peripheral/Source/gd32e230_timer.c:1442:36
	ldr	r1, [r0, #28]
	movs	r3, #3
	bics	r1, r3
	str	r1, [r0, #28]
	.loc	4 1443 61 is_stmt 1     @ ../GD32E230_Firmware_Library/GD32E230_standard_peripheral/Source/gd32e230_timer.c:1443:61
	ldr	r0, [sp, #4]
	.loc	4 1443 69 is_stmt 0     @ ../GD32E230_Firmware_Library/GD32E230_standard_peripheral/Source/gd32e230_timer.c:1443:69
	ldrh	r0, [r0, #2]
	.loc	4 1443 9                @ ../GD32E230_Firmware_Library/GD32E230_standard_peripheral/Source/gd32e230_timer.c:1443:9
	ldr	r1, [sp, #12]
	.loc	4 1443 36               @ ../GD32E230_Firmware_Library/GD32E230_standard_peripheral/Source/gd32e230_timer.c:1443:36
	ldr	r3, [r1, #28]
	orrs	r3, r0
	str	r3, [r1, #28]
	.loc	4 1446 9 is_stmt 1      @ ../GD32E230_Firmware_Library/GD32E230_standard_peripheral/Source/gd32e230_timer.c:1446:9
	ldr	r0, [sp, #12]
	.loc	4 1446 36 is_stmt 0     @ ../GD32E230_Firmware_Library/GD32E230_standard_peripheral/Source/gd32e230_timer.c:1446:36
	ldr	r1, [r0, #28]
	movs	r3, #240
	bics	r1, r3
	str	r1, [r0, #28]
	.loc	4 1447 61 is_stmt 1     @ ../GD32E230_Firmware_Library/GD32E230_standard_peripheral/Source/gd32e230_timer.c:1447:61
	ldr	r0, [sp, #4]
	.loc	4 1447 69 is_stmt 0     @ ../GD32E230_Firmware_Library/GD32E230_standard_peripheral/Source/gd32e230_timer.c:1447:69
	ldrh	r0, [r0, #6]
	.loc	4 1447 79               @ ../GD32E230_Firmware_Library/GD32E230_standard_peripheral/Source/gd32e230_timer.c:1447:79
	lsls	r0, r0, #4
	.loc	4 1447 9                @ ../GD32E230_Firmware_Library/GD32E230_standard_peripheral/Source/gd32e230_timer.c:1447:9
	ldr	r1, [sp, #12]
	.loc	4 1447 36               @ ../GD32E230_Firmware_Library/GD32E230_standard_peripheral/Source/gd32e230_timer.c:1447:36
	ldr	r3, [r1, #28]
	orrs	r3, r0
	str	r3, [r1, #28]
	.loc	4 1450 9 is_stmt 1      @ ../GD32E230_Firmware_Library/GD32E230_standard_peripheral/Source/gd32e230_timer.c:1450:9
	ldr	r0, [sp, #12]
	.loc	4 1450 36 is_stmt 0     @ ../GD32E230_Firmware_Library/GD32E230_standard_peripheral/Source/gd32e230_timer.c:1450:36
	ldr	r1, [r0, #32]
	orrs	r1, r2
	str	r1, [r0, #32]
	.loc	4 1451 9 is_stmt 1      @ ../GD32E230_Firmware_Library/GD32E230_standard_peripheral/Source/gd32e230_timer.c:1451:9
	b	.LBB53_8
.LBB53_6:
	.loc	4 1455 9                @ ../GD32E230_Firmware_Library/GD32E230_standard_peripheral/Source/gd32e230_timer.c:1455:9
	ldr	r0, [sp, #12]
	.loc	4 1455 36 is_stmt 0     @ ../GD32E230_Firmware_Library/GD32E230_standard_peripheral/Source/gd32e230_timer.c:1455:36
	ldr	r1, [r0, #32]
	movw	r2, #4096
	bics	r1, r2
	str	r1, [r0, #32]
	.loc	4 1458 9 is_stmt 1      @ ../GD32E230_Firmware_Library/GD32E230_standard_peripheral/Source/gd32e230_timer.c:1458:9
	ldr	r0, [sp, #12]
	.loc	4 1458 36 is_stmt 0     @ ../GD32E230_Firmware_Library/GD32E230_standard_peripheral/Source/gd32e230_timer.c:1458:36
	ldr	r1, [r0, #32]
	movw	r3, #40960
	bics	r1, r3
	str	r1, [r0, #32]
	.loc	4 1459 61 is_stmt 1     @ ../GD32E230_Firmware_Library/GD32E230_standard_peripheral/Source/gd32e230_timer.c:1459:61
	ldr	r0, [sp, #4]
	.loc	4 1459 69 is_stmt 0     @ ../GD32E230_Firmware_Library/GD32E230_standard_peripheral/Source/gd32e230_timer.c:1459:69
	ldrh	r0, [r0]
	.loc	4 1459 81               @ ../GD32E230_Firmware_Library/GD32E230_standard_peripheral/Source/gd32e230_timer.c:1459:81
	lsls	r0, r0, #12
	.loc	4 1459 9                @ ../GD32E230_Firmware_Library/GD32E230_standard_peripheral/Source/gd32e230_timer.c:1459:9
	ldr	r1, [sp, #12]
	.loc	4 1459 36               @ ../GD32E230_Firmware_Library/GD32E230_standard_peripheral/Source/gd32e230_timer.c:1459:36
	ldr	r3, [r1, #32]
	orrs	r3, r0
	str	r3, [r1, #32]
	.loc	4 1462 9 is_stmt 1      @ ../GD32E230_Firmware_Library/GD32E230_standard_peripheral/Source/gd32e230_timer.c:1462:9
	ldr	r0, [sp, #12]
	.loc	4 1462 36 is_stmt 0     @ ../GD32E230_Firmware_Library/GD32E230_standard_peripheral/Source/gd32e230_timer.c:1462:36
	ldr	r1, [r0, #28]
	movw	r3, #768
	bics	r1, r3
	str	r1, [r0, #28]
	.loc	4 1463 61 is_stmt 1     @ ../GD32E230_Firmware_Library/GD32E230_standard_peripheral/Source/gd32e230_timer.c:1463:61
	ldr	r0, [sp, #4]
	.loc	4 1463 69 is_stmt 0     @ ../GD32E230_Firmware_Library/GD32E230_standard_peripheral/Source/gd32e230_timer.c:1463:69
	ldrh	r0, [r0, #2]
	.loc	4 1463 82               @ ../GD32E230_Firmware_Library/GD32E230_standard_peripheral/Source/gd32e230_timer.c:1463:82
	lsls	r0, r0, #8
	.loc	4 1463 9                @ ../GD32E230_Firmware_Library/GD32E230_standard_peripheral/Source/gd32e230_timer.c:1463:9
	ldr	r1, [sp, #12]
	.loc	4 1463 36               @ ../GD32E230_Firmware_Library/GD32E230_standard_peripheral/Source/gd32e230_timer.c:1463:36
	ldr	r3, [r1, #28]
	orrs	r3, r0
	str	r3, [r1, #28]
	.loc	4 1466 9 is_stmt 1      @ ../GD32E230_Firmware_Library/GD32E230_standard_peripheral/Source/gd32e230_timer.c:1466:9
	ldr	r0, [sp, #12]
	.loc	4 1466 36 is_stmt 0     @ ../GD32E230_Firmware_Library/GD32E230_standard_peripheral/Source/gd32e230_timer.c:1466:36
	ldr	r1, [r0, #28]
	movw	r3, #61440
	bics	r1, r3
	str	r1, [r0, #28]
	.loc	4 1467 61 is_stmt 1     @ ../GD32E230_Firmware_Library/GD32E230_standard_peripheral/Source/gd32e230_timer.c:1467:61
	ldr	r0, [sp, #4]
	.loc	4 1467 69 is_stmt 0     @ ../GD32E230_Firmware_Library/GD32E230_standard_peripheral/Source/gd32e230_timer.c:1467:69
	ldrh	r0, [r0, #6]
	.loc	4 1467 79               @ ../GD32E230_Firmware_Library/GD32E230_standard_peripheral/Source/gd32e230_timer.c:1467:79
	lsls	r0, r0, #12
	.loc	4 1467 9                @ ../GD32E230_Firmware_Library/GD32E230_standard_peripheral/Source/gd32e230_timer.c:1467:9
	ldr	r1, [sp, #12]
	.loc	4 1467 36               @ ../GD32E230_Firmware_Library/GD32E230_standard_peripheral/Source/gd32e230_timer.c:1467:36
	ldr	r3, [r1, #28]
	orrs	r3, r0
	str	r3, [r1, #28]
	.loc	4 1470 9 is_stmt 1      @ ../GD32E230_Firmware_Library/GD32E230_standard_peripheral/Source/gd32e230_timer.c:1470:9
	ldr	r0, [sp, #12]
	.loc	4 1470 36 is_stmt 0     @ ../GD32E230_Firmware_Library/GD32E230_standard_peripheral/Source/gd32e230_timer.c:1470:36
	ldr	r1, [r0, #32]
	orrs	r1, r2
	str	r1, [r0, #32]
	.loc	4 1471 9 is_stmt 1      @ ../GD32E230_Firmware_Library/GD32E230_standard_peripheral/Source/gd32e230_timer.c:1471:9
	b	.LBB53_8
.LBB53_7:
	.loc	4 1473 9                @ ../GD32E230_Firmware_Library/GD32E230_standard_peripheral/Source/gd32e230_timer.c:1473:9
	b	.LBB53_8
.Ltmp216:
.LBB53_8:
	.loc	4 1476 50               @ ../GD32E230_Firmware_Library/GD32E230_standard_peripheral/Source/gd32e230_timer.c:1476:50
	ldr	r0, [sp, #12]
	add	r1, sp, #8
	.loc	4 1476 64 is_stmt 0     @ ../GD32E230_Firmware_Library/GD32E230_standard_peripheral/Source/gd32e230_timer.c:1476:64
	ldrh	r1, [r1]
	.loc	4 1476 84               @ ../GD32E230_Firmware_Library/GD32E230_standard_peripheral/Source/gd32e230_timer.c:1476:84
	ldr	r2, [sp, #4]
	.loc	4 1476 92               @ ../GD32E230_Firmware_Library/GD32E230_standard_peripheral/Source/gd32e230_timer.c:1476:92
	ldrh	r2, [r2, #4]
	.loc	4 1476 5                @ ../GD32E230_Firmware_Library/GD32E230_standard_peripheral/Source/gd32e230_timer.c:1476:5
	bl	timer_channel_input_capture_prescaler_config
	.loc	4 1477 1 is_stmt 1      @ ../GD32E230_Firmware_Library/GD32E230_standard_peripheral/Source/gd32e230_timer.c:1477:1
	add	sp, #16
	pop	{r7, pc}
.Ltmp217:
.Lfunc_end53:
	.size	timer_input_capture_config, .Lfunc_end53-timer_input_capture_config
	.cfi_endproc
	.cantunwind
	.fnend
                                        @ -- End function
	.section	.text.timer_channel_input_capture_prescaler_config,"ax",%progbits
	.hidden	timer_channel_input_capture_prescaler_config @ -- Begin function timer_channel_input_capture_prescaler_config
	.globl	timer_channel_input_capture_prescaler_config
	.p2align	2
	.type	timer_channel_input_capture_prescaler_config,%function
	.code	16                      @ @timer_channel_input_capture_prescaler_config
	.thumb_func
timer_channel_input_capture_prescaler_config:
.Lfunc_begin54:
	.loc	4 1498 0                @ ../GD32E230_Firmware_Library/GD32E230_standard_peripheral/Source/gd32e230_timer.c:1498:0
	.fnstart
	.cfi_startproc
@ %bb.0:
	.save	{r4, lr}
	push	{r4, lr}
	.cfi_def_cfa_offset 8
	.cfi_offset lr, -4
	.cfi_offset r4, -8
	.pad	#16
	sub	sp, #16
	.cfi_def_cfa_offset 24
	mov	r3, r2
	mov	r4, r1
	str	r0, [sp, #12]
	add	r0, sp, #8
	strh	r1, [r0]
	add	r1, sp, #4
	strh	r2, [r1]
.Ltmp218:
	.loc	4 1499 12 prologue_end  @ ../GD32E230_Firmware_Library/GD32E230_standard_peripheral/Source/gd32e230_timer.c:1499:12
	ldrh	r0, [r0]
	.loc	4 1499 5 is_stmt 0      @ ../GD32E230_Firmware_Library/GD32E230_standard_peripheral/Source/gd32e230_timer.c:1499:5
	cmp	r0, #3
	str	r0, [sp]                @ 4-byte Spill
	bhi	.LBB54_7
@ %bb.1:
	.loc	4 0 5                   @ ../GD32E230_Firmware_Library/GD32E230_standard_peripheral/Source/gd32e230_timer.c:0:5
	ldr	r0, [sp]                @ 4-byte Reload
	lsls	r1, r0, #2
	adr	r2, .LJTI54_0
	adds	r1, r2, r1
	mov	pc, r1
@ %bb.2:
	.p2align	2
.LJTI54_0:
	b.w	.LBB54_3
	b.w	.LBB54_4
	b.w	.LBB54_5
	b.w	.LBB54_6
.LBB54_3:
.Ltmp219:
	.loc	4 1502 9 is_stmt 1      @ ../GD32E230_Firmware_Library/GD32E230_standard_peripheral/Source/gd32e230_timer.c:1502:9
	ldr	r0, [sp, #12]
	.loc	4 1502 36 is_stmt 0     @ ../GD32E230_Firmware_Library/GD32E230_standard_peripheral/Source/gd32e230_timer.c:1502:36
	ldr	r1, [r0, #24]
	movs	r2, #12
	bics	r1, r2
	str	r1, [r0, #24]
	add	r0, sp, #4
	.loc	4 1503 49 is_stmt 1     @ ../GD32E230_Firmware_Library/GD32E230_standard_peripheral/Source/gd32e230_timer.c:1503:49
	ldrh	r0, [r0]
	.loc	4 1503 9 is_stmt 0      @ ../GD32E230_Firmware_Library/GD32E230_standard_peripheral/Source/gd32e230_timer.c:1503:9
	ldr	r1, [sp, #12]
	.loc	4 1503 36               @ ../GD32E230_Firmware_Library/GD32E230_standard_peripheral/Source/gd32e230_timer.c:1503:36
	ldr	r2, [r1, #24]
	orrs	r2, r0
	str	r2, [r1, #24]
	.loc	4 1504 9 is_stmt 1      @ ../GD32E230_Firmware_Library/GD32E230_standard_peripheral/Source/gd32e230_timer.c:1504:9
	b	.LBB54_8
.LBB54_4:
	.loc	4 1507 9                @ ../GD32E230_Firmware_Library/GD32E230_standard_peripheral/Source/gd32e230_timer.c:1507:9
	ldr	r0, [sp, #12]
	.loc	4 1507 36 is_stmt 0     @ ../GD32E230_Firmware_Library/GD32E230_standard_peripheral/Source/gd32e230_timer.c:1507:36
	ldr	r1, [r0, #24]
	movw	r2, #3072
	bics	r1, r2
	str	r1, [r0, #24]
	add	r0, sp, #4
	.loc	4 1508 50 is_stmt 1     @ ../GD32E230_Firmware_Library/GD32E230_standard_peripheral/Source/gd32e230_timer.c:1508:50
	ldrh	r0, [r0]
	.loc	4 1508 60 is_stmt 0     @ ../GD32E230_Firmware_Library/GD32E230_standard_peripheral/Source/gd32e230_timer.c:1508:60
	lsls	r0, r0, #8
	.loc	4 1508 9                @ ../GD32E230_Firmware_Library/GD32E230_standard_peripheral/Source/gd32e230_timer.c:1508:9
	ldr	r1, [sp, #12]
	.loc	4 1508 36               @ ../GD32E230_Firmware_Library/GD32E230_standard_peripheral/Source/gd32e230_timer.c:1508:36
	ldr	r2, [r1, #24]
	orrs	r2, r0
	str	r2, [r1, #24]
	.loc	4 1509 9 is_stmt 1      @ ../GD32E230_Firmware_Library/GD32E230_standard_peripheral/Source/gd32e230_timer.c:1509:9
	b	.LBB54_8
.LBB54_5:
	.loc	4 1512 9                @ ../GD32E230_Firmware_Library/GD32E230_standard_peripheral/Source/gd32e230_timer.c:1512:9
	ldr	r0, [sp, #12]
	.loc	4 1512 36 is_stmt 0     @ ../GD32E230_Firmware_Library/GD32E230_standard_peripheral/Source/gd32e230_timer.c:1512:36
	ldr	r1, [r0, #28]
	movs	r2, #12
	bics	r1, r2
	str	r1, [r0, #28]
	add	r0, sp, #4
	.loc	4 1513 49 is_stmt 1     @ ../GD32E230_Firmware_Library/GD32E230_standard_peripheral/Source/gd32e230_timer.c:1513:49
	ldrh	r0, [r0]
	.loc	4 1513 9 is_stmt 0      @ ../GD32E230_Firmware_Library/GD32E230_standard_peripheral/Source/gd32e230_timer.c:1513:9
	ldr	r1, [sp, #12]
	.loc	4 1513 36               @ ../GD32E230_Firmware_Library/GD32E230_standard_peripheral/Source/gd32e230_timer.c:1513:36
	ldr	r2, [r1, #28]
	orrs	r2, r0
	str	r2, [r1, #28]
	.loc	4 1514 9 is_stmt 1      @ ../GD32E230_Firmware_Library/GD32E230_standard_peripheral/Source/gd32e230_timer.c:1514:9
	b	.LBB54_8
.LBB54_6:
	.loc	4 1517 9                @ ../GD32E230_Firmware_Library/GD32E230_standard_peripheral/Source/gd32e230_timer.c:1517:9
	ldr	r0, [sp, #12]
	.loc	4 1517 36 is_stmt 0     @ ../GD32E230_Firmware_Library/GD32E230_standard_peripheral/Source/gd32e230_timer.c:1517:36
	ldr	r1, [r0, #28]
	movw	r2, #3072
	bics	r1, r2
	str	r1, [r0, #28]
	add	r0, sp, #4
	.loc	4 1518 50 is_stmt 1     @ ../GD32E230_Firmware_Library/GD32E230_standard_peripheral/Source/gd32e230_timer.c:1518:50
	ldrh	r0, [r0]
	.loc	4 1518 60 is_stmt 0     @ ../GD32E230_Firmware_Library/GD32E230_standard_peripheral/Source/gd32e230_timer.c:1518:60
	lsls	r0, r0, #8
	.loc	4 1518 9                @ ../GD32E230_Firmware_Library/GD32E230_standard_peripheral/Source/gd32e230_timer.c:1518:9
	ldr	r1, [sp, #12]
	.loc	4 1518 36               @ ../GD32E230_Firmware_Library/GD32E230_standard_peripheral/Source/gd32e230_timer.c:1518:36
	ldr	r2, [r1, #28]
	orrs	r2, r0
	str	r2, [r1, #28]
	.loc	4 1519 9 is_stmt 1      @ ../GD32E230_Firmware_Library/GD32E230_standard_peripheral/Source/gd32e230_timer.c:1519:9
	b	.LBB54_8
.LBB54_7:
	.loc	4 1521 9                @ ../GD32E230_Firmware_Library/GD32E230_standard_peripheral/Source/gd32e230_timer.c:1521:9
	b	.LBB54_8
.Ltmp220:
.LBB54_8:
	.loc	4 1523 1                @ ../GD32E230_Firmware_Library/GD32E230_standard_peripheral/Source/gd32e230_timer.c:1523:1
	add	sp, #16
	pop	{r4, pc}
.Ltmp221:
.Lfunc_end54:
	.size	timer_channel_input_capture_prescaler_config, .Lfunc_end54-timer_channel_input_capture_prescaler_config
	.cfi_endproc
	.cantunwind
	.fnend
                                        @ -- End function
	.section	.text.timer_channel_capture_value_register_read,"ax",%progbits
	.hidden	timer_channel_capture_value_register_read @ -- Begin function timer_channel_capture_value_register_read
	.globl	timer_channel_capture_value_register_read
	.p2align	2
	.type	timer_channel_capture_value_register_read,%function
	.code	16                      @ @timer_channel_capture_value_register_read
	.thumb_func
timer_channel_capture_value_register_read:
.Lfunc_begin55:
	.loc	4 1538 0                @ ../GD32E230_Firmware_Library/GD32E230_standard_peripheral/Source/gd32e230_timer.c:1538:0
	.fnstart
	.cfi_startproc
@ %bb.0:
	.pad	#16
	sub	sp, #16
	.cfi_def_cfa_offset 16
	mov	r2, r1
	str	r0, [sp, #12]
	add	r0, sp, #8
	strh	r1, [r0]
	movs	r1, #0
.Ltmp222:
	.loc	4 1539 14 prologue_end  @ ../GD32E230_Firmware_Library/GD32E230_standard_peripheral/Source/gd32e230_timer.c:1539:14
	str	r1, [sp, #4]
	.loc	4 1541 12               @ ../GD32E230_Firmware_Library/GD32E230_standard_peripheral/Source/gd32e230_timer.c:1541:12
	ldrh	r0, [r0]
	.loc	4 1541 5 is_stmt 0      @ ../GD32E230_Firmware_Library/GD32E230_standard_peripheral/Source/gd32e230_timer.c:1541:5
	cmp	r0, #3
	str	r0, [sp]                @ 4-byte Spill
	bhi	.LBB55_7
@ %bb.1:
	.loc	4 0 5                   @ ../GD32E230_Firmware_Library/GD32E230_standard_peripheral/Source/gd32e230_timer.c:0:5
	ldr	r0, [sp]                @ 4-byte Reload
	lsls	r1, r0, #2
	adr	r2, .LJTI55_0
	adds	r1, r2, r1
	mov	pc, r1
@ %bb.2:
	.p2align	2
.LJTI55_0:
	b.w	.LBB55_3
	b.w	.LBB55_4
	b.w	.LBB55_5
	b.w	.LBB55_6
.LBB55_3:
.Ltmp223:
	.loc	4 1544 23 is_stmt 1     @ ../GD32E230_Firmware_Library/GD32E230_standard_peripheral/Source/gd32e230_timer.c:1544:23
	ldr	r0, [sp, #12]
	ldr	r0, [r0, #52]
	.loc	4 1544 21 is_stmt 0     @ ../GD32E230_Firmware_Library/GD32E230_standard_peripheral/Source/gd32e230_timer.c:1544:21
	str	r0, [sp, #4]
	.loc	4 1545 9 is_stmt 1      @ ../GD32E230_Firmware_Library/GD32E230_standard_peripheral/Source/gd32e230_timer.c:1545:9
	b	.LBB55_8
.LBB55_4:
	.loc	4 1548 23               @ ../GD32E230_Firmware_Library/GD32E230_standard_peripheral/Source/gd32e230_timer.c:1548:23
	ldr	r0, [sp, #12]
	ldr	r0, [r0, #56]
	.loc	4 1548 21 is_stmt 0     @ ../GD32E230_Firmware_Library/GD32E230_standard_peripheral/Source/gd32e230_timer.c:1548:21
	str	r0, [sp, #4]
	.loc	4 1549 9 is_stmt 1      @ ../GD32E230_Firmware_Library/GD32E230_standard_peripheral/Source/gd32e230_timer.c:1549:9
	b	.LBB55_8
.LBB55_5:
	.loc	4 1552 23               @ ../GD32E230_Firmware_Library/GD32E230_standard_peripheral/Source/gd32e230_timer.c:1552:23
	ldr	r0, [sp, #12]
	ldr	r0, [r0, #60]
	.loc	4 1552 21 is_stmt 0     @ ../GD32E230_Firmware_Library/GD32E230_standard_peripheral/Source/gd32e230_timer.c:1552:21
	str	r0, [sp, #4]
	.loc	4 1553 9 is_stmt 1      @ ../GD32E230_Firmware_Library/GD32E230_standard_peripheral/Source/gd32e230_timer.c:1553:9
	b	.LBB55_8
.LBB55_6:
	.loc	4 1556 23               @ ../GD32E230_Firmware_Library/GD32E230_standard_peripheral/Source/gd32e230_timer.c:1556:23
	ldr	r0, [sp, #12]
	ldr	r0, [r0, #64]
	.loc	4 1556 21 is_stmt 0     @ ../GD32E230_Firmware_Library/GD32E230_standard_peripheral/Source/gd32e230_timer.c:1556:21
	str	r0, [sp, #4]
	.loc	4 1557 9 is_stmt 1      @ ../GD32E230_Firmware_Library/GD32E230_standard_peripheral/Source/gd32e230_timer.c:1557:9
	b	.LBB55_8
.LBB55_7:
	.loc	4 1559 9                @ ../GD32E230_Firmware_Library/GD32E230_standard_peripheral/Source/gd32e230_timer.c:1559:9
	b	.LBB55_8
.Ltmp224:
.LBB55_8:
	.loc	4 1561 13               @ ../GD32E230_Firmware_Library/GD32E230_standard_peripheral/Source/gd32e230_timer.c:1561:13
	ldr	r0, [sp, #4]
	.loc	4 1561 5 is_stmt 0      @ ../GD32E230_Firmware_Library/GD32E230_standard_peripheral/Source/gd32e230_timer.c:1561:5
	add	sp, #16
	bx	lr
.Ltmp225:
.Lfunc_end55:
	.size	timer_channel_capture_value_register_read, .Lfunc_end55-timer_channel_capture_value_register_read
	.cfi_endproc
	.cantunwind
	.fnend
                                        @ -- End function
	.section	.text.timer_input_pwm_capture_config,"ax",%progbits
	.hidden	timer_input_pwm_capture_config @ -- Begin function timer_input_pwm_capture_config
	.globl	timer_input_pwm_capture_config
	.p2align	1
	.type	timer_input_pwm_capture_config,%function
	.code	16                      @ @timer_input_pwm_capture_config
	.thumb_func
timer_input_pwm_capture_config:
.Lfunc_begin56:
	.loc	4 1580 0 is_stmt 1      @ ../GD32E230_Firmware_Library/GD32E230_standard_peripheral/Source/gd32e230_timer.c:1580:0
	.fnstart
	.cfi_startproc
@ %bb.0:
	.save	{r7, lr}
	push	{r7, lr}
	.cfi_def_cfa_offset 8
	.cfi_offset lr, -4
	.cfi_offset r7, -8
	.pad	#32
	sub	sp, #32
	.cfi_def_cfa_offset 40
	mov	r3, r1
	str	r0, [sp, #28]
	add	r0, sp, #24
	strh	r1, [r0]
	str	r2, [sp, #20]
	add	r0, sp, #16
	movs	r1, #0
.Ltmp226:
	.loc	4 1581 14 prologue_end  @ ../GD32E230_Firmware_Library/GD32E230_standard_peripheral/Source/gd32e230_timer.c:1581:14
	strh	r1, [r0]
	add	r0, sp, #12
	.loc	4 1582 14               @ ../GD32E230_Firmware_Library/GD32E230_standard_peripheral/Source/gd32e230_timer.c:1582:14
	strh	r1, [r0]
.Ltmp227:
	.loc	4 1585 36               @ ../GD32E230_Firmware_Library/GD32E230_standard_peripheral/Source/gd32e230_timer.c:1585:36
	ldr	r0, [sp, #20]
	.loc	4 1585 43 is_stmt 0     @ ../GD32E230_Firmware_Library/GD32E230_standard_peripheral/Source/gd32e230_timer.c:1585:43
	ldrh	r0, [r0]
.Ltmp228:
	.loc	4 1585 8                @ ../GD32E230_Firmware_Library/GD32E230_standard_peripheral/Source/gd32e230_timer.c:1585:8
	cmp	r0, #0
	bne	.LBB56_2
	b	.LBB56_1
.LBB56_1:
	.loc	4 0 8                   @ ../GD32E230_Firmware_Library/GD32E230_standard_peripheral/Source/gd32e230_timer.c:0:8
	add	r0, sp, #16
	movs	r1, #2
.Ltmp229:
	.loc	4 1586 20 is_stmt 1     @ ../GD32E230_Firmware_Library/GD32E230_standard_peripheral/Source/gd32e230_timer.c:1586:20
	strh	r1, [r0]
	.loc	4 1587 5                @ ../GD32E230_Firmware_Library/GD32E230_standard_peripheral/Source/gd32e230_timer.c:1587:5
	b	.LBB56_3
.Ltmp230:
.LBB56_2:
	.loc	4 0 5 is_stmt 0         @ ../GD32E230_Firmware_Library/GD32E230_standard_peripheral/Source/gd32e230_timer.c:0:5
	add	r0, sp, #16
	movs	r1, #0
.Ltmp231:
	.loc	4 1588 20 is_stmt 1     @ ../GD32E230_Firmware_Library/GD32E230_standard_peripheral/Source/gd32e230_timer.c:1588:20
	strh	r1, [r0]
	b	.LBB56_3
.Ltmp232:
.LBB56_3:
	.loc	4 1592 39               @ ../GD32E230_Firmware_Library/GD32E230_standard_peripheral/Source/gd32e230_timer.c:1592:39
	ldr	r0, [sp, #20]
	.loc	4 1592 46 is_stmt 0     @ ../GD32E230_Firmware_Library/GD32E230_standard_peripheral/Source/gd32e230_timer.c:1592:46
	ldrh	r0, [r0, #2]
.Ltmp233:
	.loc	4 1592 8                @ ../GD32E230_Firmware_Library/GD32E230_standard_peripheral/Source/gd32e230_timer.c:1592:8
	cmp	r0, #1
	bne	.LBB56_5
	b	.LBB56_4
.LBB56_4:
	.loc	4 0 8                   @ ../GD32E230_Firmware_Library/GD32E230_standard_peripheral/Source/gd32e230_timer.c:0:8
	add	r0, sp, #12
	movs	r1, #2
.Ltmp234:
	.loc	4 1593 21 is_stmt 1     @ ../GD32E230_Firmware_Library/GD32E230_standard_peripheral/Source/gd32e230_timer.c:1593:21
	strh	r1, [r0]
	.loc	4 1594 5                @ ../GD32E230_Firmware_Library/GD32E230_standard_peripheral/Source/gd32e230_timer.c:1594:5
	b	.LBB56_6
.Ltmp235:
.LBB56_5:
	.loc	4 0 5 is_stmt 0         @ ../GD32E230_Firmware_Library/GD32E230_standard_peripheral/Source/gd32e230_timer.c:0:5
	add	r0, sp, #12
	movs	r1, #1
.Ltmp236:
	.loc	4 1595 21 is_stmt 1     @ ../GD32E230_Firmware_Library/GD32E230_standard_peripheral/Source/gd32e230_timer.c:1595:21
	strh	r1, [r0]
	b	.LBB56_6
.Ltmp237:
.LBB56_6:
	.loc	4 0 21 is_stmt 0        @ ../GD32E230_Firmware_Library/GD32E230_standard_peripheral/Source/gd32e230_timer.c:0:21
	add	r0, sp, #24
.Ltmp238:
	.loc	4 1598 22 is_stmt 1     @ ../GD32E230_Firmware_Library/GD32E230_standard_peripheral/Source/gd32e230_timer.c:1598:22
	ldrh	r0, [r0]
.Ltmp239:
	.loc	4 1598 8 is_stmt 0      @ ../GD32E230_Firmware_Library/GD32E230_standard_peripheral/Source/gd32e230_timer.c:1598:8
	cmp	r0, #0
	bne	.LBB56_8
	b	.LBB56_7
.LBB56_7:
.Ltmp240:
	.loc	4 1600 9 is_stmt 1      @ ../GD32E230_Firmware_Library/GD32E230_standard_peripheral/Source/gd32e230_timer.c:1600:9
	ldr	r0, [sp, #28]
	.loc	4 1600 36 is_stmt 0     @ ../GD32E230_Firmware_Library/GD32E230_standard_peripheral/Source/gd32e230_timer.c:1600:36
	ldr	r1, [r0, #32]
	movs	r2, #1
	bics	r1, r2
	str	r1, [r0, #32]
	.loc	4 1602 9 is_stmt 1      @ ../GD32E230_Firmware_Library/GD32E230_standard_peripheral/Source/gd32e230_timer.c:1602:9
	ldr	r0, [sp, #28]
	.loc	4 1602 36 is_stmt 0     @ ../GD32E230_Firmware_Library/GD32E230_standard_peripheral/Source/gd32e230_timer.c:1602:36
	ldr	r1, [r0, #32]
	movs	r3, #10
	bics	r1, r3
	str	r1, [r0, #32]
	.loc	4 1604 50 is_stmt 1     @ ../GD32E230_Firmware_Library/GD32E230_standard_peripheral/Source/gd32e230_timer.c:1604:50
	ldr	r0, [sp, #20]
	.loc	4 1604 57 is_stmt 0     @ ../GD32E230_Firmware_Library/GD32E230_standard_peripheral/Source/gd32e230_timer.c:1604:57
	ldrh	r0, [r0]
	.loc	4 1604 9                @ ../GD32E230_Firmware_Library/GD32E230_standard_peripheral/Source/gd32e230_timer.c:1604:9
	ldr	r1, [sp, #28]
	.loc	4 1604 36               @ ../GD32E230_Firmware_Library/GD32E230_standard_peripheral/Source/gd32e230_timer.c:1604:36
	ldr	r3, [r1, #32]
	orrs	r3, r0
	str	r3, [r1, #32]
	.loc	4 1606 9 is_stmt 1      @ ../GD32E230_Firmware_Library/GD32E230_standard_peripheral/Source/gd32e230_timer.c:1606:9
	ldr	r0, [sp, #28]
	.loc	4 1606 36 is_stmt 0     @ ../GD32E230_Firmware_Library/GD32E230_standard_peripheral/Source/gd32e230_timer.c:1606:36
	ldr	r1, [r0, #24]
	movs	r3, #3
	bics	r1, r3
	str	r1, [r0, #24]
	.loc	4 1608 50 is_stmt 1     @ ../GD32E230_Firmware_Library/GD32E230_standard_peripheral/Source/gd32e230_timer.c:1608:50
	ldr	r0, [sp, #20]
	.loc	4 1608 57 is_stmt 0     @ ../GD32E230_Firmware_Library/GD32E230_standard_peripheral/Source/gd32e230_timer.c:1608:57
	ldrh	r0, [r0, #2]
	.loc	4 1608 9                @ ../GD32E230_Firmware_Library/GD32E230_standard_peripheral/Source/gd32e230_timer.c:1608:9
	ldr	r1, [sp, #28]
	.loc	4 1608 36               @ ../GD32E230_Firmware_Library/GD32E230_standard_peripheral/Source/gd32e230_timer.c:1608:36
	ldr	r3, [r1, #24]
	orrs	r3, r0
	str	r3, [r1, #24]
	.loc	4 1610 9 is_stmt 1      @ ../GD32E230_Firmware_Library/GD32E230_standard_peripheral/Source/gd32e230_timer.c:1610:9
	ldr	r0, [sp, #28]
	.loc	4 1610 36 is_stmt 0     @ ../GD32E230_Firmware_Library/GD32E230_standard_peripheral/Source/gd32e230_timer.c:1610:36
	ldr	r1, [r0, #24]
	movs	r3, #240
	bics	r1, r3
	str	r1, [r0, #24]
	.loc	4 1612 51 is_stmt 1     @ ../GD32E230_Firmware_Library/GD32E230_standard_peripheral/Source/gd32e230_timer.c:1612:51
	ldr	r0, [sp, #20]
	.loc	4 1612 58 is_stmt 0     @ ../GD32E230_Firmware_Library/GD32E230_standard_peripheral/Source/gd32e230_timer.c:1612:58
	ldrh	r0, [r0, #6]
	.loc	4 1612 68               @ ../GD32E230_Firmware_Library/GD32E230_standard_peripheral/Source/gd32e230_timer.c:1612:68
	lsls	r0, r0, #4
	.loc	4 1612 9                @ ../GD32E230_Firmware_Library/GD32E230_standard_peripheral/Source/gd32e230_timer.c:1612:9
	ldr	r1, [sp, #28]
	.loc	4 1612 36               @ ../GD32E230_Firmware_Library/GD32E230_standard_peripheral/Source/gd32e230_timer.c:1612:36
	ldr	r3, [r1, #24]
	orrs	r3, r0
	str	r3, [r1, #24]
	.loc	4 1614 9 is_stmt 1      @ ../GD32E230_Firmware_Library/GD32E230_standard_peripheral/Source/gd32e230_timer.c:1614:9
	ldr	r0, [sp, #28]
	.loc	4 1614 36 is_stmt 0     @ ../GD32E230_Firmware_Library/GD32E230_standard_peripheral/Source/gd32e230_timer.c:1614:36
	ldr	r1, [r0, #32]
	orrs	r1, r2
	str	r1, [r0, #32]
	.loc	4 1616 54 is_stmt 1     @ ../GD32E230_Firmware_Library/GD32E230_standard_peripheral/Source/gd32e230_timer.c:1616:54
	ldr	r0, [sp, #28]
	.loc	4 1616 89 is_stmt 0     @ ../GD32E230_Firmware_Library/GD32E230_standard_peripheral/Source/gd32e230_timer.c:1616:89
	ldr	r1, [sp, #20]
	.loc	4 1616 96               @ ../GD32E230_Firmware_Library/GD32E230_standard_peripheral/Source/gd32e230_timer.c:1616:96
	ldrh	r1, [r1, #4]
	movs	r3, #0
	.loc	4 1616 9                @ ../GD32E230_Firmware_Library/GD32E230_standard_peripheral/Source/gd32e230_timer.c:1616:9
	str	r1, [sp, #8]            @ 4-byte Spill
	mov	r1, r3
	ldr	r3, [sp, #8]            @ 4-byte Reload
	str	r2, [sp, #4]            @ 4-byte Spill
	mov	r2, r3
	bl	timer_channel_input_capture_prescaler_config
	.loc	4 1619 9 is_stmt 1      @ ../GD32E230_Firmware_Library/GD32E230_standard_peripheral/Source/gd32e230_timer.c:1619:9
	ldr	r0, [sp, #28]
	.loc	4 1619 36 is_stmt 0     @ ../GD32E230_Firmware_Library/GD32E230_standard_peripheral/Source/gd32e230_timer.c:1619:36
	ldr	r1, [r0, #32]
	movs	r2, #16
	bics	r1, r2
	str	r1, [r0, #32]
	.loc	4 1621 9 is_stmt 1      @ ../GD32E230_Firmware_Library/GD32E230_standard_peripheral/Source/gd32e230_timer.c:1621:9
	ldr	r0, [sp, #28]
	.loc	4 1621 36 is_stmt 0     @ ../GD32E230_Firmware_Library/GD32E230_standard_peripheral/Source/gd32e230_timer.c:1621:36
	ldr	r1, [r0, #32]
	movs	r3, #160
	bics	r1, r3
	str	r1, [r0, #32]
	add	r0, sp, #16
	.loc	4 1623 60 is_stmt 1     @ ../GD32E230_Firmware_Library/GD32E230_standard_peripheral/Source/gd32e230_timer.c:1623:60
	ldrh	r0, [r0]
	.loc	4 1623 71 is_stmt 0     @ ../GD32E230_Firmware_Library/GD32E230_standard_peripheral/Source/gd32e230_timer.c:1623:71
	lsls	r0, r0, #4
	.loc	4 1623 9                @ ../GD32E230_Firmware_Library/GD32E230_standard_peripheral/Source/gd32e230_timer.c:1623:9
	ldr	r1, [sp, #28]
	.loc	4 1623 36               @ ../GD32E230_Firmware_Library/GD32E230_standard_peripheral/Source/gd32e230_timer.c:1623:36
	ldr	r3, [r1, #32]
	orrs	r3, r0
	str	r3, [r1, #32]
	.loc	4 1625 9 is_stmt 1      @ ../GD32E230_Firmware_Library/GD32E230_standard_peripheral/Source/gd32e230_timer.c:1625:9
	ldr	r0, [sp, #28]
	.loc	4 1625 36 is_stmt 0     @ ../GD32E230_Firmware_Library/GD32E230_standard_peripheral/Source/gd32e230_timer.c:1625:36
	ldr	r1, [r0, #24]
	movw	r3, #768
	bics	r1, r3
	str	r1, [r0, #24]
	add	r0, sp, #12
	.loc	4 1627 60 is_stmt 1     @ ../GD32E230_Firmware_Library/GD32E230_standard_peripheral/Source/gd32e230_timer.c:1627:60
	ldrh	r0, [r0]
	.loc	4 1627 72 is_stmt 0     @ ../GD32E230_Firmware_Library/GD32E230_standard_peripheral/Source/gd32e230_timer.c:1627:72
	lsls	r0, r0, #8
	.loc	4 1627 9                @ ../GD32E230_Firmware_Library/GD32E230_standard_peripheral/Source/gd32e230_timer.c:1627:9
	ldr	r1, [sp, #28]
	.loc	4 1627 36               @ ../GD32E230_Firmware_Library/GD32E230_standard_peripheral/Source/gd32e230_timer.c:1627:36
	ldr	r3, [r1, #24]
	orrs	r3, r0
	str	r3, [r1, #24]
	.loc	4 1629 9 is_stmt 1      @ ../GD32E230_Firmware_Library/GD32E230_standard_peripheral/Source/gd32e230_timer.c:1629:9
	ldr	r0, [sp, #28]
	.loc	4 1629 36 is_stmt 0     @ ../GD32E230_Firmware_Library/GD32E230_standard_peripheral/Source/gd32e230_timer.c:1629:36
	ldr	r1, [r0, #24]
	movw	r3, #61440
	bics	r1, r3
	str	r1, [r0, #24]
	.loc	4 1631 61 is_stmt 1     @ ../GD32E230_Firmware_Library/GD32E230_standard_peripheral/Source/gd32e230_timer.c:1631:61
	ldr	r0, [sp, #20]
	.loc	4 1631 68 is_stmt 0     @ ../GD32E230_Firmware_Library/GD32E230_standard_peripheral/Source/gd32e230_timer.c:1631:68
	ldrh	r0, [r0, #6]
	.loc	4 1631 78               @ ../GD32E230_Firmware_Library/GD32E230_standard_peripheral/Source/gd32e230_timer.c:1631:78
	lsls	r0, r0, #12
	.loc	4 1631 9                @ ../GD32E230_Firmware_Library/GD32E230_standard_peripheral/Source/gd32e230_timer.c:1631:9
	ldr	r1, [sp, #28]
	.loc	4 1631 36               @ ../GD32E230_Firmware_Library/GD32E230_standard_peripheral/Source/gd32e230_timer.c:1631:36
	ldr	r3, [r1, #24]
	orrs	r3, r0
	str	r3, [r1, #24]
	.loc	4 1633 9 is_stmt 1      @ ../GD32E230_Firmware_Library/GD32E230_standard_peripheral/Source/gd32e230_timer.c:1633:9
	ldr	r0, [sp, #28]
	.loc	4 1633 36 is_stmt 0     @ ../GD32E230_Firmware_Library/GD32E230_standard_peripheral/Source/gd32e230_timer.c:1633:36
	ldr	r1, [r0, #32]
	orrs	r1, r2
	str	r1, [r0, #32]
	.loc	4 1635 54 is_stmt 1     @ ../GD32E230_Firmware_Library/GD32E230_standard_peripheral/Source/gd32e230_timer.c:1635:54
	ldr	r0, [sp, #28]
	.loc	4 1635 89 is_stmt 0     @ ../GD32E230_Firmware_Library/GD32E230_standard_peripheral/Source/gd32e230_timer.c:1635:89
	ldr	r1, [sp, #20]
	.loc	4 1635 96               @ ../GD32E230_Firmware_Library/GD32E230_standard_peripheral/Source/gd32e230_timer.c:1635:96
	ldrh	r2, [r1, #4]
	.loc	4 1635 9                @ ../GD32E230_Firmware_Library/GD32E230_standard_peripheral/Source/gd32e230_timer.c:1635:9
	ldr	r1, [sp, #4]            @ 4-byte Reload
	bl	timer_channel_input_capture_prescaler_config
	.loc	4 1636 5 is_stmt 1      @ ../GD32E230_Firmware_Library/GD32E230_standard_peripheral/Source/gd32e230_timer.c:1636:5
	b	.LBB56_9
.Ltmp241:
.LBB56_8:
	.loc	4 1638 9                @ ../GD32E230_Firmware_Library/GD32E230_standard_peripheral/Source/gd32e230_timer.c:1638:9
	ldr	r0, [sp, #28]
	.loc	4 1638 36 is_stmt 0     @ ../GD32E230_Firmware_Library/GD32E230_standard_peripheral/Source/gd32e230_timer.c:1638:36
	ldr	r1, [r0, #32]
	movs	r2, #16
	bics	r1, r2
	str	r1, [r0, #32]
	.loc	4 1640 9 is_stmt 1      @ ../GD32E230_Firmware_Library/GD32E230_standard_peripheral/Source/gd32e230_timer.c:1640:9
	ldr	r0, [sp, #28]
	.loc	4 1640 36 is_stmt 0     @ ../GD32E230_Firmware_Library/GD32E230_standard_peripheral/Source/gd32e230_timer.c:1640:36
	ldr	r1, [r0, #32]
	movs	r3, #160
	bics	r1, r3
	str	r1, [r0, #32]
	.loc	4 1642 61 is_stmt 1     @ ../GD32E230_Firmware_Library/GD32E230_standard_peripheral/Source/gd32e230_timer.c:1642:61
	ldr	r0, [sp, #20]
	.loc	4 1642 68 is_stmt 0     @ ../GD32E230_Firmware_Library/GD32E230_standard_peripheral/Source/gd32e230_timer.c:1642:68
	ldrh	r0, [r0]
	.loc	4 1642 80               @ ../GD32E230_Firmware_Library/GD32E230_standard_peripheral/Source/gd32e230_timer.c:1642:80
	lsls	r0, r0, #4
	.loc	4 1642 9                @ ../GD32E230_Firmware_Library/GD32E230_standard_peripheral/Source/gd32e230_timer.c:1642:9
	ldr	r1, [sp, #28]
	.loc	4 1642 36               @ ../GD32E230_Firmware_Library/GD32E230_standard_peripheral/Source/gd32e230_timer.c:1642:36
	ldr	r3, [r1, #32]
	orrs	r3, r0
	str	r3, [r1, #32]
	.loc	4 1644 9 is_stmt 1      @ ../GD32E230_Firmware_Library/GD32E230_standard_peripheral/Source/gd32e230_timer.c:1644:9
	ldr	r0, [sp, #28]
	.loc	4 1644 36 is_stmt 0     @ ../GD32E230_Firmware_Library/GD32E230_standard_peripheral/Source/gd32e230_timer.c:1644:36
	ldr	r1, [r0, #24]
	movw	r3, #768
	bics	r1, r3
	str	r1, [r0, #24]
	.loc	4 1646 61 is_stmt 1     @ ../GD32E230_Firmware_Library/GD32E230_standard_peripheral/Source/gd32e230_timer.c:1646:61
	ldr	r0, [sp, #20]
	.loc	4 1646 68 is_stmt 0     @ ../GD32E230_Firmware_Library/GD32E230_standard_peripheral/Source/gd32e230_timer.c:1646:68
	ldrh	r0, [r0, #2]
	.loc	4 1646 81               @ ../GD32E230_Firmware_Library/GD32E230_standard_peripheral/Source/gd32e230_timer.c:1646:81
	lsls	r0, r0, #8
	.loc	4 1646 9                @ ../GD32E230_Firmware_Library/GD32E230_standard_peripheral/Source/gd32e230_timer.c:1646:9
	ldr	r1, [sp, #28]
	.loc	4 1646 36               @ ../GD32E230_Firmware_Library/GD32E230_standard_peripheral/Source/gd32e230_timer.c:1646:36
	ldr	r3, [r1, #24]
	orrs	r3, r0
	str	r3, [r1, #24]
	.loc	4 1648 9 is_stmt 1      @ ../GD32E230_Firmware_Library/GD32E230_standard_peripheral/Source/gd32e230_timer.c:1648:9
	ldr	r0, [sp, #28]
	.loc	4 1648 36 is_stmt 0     @ ../GD32E230_Firmware_Library/GD32E230_standard_peripheral/Source/gd32e230_timer.c:1648:36
	ldr	r1, [r0, #24]
	movw	r3, #61440
	bics	r1, r3
	str	r1, [r0, #24]
	.loc	4 1650 61 is_stmt 1     @ ../GD32E230_Firmware_Library/GD32E230_standard_peripheral/Source/gd32e230_timer.c:1650:61
	ldr	r0, [sp, #20]
	.loc	4 1650 68 is_stmt 0     @ ../GD32E230_Firmware_Library/GD32E230_standard_peripheral/Source/gd32e230_timer.c:1650:68
	ldrh	r0, [r0, #6]
	.loc	4 1650 78               @ ../GD32E230_Firmware_Library/GD32E230_standard_peripheral/Source/gd32e230_timer.c:1650:78
	lsls	r0, r0, #12
	.loc	4 1650 9                @ ../GD32E230_Firmware_Library/GD32E230_standard_peripheral/Source/gd32e230_timer.c:1650:9
	ldr	r1, [sp, #28]
	.loc	4 1650 36               @ ../GD32E230_Firmware_Library/GD32E230_standard_peripheral/Source/gd32e230_timer.c:1650:36
	ldr	r3, [r1, #24]
	orrs	r3, r0
	str	r3, [r1, #24]
	.loc	4 1652 9 is_stmt 1      @ ../GD32E230_Firmware_Library/GD32E230_standard_peripheral/Source/gd32e230_timer.c:1652:9
	ldr	r0, [sp, #28]
	.loc	4 1652 36 is_stmt 0     @ ../GD32E230_Firmware_Library/GD32E230_standard_peripheral/Source/gd32e230_timer.c:1652:36
	ldr	r1, [r0, #32]
	orrs	r1, r2
	str	r1, [r0, #32]
	.loc	4 1654 54 is_stmt 1     @ ../GD32E230_Firmware_Library/GD32E230_standard_peripheral/Source/gd32e230_timer.c:1654:54
	ldr	r0, [sp, #28]
	.loc	4 1654 91 is_stmt 0     @ ../GD32E230_Firmware_Library/GD32E230_standard_peripheral/Source/gd32e230_timer.c:1654:91
	ldr	r1, [sp, #20]
	.loc	4 1654 98               @ ../GD32E230_Firmware_Library/GD32E230_standard_peripheral/Source/gd32e230_timer.c:1654:98
	ldrh	r2, [r1, #4]
	movs	r1, #1
	.loc	4 1654 9                @ ../GD32E230_Firmware_Library/GD32E230_standard_peripheral/Source/gd32e230_timer.c:1654:9
	str	r1, [sp]                @ 4-byte Spill
	bl	timer_channel_input_capture_prescaler_config
	.loc	4 1657 9 is_stmt 1      @ ../GD32E230_Firmware_Library/GD32E230_standard_peripheral/Source/gd32e230_timer.c:1657:9
	ldr	r0, [sp, #28]
	.loc	4 1657 36 is_stmt 0     @ ../GD32E230_Firmware_Library/GD32E230_standard_peripheral/Source/gd32e230_timer.c:1657:36
	ldr	r1, [r0, #32]
	ldr	r2, [sp]                @ 4-byte Reload
	bics	r1, r2
	str	r1, [r0, #32]
	.loc	4 1659 9 is_stmt 1      @ ../GD32E230_Firmware_Library/GD32E230_standard_peripheral/Source/gd32e230_timer.c:1659:9
	ldr	r0, [sp, #28]
	.loc	4 1659 36 is_stmt 0     @ ../GD32E230_Firmware_Library/GD32E230_standard_peripheral/Source/gd32e230_timer.c:1659:36
	ldr	r1, [r0, #32]
	movs	r3, #10
	bics	r1, r3
	str	r1, [r0, #32]
	add	r0, sp, #16
	.loc	4 1661 49 is_stmt 1     @ ../GD32E230_Firmware_Library/GD32E230_standard_peripheral/Source/gd32e230_timer.c:1661:49
	ldrh	r0, [r0]
	.loc	4 1661 9 is_stmt 0      @ ../GD32E230_Firmware_Library/GD32E230_standard_peripheral/Source/gd32e230_timer.c:1661:9
	ldr	r1, [sp, #28]
	.loc	4 1661 36               @ ../GD32E230_Firmware_Library/GD32E230_standard_peripheral/Source/gd32e230_timer.c:1661:36
	ldr	r3, [r1, #32]
	orrs	r3, r0
	str	r3, [r1, #32]
	.loc	4 1663 9 is_stmt 1      @ ../GD32E230_Firmware_Library/GD32E230_standard_peripheral/Source/gd32e230_timer.c:1663:9
	ldr	r0, [sp, #28]
	.loc	4 1663 36 is_stmt 0     @ ../GD32E230_Firmware_Library/GD32E230_standard_peripheral/Source/gd32e230_timer.c:1663:36
	ldr	r1, [r0, #24]
	movs	r3, #3
	bics	r1, r3
	str	r1, [r0, #24]
	add	r0, sp, #12
	.loc	4 1665 49 is_stmt 1     @ ../GD32E230_Firmware_Library/GD32E230_standard_peripheral/Source/gd32e230_timer.c:1665:49
	ldrh	r0, [r0]
	.loc	4 1665 9 is_stmt 0      @ ../GD32E230_Firmware_Library/GD32E230_standard_peripheral/Source/gd32e230_timer.c:1665:9
	ldr	r1, [sp, #28]
	.loc	4 1665 36               @ ../GD32E230_Firmware_Library/GD32E230_standard_peripheral/Source/gd32e230_timer.c:1665:36
	ldr	r3, [r1, #24]
	orrs	r3, r0
	str	r3, [r1, #24]
	.loc	4 1667 9 is_stmt 1      @ ../GD32E230_Firmware_Library/GD32E230_standard_peripheral/Source/gd32e230_timer.c:1667:9
	ldr	r0, [sp, #28]
	.loc	4 1667 36 is_stmt 0     @ ../GD32E230_Firmware_Library/GD32E230_standard_peripheral/Source/gd32e230_timer.c:1667:36
	ldr	r1, [r0, #24]
	movs	r3, #240
	bics	r1, r3
	str	r1, [r0, #24]
	.loc	4 1669 51 is_stmt 1     @ ../GD32E230_Firmware_Library/GD32E230_standard_peripheral/Source/gd32e230_timer.c:1669:51
	ldr	r0, [sp, #20]
	.loc	4 1669 58 is_stmt 0     @ ../GD32E230_Firmware_Library/GD32E230_standard_peripheral/Source/gd32e230_timer.c:1669:58
	ldrh	r0, [r0, #6]
	.loc	4 1669 68               @ ../GD32E230_Firmware_Library/GD32E230_standard_peripheral/Source/gd32e230_timer.c:1669:68
	lsls	r0, r0, #4
	.loc	4 1669 9                @ ../GD32E230_Firmware_Library/GD32E230_standard_peripheral/Source/gd32e230_timer.c:1669:9
	ldr	r1, [sp, #28]
	.loc	4 1669 36               @ ../GD32E230_Firmware_Library/GD32E230_standard_peripheral/Source/gd32e230_timer.c:1669:36
	ldr	r3, [r1, #24]
	orrs	r3, r0
	str	r3, [r1, #24]
	.loc	4 1671 9 is_stmt 1      @ ../GD32E230_Firmware_Library/GD32E230_standard_peripheral/Source/gd32e230_timer.c:1671:9
	ldr	r0, [sp, #28]
	.loc	4 1671 36 is_stmt 0     @ ../GD32E230_Firmware_Library/GD32E230_standard_peripheral/Source/gd32e230_timer.c:1671:36
	ldr	r1, [r0, #32]
	orrs	r1, r2
	str	r1, [r0, #32]
	.loc	4 1673 54 is_stmt 1     @ ../GD32E230_Firmware_Library/GD32E230_standard_peripheral/Source/gd32e230_timer.c:1673:54
	ldr	r0, [sp, #28]
	.loc	4 1673 91 is_stmt 0     @ ../GD32E230_Firmware_Library/GD32E230_standard_peripheral/Source/gd32e230_timer.c:1673:91
	ldr	r1, [sp, #20]
	.loc	4 1673 98               @ ../GD32E230_Firmware_Library/GD32E230_standard_peripheral/Source/gd32e230_timer.c:1673:98
	ldrh	r2, [r1, #4]
	movs	r1, #0
	.loc	4 1673 9                @ ../GD32E230_Firmware_Library/GD32E230_standard_peripheral/Source/gd32e230_timer.c:1673:9
	bl	timer_channel_input_capture_prescaler_config
	b	.LBB56_9
.Ltmp242:
.LBB56_9:
	.loc	4 1675 1 is_stmt 1      @ ../GD32E230_Firmware_Library/GD32E230_standard_peripheral/Source/gd32e230_timer.c:1675:1
	add	sp, #32
	pop	{r7, pc}
.Ltmp243:
.Lfunc_end56:
	.size	timer_input_pwm_capture_config, .Lfunc_end56-timer_input_pwm_capture_config
	.cfi_endproc
	.cantunwind
	.fnend
                                        @ -- End function
	.section	.text.timer_hall_mode_config,"ax",%progbits
	.hidden	timer_hall_mode_config  @ -- Begin function timer_hall_mode_config
	.globl	timer_hall_mode_config
	.p2align	1
	.type	timer_hall_mode_config,%function
	.code	16                      @ @timer_hall_mode_config
	.thumb_func
timer_hall_mode_config:
.Lfunc_begin57:
	.loc	4 1688 0                @ ../GD32E230_Firmware_Library/GD32E230_standard_peripheral/Source/gd32e230_timer.c:1688:0
	.fnstart
	.cfi_startproc
@ %bb.0:
	.pad	#8
	sub	sp, #8
	.cfi_def_cfa_offset 8
	str	r0, [sp, #4]
	str	r1, [sp]
.Ltmp244:
	.loc	4 1689 38 prologue_end  @ ../GD32E230_Firmware_Library/GD32E230_standard_peripheral/Source/gd32e230_timer.c:1689:38
	ldr	r0, [sp]
.Ltmp245:
	.loc	4 1689 8 is_stmt 0      @ ../GD32E230_Firmware_Library/GD32E230_standard_peripheral/Source/gd32e230_timer.c:1689:8
	cmp	r0, #128
	bne	.LBB57_2
	b	.LBB57_1
.LBB57_1:
.Ltmp246:
	.loc	4 1690 9 is_stmt 1      @ ../GD32E230_Firmware_Library/GD32E230_standard_peripheral/Source/gd32e230_timer.c:1690:9
	ldr	r0, [sp, #4]
	.loc	4 1690 34 is_stmt 0     @ ../GD32E230_Firmware_Library/GD32E230_standard_peripheral/Source/gd32e230_timer.c:1690:34
	ldr	r1, [r0, #4]
	movs	r2, #128
	orrs	r1, r2
	str	r1, [r0, #4]
	.loc	4 1691 5 is_stmt 1      @ ../GD32E230_Firmware_Library/GD32E230_standard_peripheral/Source/gd32e230_timer.c:1691:5
	b	.LBB57_6
.Ltmp247:
.LBB57_2:
	.loc	4 1691 45 is_stmt 0     @ ../GD32E230_Firmware_Library/GD32E230_standard_peripheral/Source/gd32e230_timer.c:1691:45
	ldr	r0, [sp]
.Ltmp248:
	.loc	4 1691 14               @ ../GD32E230_Firmware_Library/GD32E230_standard_peripheral/Source/gd32e230_timer.c:1691:14
	cmp	r0, #0
	bne	.LBB57_4
	b	.LBB57_3
.LBB57_3:
.Ltmp249:
	.loc	4 1692 9 is_stmt 1      @ ../GD32E230_Firmware_Library/GD32E230_standard_peripheral/Source/gd32e230_timer.c:1692:9
	ldr	r0, [sp, #4]
	.loc	4 1692 34 is_stmt 0     @ ../GD32E230_Firmware_Library/GD32E230_standard_peripheral/Source/gd32e230_timer.c:1692:34
	ldr	r1, [r0, #4]
	movs	r2, #128
	bics	r1, r2
	str	r1, [r0, #4]
	.loc	4 1693 5 is_stmt 1      @ ../GD32E230_Firmware_Library/GD32E230_standard_peripheral/Source/gd32e230_timer.c:1693:5
	b	.LBB57_5
.Ltmp250:
.LBB57_4:
	.loc	4 0 5 is_stmt 0         @ ../GD32E230_Firmware_Library/GD32E230_standard_peripheral/Source/gd32e230_timer.c:0:5
	b	.LBB57_5
.LBB57_5:
	b	.LBB57_6
.LBB57_6:
	.loc	4 1696 1 is_stmt 1      @ ../GD32E230_Firmware_Library/GD32E230_standard_peripheral/Source/gd32e230_timer.c:1696:1
	add	sp, #8
	bx	lr
.Ltmp251:
.Lfunc_end57:
	.size	timer_hall_mode_config, .Lfunc_end57-timer_hall_mode_config
	.cfi_endproc
	.cantunwind
	.fnend
                                        @ -- End function
	.section	.text.timer_input_trigger_source_select,"ax",%progbits
	.hidden	timer_input_trigger_source_select @ -- Begin function timer_input_trigger_source_select
	.globl	timer_input_trigger_source_select
	.p2align	1
	.type	timer_input_trigger_source_select,%function
	.code	16                      @ @timer_input_trigger_source_select
	.thumb_func
timer_input_trigger_source_select:
.Lfunc_begin58:
	.loc	4 1714 0                @ ../GD32E230_Firmware_Library/GD32E230_standard_peripheral/Source/gd32e230_timer.c:1714:0
	.fnstart
	.cfi_startproc
@ %bb.0:
	.pad	#8
	sub	sp, #8
	.cfi_def_cfa_offset 8
	str	r0, [sp, #4]
	str	r1, [sp]
.Ltmp252:
	.loc	4 1715 5 prologue_end   @ ../GD32E230_Firmware_Library/GD32E230_standard_peripheral/Source/gd32e230_timer.c:1715:5
	ldr	r0, [sp, #4]
	.loc	4 1715 31 is_stmt 0     @ ../GD32E230_Firmware_Library/GD32E230_standard_peripheral/Source/gd32e230_timer.c:1715:31
	ldr	r1, [r0, #8]
	movs	r2, #112
	bics	r1, r2
	str	r1, [r0, #8]
	.loc	4 1716 44 is_stmt 1     @ ../GD32E230_Firmware_Library/GD32E230_standard_peripheral/Source/gd32e230_timer.c:1716:44
	ldr	r0, [sp]
	.loc	4 1716 5 is_stmt 0      @ ../GD32E230_Firmware_Library/GD32E230_standard_peripheral/Source/gd32e230_timer.c:1716:5
	ldr	r1, [sp, #4]
	.loc	4 1716 31               @ ../GD32E230_Firmware_Library/GD32E230_standard_peripheral/Source/gd32e230_timer.c:1716:31
	ldr	r2, [r1, #8]
	orrs	r2, r0
	str	r2, [r1, #8]
	.loc	4 1717 1 is_stmt 1      @ ../GD32E230_Firmware_Library/GD32E230_standard_peripheral/Source/gd32e230_timer.c:1717:1
	add	sp, #8
	bx	lr
.Ltmp253:
.Lfunc_end58:
	.size	timer_input_trigger_source_select, .Lfunc_end58-timer_input_trigger_source_select
	.cfi_endproc
	.cantunwind
	.fnend
                                        @ -- End function
	.section	.text.timer_master_output_trigger_source_select,"ax",%progbits
	.hidden	timer_master_output_trigger_source_select @ -- Begin function timer_master_output_trigger_source_select
	.globl	timer_master_output_trigger_source_select
	.p2align	1
	.type	timer_master_output_trigger_source_select,%function
	.code	16                      @ @timer_master_output_trigger_source_select
	.thumb_func
timer_master_output_trigger_source_select:
.Lfunc_begin59:
	.loc	4 1736 0                @ ../GD32E230_Firmware_Library/GD32E230_standard_peripheral/Source/gd32e230_timer.c:1736:0
	.fnstart
	.cfi_startproc
@ %bb.0:
	.pad	#8
	sub	sp, #8
	.cfi_def_cfa_offset 8
	str	r0, [sp, #4]
	str	r1, [sp]
.Ltmp254:
	.loc	4 1737 5 prologue_end   @ ../GD32E230_Firmware_Library/GD32E230_standard_peripheral/Source/gd32e230_timer.c:1737:5
	ldr	r0, [sp, #4]
	.loc	4 1737 30 is_stmt 0     @ ../GD32E230_Firmware_Library/GD32E230_standard_peripheral/Source/gd32e230_timer.c:1737:30
	ldr	r1, [r0, #4]
	movs	r2, #112
	bics	r1, r2
	str	r1, [r0, #4]
	.loc	4 1738 43 is_stmt 1     @ ../GD32E230_Firmware_Library/GD32E230_standard_peripheral/Source/gd32e230_timer.c:1738:43
	ldr	r0, [sp]
	.loc	4 1738 5 is_stmt 0      @ ../GD32E230_Firmware_Library/GD32E230_standard_peripheral/Source/gd32e230_timer.c:1738:5
	ldr	r1, [sp, #4]
	.loc	4 1738 30               @ ../GD32E230_Firmware_Library/GD32E230_standard_peripheral/Source/gd32e230_timer.c:1738:30
	ldr	r2, [r1, #4]
	orrs	r2, r0
	str	r2, [r1, #4]
	.loc	4 1739 1 is_stmt 1      @ ../GD32E230_Firmware_Library/GD32E230_standard_peripheral/Source/gd32e230_timer.c:1739:1
	add	sp, #8
	bx	lr
.Ltmp255:
.Lfunc_end59:
	.size	timer_master_output_trigger_source_select, .Lfunc_end59-timer_master_output_trigger_source_select
	.cfi_endproc
	.cantunwind
	.fnend
                                        @ -- End function
	.section	.text.timer_slave_mode_select,"ax",%progbits
	.hidden	timer_slave_mode_select @ -- Begin function timer_slave_mode_select
	.globl	timer_slave_mode_select
	.p2align	1
	.type	timer_slave_mode_select,%function
	.code	16                      @ @timer_slave_mode_select
	.thumb_func
timer_slave_mode_select:
.Lfunc_begin60:
	.loc	4 1759 0                @ ../GD32E230_Firmware_Library/GD32E230_standard_peripheral/Source/gd32e230_timer.c:1759:0
	.fnstart
	.cfi_startproc
@ %bb.0:
	.pad	#8
	sub	sp, #8
	.cfi_def_cfa_offset 8
	str	r0, [sp, #4]
	str	r1, [sp]
.Ltmp256:
	.loc	4 1760 5 prologue_end   @ ../GD32E230_Firmware_Library/GD32E230_standard_peripheral/Source/gd32e230_timer.c:1760:5
	ldr	r0, [sp, #4]
	.loc	4 1760 31 is_stmt 0     @ ../GD32E230_Firmware_Library/GD32E230_standard_peripheral/Source/gd32e230_timer.c:1760:31
	ldr	r1, [r0, #8]
	movs	r2, #7
	bics	r1, r2
	str	r1, [r0, #8]
	.loc	4 1762 44 is_stmt 1     @ ../GD32E230_Firmware_Library/GD32E230_standard_peripheral/Source/gd32e230_timer.c:1762:44
	ldr	r0, [sp]
	.loc	4 1762 5 is_stmt 0      @ ../GD32E230_Firmware_Library/GD32E230_standard_peripheral/Source/gd32e230_timer.c:1762:5
	ldr	r1, [sp, #4]
	.loc	4 1762 31               @ ../GD32E230_Firmware_Library/GD32E230_standard_peripheral/Source/gd32e230_timer.c:1762:31
	ldr	r2, [r1, #8]
	orrs	r2, r0
	str	r2, [r1, #8]
	.loc	4 1763 1 is_stmt 1      @ ../GD32E230_Firmware_Library/GD32E230_standard_peripheral/Source/gd32e230_timer.c:1763:1
	add	sp, #8
	bx	lr
.Ltmp257:
.Lfunc_end60:
	.size	timer_slave_mode_select, .Lfunc_end60-timer_slave_mode_select
	.cfi_endproc
	.cantunwind
	.fnend
                                        @ -- End function
	.section	.text.timer_master_slave_mode_config,"ax",%progbits
	.hidden	timer_master_slave_mode_config @ -- Begin function timer_master_slave_mode_config
	.globl	timer_master_slave_mode_config
	.p2align	1
	.type	timer_master_slave_mode_config,%function
	.code	16                      @ @timer_master_slave_mode_config
	.thumb_func
timer_master_slave_mode_config:
.Lfunc_begin61:
	.loc	4 1776 0                @ ../GD32E230_Firmware_Library/GD32E230_standard_peripheral/Source/gd32e230_timer.c:1776:0
	.fnstart
	.cfi_startproc
@ %bb.0:
	.pad	#8
	sub	sp, #8
	.cfi_def_cfa_offset 8
	str	r0, [sp, #4]
	str	r1, [sp]
.Ltmp258:
	.loc	4 1777 42 prologue_end  @ ../GD32E230_Firmware_Library/GD32E230_standard_peripheral/Source/gd32e230_timer.c:1777:42
	ldr	r0, [sp]
.Ltmp259:
	.loc	4 1777 8 is_stmt 0      @ ../GD32E230_Firmware_Library/GD32E230_standard_peripheral/Source/gd32e230_timer.c:1777:8
	cmp	r0, #128
	bne	.LBB61_2
	b	.LBB61_1
.LBB61_1:
.Ltmp260:
	.loc	4 1778 9 is_stmt 1      @ ../GD32E230_Firmware_Library/GD32E230_standard_peripheral/Source/gd32e230_timer.c:1778:9
	ldr	r0, [sp, #4]
	.loc	4 1778 35 is_stmt 0     @ ../GD32E230_Firmware_Library/GD32E230_standard_peripheral/Source/gd32e230_timer.c:1778:35
	ldr	r1, [r0, #8]
	movs	r2, #128
	orrs	r1, r2
	str	r1, [r0, #8]
	.loc	4 1779 5 is_stmt 1      @ ../GD32E230_Firmware_Library/GD32E230_standard_peripheral/Source/gd32e230_timer.c:1779:5
	b	.LBB61_6
.Ltmp261:
.LBB61_2:
	.loc	4 1779 49 is_stmt 0     @ ../GD32E230_Firmware_Library/GD32E230_standard_peripheral/Source/gd32e230_timer.c:1779:49
	ldr	r0, [sp]
.Ltmp262:
	.loc	4 1779 14               @ ../GD32E230_Firmware_Library/GD32E230_standard_peripheral/Source/gd32e230_timer.c:1779:14
	cmp	r0, #0
	bne	.LBB61_4
	b	.LBB61_3
.LBB61_3:
.Ltmp263:
	.loc	4 1780 9 is_stmt 1      @ ../GD32E230_Firmware_Library/GD32E230_standard_peripheral/Source/gd32e230_timer.c:1780:9
	ldr	r0, [sp, #4]
	.loc	4 1780 35 is_stmt 0     @ ../GD32E230_Firmware_Library/GD32E230_standard_peripheral/Source/gd32e230_timer.c:1780:35
	ldr	r1, [r0, #8]
	movs	r2, #128
	bics	r1, r2
	str	r1, [r0, #8]
	.loc	4 1781 5 is_stmt 1      @ ../GD32E230_Firmware_Library/GD32E230_standard_peripheral/Source/gd32e230_timer.c:1781:5
	b	.LBB61_5
.Ltmp264:
.LBB61_4:
	.loc	4 0 5 is_stmt 0         @ ../GD32E230_Firmware_Library/GD32E230_standard_peripheral/Source/gd32e230_timer.c:0:5
	b	.LBB61_5
.LBB61_5:
	b	.LBB61_6
.LBB61_6:
	.loc	4 1784 1 is_stmt 1      @ ../GD32E230_Firmware_Library/GD32E230_standard_peripheral/Source/gd32e230_timer.c:1784:1
	add	sp, #8
	bx	lr
.Ltmp265:
.Lfunc_end61:
	.size	timer_master_slave_mode_config, .Lfunc_end61-timer_master_slave_mode_config
	.cfi_endproc
	.cantunwind
	.fnend
                                        @ -- End function
	.section	.text.timer_external_trigger_config,"ax",%progbits
	.hidden	timer_external_trigger_config @ -- Begin function timer_external_trigger_config
	.globl	timer_external_trigger_config
	.p2align	1
	.type	timer_external_trigger_config,%function
	.code	16                      @ @timer_external_trigger_config
	.thumb_func
timer_external_trigger_config:
.Lfunc_begin62:
	.loc	4 1805 0                @ ../GD32E230_Firmware_Library/GD32E230_standard_peripheral/Source/gd32e230_timer.c:1805:0
	.fnstart
	.cfi_startproc
@ %bb.0:
	.pad	#16
	sub	sp, #16
	.cfi_def_cfa_offset 16
	str	r0, [sp, #12]
	str	r1, [sp, #8]
	str	r2, [sp, #4]
	str	r3, [sp]
.Ltmp266:
	.loc	4 1806 5 prologue_end   @ ../GD32E230_Firmware_Library/GD32E230_standard_peripheral/Source/gd32e230_timer.c:1806:5
	ldr	r0, [sp, #12]
	.loc	4 1806 31 is_stmt 0     @ ../GD32E230_Firmware_Library/GD32E230_standard_peripheral/Source/gd32e230_timer.c:1806:31
	ldr	r1, [r0, #8]
	movw	r2, #48896
	bics	r1, r2
	str	r1, [r0, #8]
	.loc	4 1807 45 is_stmt 1     @ ../GD32E230_Firmware_Library/GD32E230_standard_peripheral/Source/gd32e230_timer.c:1807:45
	ldr	r0, [sp, #8]
	.loc	4 1807 60 is_stmt 0     @ ../GD32E230_Firmware_Library/GD32E230_standard_peripheral/Source/gd32e230_timer.c:1807:60
	ldr	r1, [sp, #4]
	.loc	4 1807 58               @ ../GD32E230_Firmware_Library/GD32E230_standard_peripheral/Source/gd32e230_timer.c:1807:58
	orrs	r0, r1
	.loc	4 1807 5                @ ../GD32E230_Firmware_Library/GD32E230_standard_peripheral/Source/gd32e230_timer.c:1807:5
	ldr	r1, [sp, #12]
	.loc	4 1807 31               @ ../GD32E230_Firmware_Library/GD32E230_standard_peripheral/Source/gd32e230_timer.c:1807:31
	ldr	r2, [r1, #8]
	orrs	r2, r0
	str	r2, [r1, #8]
	.loc	4 1808 45 is_stmt 1     @ ../GD32E230_Firmware_Library/GD32E230_standard_peripheral/Source/gd32e230_timer.c:1808:45
	ldr	r0, [sp]
	.loc	4 1808 55 is_stmt 0     @ ../GD32E230_Firmware_Library/GD32E230_standard_peripheral/Source/gd32e230_timer.c:1808:55
	lsls	r0, r0, #8
	.loc	4 1808 5                @ ../GD32E230_Firmware_Library/GD32E230_standard_peripheral/Source/gd32e230_timer.c:1808:5
	ldr	r1, [sp, #12]
	.loc	4 1808 31               @ ../GD32E230_Firmware_Library/GD32E230_standard_peripheral/Source/gd32e230_timer.c:1808:31
	ldr	r2, [r1, #8]
	orrs	r2, r0
	str	r2, [r1, #8]
	.loc	4 1809 1 is_stmt 1      @ ../GD32E230_Firmware_Library/GD32E230_standard_peripheral/Source/gd32e230_timer.c:1809:1
	add	sp, #16
	bx	lr
.Ltmp267:
.Lfunc_end62:
	.size	timer_external_trigger_config, .Lfunc_end62-timer_external_trigger_config
	.cfi_endproc
	.cantunwind
	.fnend
                                        @ -- End function
	.section	.text.timer_quadrature_decoder_mode_config,"ax",%progbits
	.hidden	timer_quadrature_decoder_mode_config @ -- Begin function timer_quadrature_decoder_mode_config
	.globl	timer_quadrature_decoder_mode_config
	.p2align	2
	.type	timer_quadrature_decoder_mode_config,%function
	.code	16                      @ @timer_quadrature_decoder_mode_config
	.thumb_func
timer_quadrature_decoder_mode_config:
.Lfunc_begin63:
	.loc	4 1832 0                @ ../GD32E230_Firmware_Library/GD32E230_standard_peripheral/Source/gd32e230_timer.c:1832:0
	.fnstart
	.cfi_startproc
@ %bb.0:
	.save	{r4, r5, r6, lr}
	push	{r4, r5, r6, lr}
	.cfi_def_cfa_offset 16
	.cfi_offset lr, -4
	.cfi_offset r6, -8
	.cfi_offset r5, -12
	.cfi_offset r4, -16
	.pad	#16
	sub	sp, #16
	.cfi_def_cfa_offset 32
	mov	r4, r3
	mov	r5, r2
	str	r0, [sp, #12]
	str	r1, [sp, #8]
	add	r0, sp, #4
	strh	r2, [r0]
	mov	r1, sp
	strh	r3, [r1]
.Ltmp268:
	.loc	4 1833 5 prologue_end   @ ../GD32E230_Firmware_Library/GD32E230_standard_peripheral/Source/gd32e230_timer.c:1833:5
	ldr	r2, [sp, #12]
	.loc	4 1833 31 is_stmt 0     @ ../GD32E230_Firmware_Library/GD32E230_standard_peripheral/Source/gd32e230_timer.c:1833:31
	ldr	r3, [r2, #8]
	movs	r6, #7
	bics	r3, r6
	str	r3, [r2, #8]
	.loc	4 1834 44 is_stmt 1     @ ../GD32E230_Firmware_Library/GD32E230_standard_peripheral/Source/gd32e230_timer.c:1834:44
	ldr	r2, [sp, #8]
	.loc	4 1834 5 is_stmt 0      @ ../GD32E230_Firmware_Library/GD32E230_standard_peripheral/Source/gd32e230_timer.c:1834:5
	ldr	r3, [sp, #12]
	.loc	4 1834 31               @ ../GD32E230_Firmware_Library/GD32E230_standard_peripheral/Source/gd32e230_timer.c:1834:31
	ldr	r6, [r3, #8]
	orrs	r6, r2
	str	r6, [r3, #8]
	.loc	4 1836 5 is_stmt 1      @ ../GD32E230_Firmware_Library/GD32E230_standard_peripheral/Source/gd32e230_timer.c:1836:5
	ldr	r2, [sp, #12]
	.loc	4 1836 32 is_stmt 0     @ ../GD32E230_Firmware_Library/GD32E230_standard_peripheral/Source/gd32e230_timer.c:1836:32
	ldr	r3, [r2, #24]
	ldr	r6, __arm_cp.63_0
	ands	r3, r6
	str	r3, [r2, #24]
	.loc	4 1837 5 is_stmt 1      @ ../GD32E230_Firmware_Library/GD32E230_standard_peripheral/Source/gd32e230_timer.c:1837:5
	ldr	r2, [sp, #12]
	.loc	4 1837 32 is_stmt 0     @ ../GD32E230_Firmware_Library/GD32E230_standard_peripheral/Source/gd32e230_timer.c:1837:32
	ldr	r3, [r2, #24]
	movw	r6, #257
	orrs	r3, r6
	str	r3, [r2, #24]
	.loc	4 1839 5 is_stmt 1      @ ../GD32E230_Firmware_Library/GD32E230_standard_peripheral/Source/gd32e230_timer.c:1839:5
	ldr	r2, [sp, #12]
	.loc	4 1839 32 is_stmt 0     @ ../GD32E230_Firmware_Library/GD32E230_standard_peripheral/Source/gd32e230_timer.c:1839:32
	ldr	r3, [r2, #32]
	movs	r6, #10
	bics	r3, r6
	str	r3, [r2, #32]
	.loc	4 1840 5 is_stmt 1      @ ../GD32E230_Firmware_Library/GD32E230_standard_peripheral/Source/gd32e230_timer.c:1840:5
	ldr	r2, [sp, #12]
	.loc	4 1840 32 is_stmt 0     @ ../GD32E230_Firmware_Library/GD32E230_standard_peripheral/Source/gd32e230_timer.c:1840:32
	ldr	r3, [r2, #32]
	movs	r6, #160
	bics	r3, r6
	str	r3, [r2, #32]
	.loc	4 1841 46 is_stmt 1     @ ../GD32E230_Firmware_Library/GD32E230_standard_peripheral/Source/gd32e230_timer.c:1841:46
	ldrh	r0, [r0]
	.loc	4 1841 69 is_stmt 0     @ ../GD32E230_Firmware_Library/GD32E230_standard_peripheral/Source/gd32e230_timer.c:1841:69
	ldrh	r1, [r1]
	.loc	4 1841 81               @ ../GD32E230_Firmware_Library/GD32E230_standard_peripheral/Source/gd32e230_timer.c:1841:81
	lsls	r1, r1, #4
	.loc	4 1841 57               @ ../GD32E230_Firmware_Library/GD32E230_standard_peripheral/Source/gd32e230_timer.c:1841:57
	orrs	r0, r1
	.loc	4 1841 5                @ ../GD32E230_Firmware_Library/GD32E230_standard_peripheral/Source/gd32e230_timer.c:1841:5
	ldr	r1, [sp, #12]
	.loc	4 1841 32               @ ../GD32E230_Firmware_Library/GD32E230_standard_peripheral/Source/gd32e230_timer.c:1841:32
	ldr	r2, [r1, #32]
	orrs	r2, r0
	str	r2, [r1, #32]
	.loc	4 1842 1 is_stmt 1      @ ../GD32E230_Firmware_Library/GD32E230_standard_peripheral/Source/gd32e230_timer.c:1842:1
	add	sp, #16
	pop	{r4, r5, r6, pc}
.Ltmp269:
	.p2align	2
@ %bb.1:
	.loc	4 0 1 is_stmt 0         @ ../GD32E230_Firmware_Library/GD32E230_standard_peripheral/Source/gd32e230_timer.c:0:1
__arm_cp.63_0:
	.long	4294966524              @ 0xfffffcfc
.Lcpi_end24:
	.size	__arm_cp.63_0, .Lcpi_end24-__arm_cp.63_0
.Lfunc_end63:
	.size	timer_quadrature_decoder_mode_config, .Lfunc_end63-timer_quadrature_decoder_mode_config
	.cfi_endproc
	.cantunwind
	.fnend
                                        @ -- End function
	.section	.text.timer_internal_clock_config,"ax",%progbits
	.hidden	timer_internal_clock_config @ -- Begin function timer_internal_clock_config
	.globl	timer_internal_clock_config
	.p2align	1
	.type	timer_internal_clock_config,%function
	.code	16                      @ @timer_internal_clock_config
	.thumb_func
timer_internal_clock_config:
.Lfunc_begin64:
	.loc	4 1851 0 is_stmt 1      @ ../GD32E230_Firmware_Library/GD32E230_standard_peripheral/Source/gd32e230_timer.c:1851:0
	.fnstart
	.cfi_startproc
@ %bb.0:
	.pad	#4
	sub	sp, #4
	.cfi_def_cfa_offset 4
	str	r0, [sp]
.Ltmp270:
	.loc	4 1852 5 prologue_end   @ ../GD32E230_Firmware_Library/GD32E230_standard_peripheral/Source/gd32e230_timer.c:1852:5
	ldr	r0, [sp]
	.loc	4 1852 31 is_stmt 0     @ ../GD32E230_Firmware_Library/GD32E230_standard_peripheral/Source/gd32e230_timer.c:1852:31
	ldr	r1, [r0, #8]
	movs	r2, #7
	bics	r1, r2
	str	r1, [r0, #8]
	.loc	4 1853 1 is_stmt 1      @ ../GD32E230_Firmware_Library/GD32E230_standard_peripheral/Source/gd32e230_timer.c:1853:1
	add	sp, #4
	bx	lr
.Ltmp271:
.Lfunc_end64:
	.size	timer_internal_clock_config, .Lfunc_end64-timer_internal_clock_config
	.cfi_endproc
	.cantunwind
	.fnend
                                        @ -- End function
	.section	.text.timer_internal_trigger_as_external_clock_config,"ax",%progbits
	.hidden	timer_internal_trigger_as_external_clock_config @ -- Begin function timer_internal_trigger_as_external_clock_config
	.globl	timer_internal_trigger_as_external_clock_config
	.p2align	1
	.type	timer_internal_trigger_as_external_clock_config,%function
	.code	16                      @ @timer_internal_trigger_as_external_clock_config
	.thumb_func
timer_internal_trigger_as_external_clock_config:
.Lfunc_begin65:
	.loc	4 1867 0                @ ../GD32E230_Firmware_Library/GD32E230_standard_peripheral/Source/gd32e230_timer.c:1867:0
	.fnstart
	.cfi_startproc
@ %bb.0:
	.save	{r7, lr}
	push	{r7, lr}
	.cfi_def_cfa_offset 8
	.cfi_offset lr, -4
	.cfi_offset r7, -8
	.pad	#8
	sub	sp, #8
	.cfi_def_cfa_offset 16
	str	r0, [sp, #4]
	str	r1, [sp]
.Ltmp272:
	.loc	4 1868 39 prologue_end  @ ../GD32E230_Firmware_Library/GD32E230_standard_peripheral/Source/gd32e230_timer.c:1868:39
	ldr	r0, [sp, #4]
	.loc	4 1868 53 is_stmt 0     @ ../GD32E230_Firmware_Library/GD32E230_standard_peripheral/Source/gd32e230_timer.c:1868:53
	ldr	r1, [sp]
	.loc	4 1868 5                @ ../GD32E230_Firmware_Library/GD32E230_standard_peripheral/Source/gd32e230_timer.c:1868:5
	bl	timer_input_trigger_source_select
	.loc	4 1869 5 is_stmt 1      @ ../GD32E230_Firmware_Library/GD32E230_standard_peripheral/Source/gd32e230_timer.c:1869:5
	ldr	r0, [sp, #4]
	.loc	4 1869 31 is_stmt 0     @ ../GD32E230_Firmware_Library/GD32E230_standard_peripheral/Source/gd32e230_timer.c:1869:31
	ldr	r1, [r0, #8]
	movs	r2, #7
	bics	r1, r2
	str	r1, [r0, #8]
	.loc	4 1870 5 is_stmt 1      @ ../GD32E230_Firmware_Library/GD32E230_standard_peripheral/Source/gd32e230_timer.c:1870:5
	ldr	r0, [sp, #4]
	.loc	4 1870 31 is_stmt 0     @ ../GD32E230_Firmware_Library/GD32E230_standard_peripheral/Source/gd32e230_timer.c:1870:31
	ldr	r1, [r0, #8]
	orrs	r1, r2
	str	r1, [r0, #8]
	.loc	4 1871 1 is_stmt 1      @ ../GD32E230_Firmware_Library/GD32E230_standard_peripheral/Source/gd32e230_timer.c:1871:1
	add	sp, #8
	pop	{r7, pc}
.Ltmp273:
.Lfunc_end65:
	.size	timer_internal_trigger_as_external_clock_config, .Lfunc_end65-timer_internal_trigger_as_external_clock_config
	.cfi_endproc
	.cantunwind
	.fnend
                                        @ -- End function
	.section	.text.timer_external_trigger_as_external_clock_config,"ax",%progbits
	.hidden	timer_external_trigger_as_external_clock_config @ -- Begin function timer_external_trigger_as_external_clock_config
	.globl	timer_external_trigger_as_external_clock_config
	.p2align	1
	.type	timer_external_trigger_as_external_clock_config,%function
	.code	16                      @ @timer_external_trigger_as_external_clock_config
	.thumb_func
timer_external_trigger_as_external_clock_config:
.Lfunc_begin66:
	.loc	4 1892 0                @ ../GD32E230_Firmware_Library/GD32E230_standard_peripheral/Source/gd32e230_timer.c:1892:0
	.fnstart
	.cfi_startproc
@ %bb.0:
	.save	{r4, lr}
	push	{r4, lr}
	.cfi_def_cfa_offset 8
	.cfi_offset lr, -4
	.cfi_offset r4, -8
	.pad	#16
	sub	sp, #16
	.cfi_def_cfa_offset 24
	mov	r4, r2
	str	r0, [sp, #12]
	str	r1, [sp, #8]
	add	r0, sp, #4
	strh	r2, [r0]
	str	r3, [sp]
.Ltmp274:
	.loc	4 1893 37 prologue_end  @ ../GD32E230_Firmware_Library/GD32E230_standard_peripheral/Source/gd32e230_timer.c:1893:37
	ldr	r0, [sp, #8]
.Ltmp275:
	.loc	4 1893 8 is_stmt 0      @ ../GD32E230_Firmware_Library/GD32E230_standard_peripheral/Source/gd32e230_timer.c:1893:8
	cmp	r0, #96
	bne	.LBB66_2
	b	.LBB66_1
.LBB66_1:
.Ltmp276:
	.loc	4 1895 9 is_stmt 1      @ ../GD32E230_Firmware_Library/GD32E230_standard_peripheral/Source/gd32e230_timer.c:1895:9
	ldr	r0, [sp, #12]
