	.text
	.syntax unified
	.eabi_attribute	67, "2.09"	@ Tag_conformance
	.cpu	cortex-m23
	.eabi_attribute	6, 16	@ Tag_CPU_arch
	.eabi_attribute	7, 77	@ Tag_CPU_arch_profile
	.eabi_attribute	8, 0	@ Tag_ARM_ISA_use
	.eabi_attribute	9, 3	@ Tag_THUMB_ISA_use
	.eabi_attribute	34, 0	@ Tag_CPU_unaligned_access
	.eabi_attribute	17, 1	@ Tag_ABI_PCS_GOT_use
	.eabi_attribute	20, 2	@ Tag_ABI_FP_denormal
	.eabi_attribute	21, 0	@ Tag_ABI_FP_exceptions
	.eabi_attribute	23, 1	@ Tag_ABI_FP_number_model
	.eabi_attribute	24, 1	@ Tag_ABI_align_needed
	.eabi_attribute	25, 1	@ Tag_ABI_align_preserved
	.eabi_attribute	38, 1	@ Tag_ABI_FP_16bit_format
	.eabi_attribute	18, 2	@ Tag_ABI_PCS_wchar_t
	.eabi_attribute	26, 1	@ Tag_ABI_enum_size
	.eabi_attribute	14, 0	@ Tag_ABI_PCS_R9_use
	.file	"main.c"
	.file	1 "D:\\Keil_v5\\ARM\\ARMCLANG\\Bin\\..\\include" "stdint.h"
	.file	2 "E:\\Soway\\Soway_product-soft\\105 - T119-GD\\E230 -  ds18b20-F8\\MDK-ARM" "../User/main.c"
	.file	3 "E:\\Soway\\Soway_product-soft\\105 - T119-GD\\E230 -  ds18b20-F8\\MDK-ARM" "../GD32E230_Firmware_Library/CMSIS/GD/GD32E230/Include\\gd32e230.h"
	.file	4 "E:\\Soway\\Soway_product-soft\\105 - T119-GD\\E230 -  ds18b20-F8\\MDK-ARM" "../GD32E230_Firmware_Library/GD32E230_standard_peripheral/Include\\gd32e230_rcu.h"
	.file	5 "E:\\Soway\\Soway_product-soft\\105 - T119-GD\\E230 -  ds18b20-F8\\MDK-ARM" "../GD32E230_Firmware_Library/GD32E230_standard_peripheral/Include\\gd32e230_usart.h"
	.section	.text.DRV_IWDG_Init,"ax",%progbits
	.hidden	DRV_IWDG_Init           @ -- Begin function DRV_IWDG_Init
	.globl	DRV_IWDG_Init
	.p2align	2
	.type	DRV_IWDG_Init,%function
	.code	16                      @ @DRV_IWDG_Init
	.thumb_func
DRV_IWDG_Init:
.Lfunc_begin0:
	.loc	2 80 0                  @ ../User/main.c:80:0
	.fnstart
	.cfi_sections .debug_frame
	.cfi_startproc
@ %bb.0:
	.save	{r7, lr}
	push	{r7, lr}
	.cfi_def_cfa_offset 8
	.cfi_offset lr, -4
	.cfi_offset r7, -8
	.pad	#8
	sub	sp, #8
	.cfi_def_cfa_offset 16
	movw	r0, #2304
.Ltmp0:
	.loc	2 81 2 prologue_end     @ ../User/main.c:81:2
	bl	rcu_osci_on
	.loc	2 82 5                  @ ../User/main.c:82:5
	b	.LBB0_1
.LBB0_1:                                @ =>This Inner Loop Header: Depth=1
	.loc	2 0 5 is_stmt 0         @ ../User/main.c:0:5
	movw	r0, #2304
	.loc	2 82 22                 @ ../User/main.c:82:22
	bl	rcu_osci_stab_wait
	.loc	2 82 5                  @ ../User/main.c:82:5
	cmp	r0, #1
	beq	.LBB0_3
	b	.LBB0_2
.LBB0_2:                                @   in Loop: Header=BB0_1 Depth=1
	b	.LBB0_1
.LBB0_3:
	.loc	2 0 5                   @ ../User/main.c:0:5
	ldr	r0, __arm_cp.0_0
	movs	r1, #6
	.loc	2 86 2 is_stmt 1        @ ../User/main.c:86:2
	bl	fwdgt_config
	.loc	2 87 2                  @ ../User/main.c:87:2
	str	r0, [sp, #4]            @ 4-byte Spill
	bl	fwdgt_enable
	.loc	2 89 1                  @ ../User/main.c:89:1
	add	sp, #8
	pop	{r7, pc}
.Ltmp1:
	.p2align	2
@ %bb.4:
	.loc	2 0 1 is_stmt 0         @ ../User/main.c:0:1
__arm_cp.0_0:
	.long	2500                    @ 0x9c4
.Lcpi_end0:
	.size	__arm_cp.0_0, .Lcpi_end0-__arm_cp.0_0
.Lfunc_end0:
	.size	DRV_IWDG_Init, .Lfunc_end0-DRV_IWDG_Init
	.cfi_endproc
	.cantunwind
	.fnend
                                        @ -- End function
	.section	.text.rs485_Init,"ax",%progbits
	.hidden	rs485_Init              @ -- Begin function rs485_Init
	.globl	rs485_Init
	.p2align	2
	.type	rs485_Init,%function
	.code	16                      @ @rs485_Init
	.thumb_func
rs485_Init:
.Lfunc_begin1:
	.loc	2 94 0 is_stmt 1        @ ../User/main.c:94:0
	.fnstart
	.cfi_startproc
@ %bb.0:
	.save	{r7, lr}
	push	{r7, lr}
	.cfi_def_cfa_offset 8
	.cfi_offset lr, -4
	.cfi_offset r7, -8
	.pad	#16
	sub	sp, #16
	.cfi_def_cfa_offset 24
	ldr	r0, __arm_cp.1_0
.Ltmp2:
	.loc	2 96 5 prologue_end     @ ../User/main.c:96:5
	bl	rcu_periph_clock_enable
	movs	r0, #9
	lsls	r0, r0, #27
	movs	r1, #1
	movs	r2, #0
	movs	r3, #16
	.loc	2 98 5                  @ ../User/main.c:98:5
	str	r0, [sp, #12]           @ 4-byte Spill
	str	r1, [sp, #8]            @ 4-byte Spill
	str	r2, [sp, #4]            @ 4-byte Spill
	str	r3, [sp]                @ 4-byte Spill
	bl	gpio_mode_set
	.loc	2 100 2                 @ ../User/main.c:100:2
	ldr	r0, [sp, #12]           @ 4-byte Reload
	ldr	r1, [sp, #4]            @ 4-byte Reload
	ldr	r2, [sp, #8]            @ 4-byte Reload
	ldr	r3, [sp]                @ 4-byte Reload
	bl	gpio_output_options_set
	.loc	2 102 2                 @ ../User/main.c:102:2
	ldr	r0, [sp, #12]           @ 4-byte Reload
	ldr	r1, [sp]                @ 4-byte Reload
	bl	gpio_bit_reset
	.loc	2 104 1                 @ ../User/main.c:104:1
	add	sp, #16
	pop	{r7, pc}
.Ltmp3:
	.p2align	2
@ %bb.1:
	.loc	2 0 1 is_stmt 0         @ ../User/main.c:0:1
__arm_cp.1_0:
	.long	1297                    @ 0x511
.Lcpi_end1:
	.size	__arm_cp.1_0, .Lcpi_end1-__arm_cp.1_0
.Lfunc_end1:
	.size	rs485_Init, .Lfunc_end1-rs485_Init
	.cfi_endproc
	.cantunwind
	.fnend
                                        @ -- End function
	.section	.text.delayms,"ax",%progbits
	.hidden	delayms                 @ -- Begin function delayms
	.globl	delayms
	.p2align	1
	.type	delayms,%function
	.code	16                      @ @delayms
	.thumb_func
delayms:
.Lfunc_begin2:
	.loc	2 107 0 is_stmt 1       @ ../User/main.c:107:0
	.fnstart
	.cfi_startproc
@ %bb.0:
	.pad	#8
	sub	sp, #8
	.cfi_def_cfa_offset 8
	add	r0, sp, #4
	movs	r1, #255
.Ltmp4:
	.loc	2 108 11 prologue_end   @ ../User/main.c:108:11
	strh	r1, [r0]
	mov	r0, sp
	.loc	2 108 18 is_stmt 0      @ ../User/main.c:108:18
	strh	r1, [r0]
	.loc	2 109 2 is_stmt 1       @ ../User/main.c:109:2
	b	.LBB2_1
.LBB2_1:                                @ =>This Loop Header: Depth=1
                                        @     Child Loop BB2_3 Depth 2
	.loc	2 0 2 is_stmt 0         @ ../User/main.c:0:2
	add	r0, sp, #4
.Ltmp5:
	.loc	2 109 7                 @ ../User/main.c:109:7
	ldrh	r0, [r0]
.Ltmp6:
	.loc	2 109 2                 @ ../User/main.c:109:2
	cmp	r0, #1
	blt	.LBB2_8
	b	.LBB2_2
.LBB2_2:                                @   in Loop: Header=BB2_1 Depth=1
.Ltmp7:
	.loc	2 110 3 is_stmt 1       @ ../User/main.c:110:3
	b	.LBB2_3
.LBB2_3:                                @   Parent Loop BB2_1 Depth=1
                                        @ =>  This Inner Loop Header: Depth=2
	.loc	2 0 3 is_stmt 0         @ ../User/main.c:0:3
	mov	r0, sp
.Ltmp8:
	.loc	2 110 8                 @ ../User/main.c:110:8
	ldrh	r0, [r0]
.Ltmp9:
	.loc	2 110 3                 @ ../User/main.c:110:3
	cmp	r0, #1
	blt	.LBB2_6
	b	.LBB2_4
.LBB2_4:                                @   in Loop: Header=BB2_3 Depth=2
	b	.LBB2_5
.LBB2_5:                                @   in Loop: Header=BB2_3 Depth=2
.Ltmp10:
	.loc	2 110 13                @ ../User/main.c:110:13
	ldr	r0, [sp]
	subs	r0, r0, #1
	mov	r1, sp
	strh	r0, [r1]
	.loc	2 110 3                 @ ../User/main.c:110:3
	b	.LBB2_3
.Ltmp11:
.LBB2_6:                                @   in Loop: Header=BB2_1 Depth=1
	.loc	2 110 16                @ ../User/main.c:110:16
	b	.LBB2_7
.Ltmp12:
.LBB2_7:                                @   in Loop: Header=BB2_1 Depth=1
	.loc	2 109 12 is_stmt 1      @ ../User/main.c:109:12
	ldr	r0, [sp, #4]
	subs	r0, r0, #1
	add	r1, sp, #4
	strh	r0, [r1]
	.loc	2 109 2 is_stmt 0       @ ../User/main.c:109:2
	b	.LBB2_1
.Ltmp13:
.LBB2_8:
	.loc	2 111 1 is_stmt 1       @ ../User/main.c:111:1
	add	sp, #8
	bx	lr
.Ltmp14:
.Lfunc_end2:
	.size	delayms, .Lfunc_end2-delayms
	.cfi_endproc
	.cantunwind
	.fnend
                                        @ -- End function
	.section	.text.main,"ax",%progbits
	.hidden	main                    @ -- Begin function main
	.globl	main
	.p2align	2
	.type	main,%function
	.code	16                      @ @main
	.thumb_func
main:
.Lfunc_begin3:
	.loc	2 125 0                 @ ../User/main.c:125:0
	.fnstart
	.cfi_startproc
@ %bb.0:
	.save	{r7, lr}
	push	{r7, lr}
	.cfi_def_cfa_offset 8
	.cfi_offset lr, -4
	.cfi_offset r7, -8
	.pad	#24
	sub	sp, #24
	.cfi_def_cfa_offset 32
	movs	r0, #0
	str	r0, [sp, #20]
	movs	r1, #1
	lsls	r1, r1, #27
	movw	r2, #16384
.Ltmp15:
	.loc	2 127 2 prologue_end    @ ../User/main.c:127:2
	str	r0, [sp]                @ 4-byte Spill
	mov	r0, r1
	mov	r1, r2
	bl	nvic_vector_table_set
	add	r0, sp, #4
	.loc	2 129 10                @ ../User/main.c:129:10
	ldr	r1, [sp]                @ 4-byte Reload
	strb	r1, [r0, #12]
	ldr	r0, __arm_cp.3_0
	str	r0, [sp, #12]
	ldr	r0, __arm_cp.3_1
	str	r0, [sp, #8]
	ldr	r0, __arm_cp.3_2
	str	r0, [sp, #4]
	.loc	2 131 4                 @ ../User/main.c:131:4
	ldr	r0, __arm_cp.3_3
	strb	r1, [r0]
	movs	r0, #28
	movs	r1, #2
	.loc	2 133 2                 @ ../User/main.c:133:2
	bl	nvic_irq_enable
	.loc	2 136 5                 @ ../User/main.c:136:5
	bl	com_gpio_init
	.loc	2 137 5                 @ ../User/main.c:137:5
	bl	com_usart_init
	ldr	r0, __arm_cp.3_4
	movs	r1, #5
	.loc	2 142 2                 @ ../User/main.c:142:2
	bl	usart_interrupt_enable
	.loc	2 144 2                 @ ../User/main.c:144:2
	bl	DRV_IWDG_Init
	.loc	2 147 2                 @ ../User/main.c:147:2
	bl	TIMER2_Init
	.loc	2 149 2                 @ ../User/main.c:149:2
	bl	TIMER15_Init
	.loc	2 151 2                 @ ../User/main.c:151:2
	bl	ReadPara
	.loc	2 153 2                 @ ../User/main.c:153:2
	bl	DS18B20_Init
	.loc	2 155 5                 @ ../User/main.c:155:5
	b	.LBB3_1
.LBB3_1:                                @ =>This Inner Loop Header: Depth=1
.Ltmp16:
	.loc	2 159 3                 @ ../User/main.c:159:3
	bl	fwdgt_counter_reload
.Ltmp17:
	.loc	2 161 6                 @ ../User/main.c:161:6
	ldr	r0, __arm_cp.3_5
	ldrb	r0, [r0]
.Ltmp18:
	.loc	2 161 6 is_stmt 0       @ ../User/main.c:161:6
	cmp	r0, #0
	beq	.LBB3_5
	b	.LBB3_2
.LBB3_2:                                @   in Loop: Header=BB3_1 Depth=1
.Ltmp19:
	.loc	2 163 5 is_stmt 1       @ ../User/main.c:163:5
	ldr	r0, __arm_cp.3_6
	ldrh	r1, [r0]
	adds	r1, r1, #1
	strh	r1, [r0]
.Ltmp20:
	.loc	2 164 7                 @ ../User/main.c:164:7
	ldrh	r0, [r0]
.Ltmp21:
	.loc	2 164 7 is_stmt 0       @ ../User/main.c:164:7
	cmp	r0, #2
	blt	.LBB3_4
	b	.LBB3_3
.LBB3_3:                                @   in Loop: Header=BB3_1 Depth=1
.Ltmp22:
	.loc	2 165 7 is_stmt 1       @ ../User/main.c:165:7
	ldr	r0, __arm_cp.3_6
	movs	r1, #3
	strh	r1, [r0]
	.loc	2 165 5 is_stmt 0       @ ../User/main.c:165:5
	b	.LBB3_4
.Ltmp23:
.LBB3_4:                                @   in Loop: Header=BB3_1 Depth=1
	.loc	2 166 17 is_stmt 1      @ ../User/main.c:166:17
	ldr	r0, __arm_cp.3_5
	movs	r1, #0
	strb	r1, [r0]
	.loc	2 168 4                 @ ../User/main.c:168:4
	bl	TemData_Handle
	.loc	2 169 3                 @ ../User/main.c:169:3
	b	.LBB3_5
.Ltmp24:
.LBB3_5:                                @   in Loop: Header=BB3_1 Depth=1
	.loc	2 173 6                 @ ../User/main.c:173:6
	ldr	r0, __arm_cp.3_6
	ldrh	r0, [r0]
.Ltmp25:
	.loc	2 173 6 is_stmt 0       @ ../User/main.c:173:6
	cmp	r0, #2
	blt	.LBB3_7
	b	.LBB3_6
.LBB3_6:                                @   in Loop: Header=BB3_1 Depth=1
.Ltmp26:
	.loc	2 175 4 is_stmt 1       @ ../User/main.c:175:4
	bl	MBASC_Function
	.loc	2 176 3                 @ ../User/main.c:176:3
	b	.LBB3_7
.Ltmp27:
.LBB3_7:                                @   in Loop: Header=BB3_1 Depth=1
	.loc	2 155 5                 @ ../User/main.c:155:5
	b	.LBB3_1
.Ltmp28:
	.p2align	2
@ %bb.8:
	.loc	2 0 5 is_stmt 0         @ ../User/main.c:0:5
__arm_cp.3_0:
	.long	168650343               @ 0xa0d6667
.Lcpi_end2:
	.size	__arm_cp.3_0, .Lcpi_end2-__arm_cp.3_0
__arm_cp.3_1:
	.long	1702322535              @ 0x65776167
.Lcpi_end3:
	.size	__arm_cp.3_1, .Lcpi_end3-__arm_cp.3_1
__arm_cp.3_2:
	.long	1936156516              @ 0x73676764
.Lcpi_end4:
	.size	__arm_cp.3_2, .Lcpi_end4-__arm_cp.3_2
__arm_cp.3_3:
	.long	j
.Lcpi_end5:
	.size	__arm_cp.3_3, .Lcpi_end5-__arm_cp.3_3
__arm_cp.3_4:
	.long	1073759232              @ 0x40004400
.Lcpi_end6:
	.size	__arm_cp.3_4, .Lcpi_end6-__arm_cp.3_4
__arm_cp.3_5:
	.long	Time_1s_flag
.Lcpi_end7:
	.size	__arm_cp.3_5, .Lcpi_end7-__arm_cp.3_5
__arm_cp.3_6:
	.long	i
.Lcpi_end8:
	.size	__arm_cp.3_6, .Lcpi_end8-__arm_cp.3_6
.Lfunc_end3:
	.size	main, .Lfunc_end3-main
	.cfi_endproc
	.cantunwind
	.fnend
                                        @ -- End function
	.section	.text.com_gpio_init,"ax",%progbits
	.hidden	com_gpio_init           @ -- Begin function com_gpio_init
	.globl	com_gpio_init
	.p2align	2
	.type	com_gpio_init,%function
	.code	16                      @ @com_gpio_init
	.thumb_func
com_gpio_init:
.Lfunc_begin4:
	.loc	2 312 0 is_stmt 1       @ ../User/main.c:312:0
	.fnstart
	.cfi_startproc
@ %bb.0:
	.save	{r7, lr}
	push	{r7, lr}
	.cfi_def_cfa_offset 8
	.cfi_offset lr, -4
	.cfi_offset r7, -8
	.pad	#24
	sub	sp, #24
	.cfi_def_cfa_offset 32
	ldr	r0, __arm_cp.4_0
.Ltmp29:
	.loc	2 314 5 prologue_end    @ ../User/main.c:314:5
	bl	rcu_periph_clock_enable
	movs	r0, #9
	lsls	r0, r0, #27
	movs	r1, #1
	movs	r2, #4
	.loc	2 317 5                 @ ../User/main.c:317:5
	str	r0, [sp, #20]           @ 4-byte Spill
	str	r1, [sp, #16]           @ 4-byte Spill
	str	r2, [sp, #12]           @ 4-byte Spill
	bl	gpio_af_set
	movs	r0, #8
	.loc	2 320 5                 @ ../User/main.c:320:5
	ldr	r1, [sp, #20]           @ 4-byte Reload
	str	r0, [sp, #8]            @ 4-byte Spill
	mov	r0, r1
	ldr	r1, [sp, #16]           @ 4-byte Reload
	ldr	r2, [sp, #8]            @ 4-byte Reload
	bl	gpio_af_set
	movs	r0, #2
	.loc	2 323 5                 @ ../User/main.c:323:5
	ldr	r1, [sp, #20]           @ 4-byte Reload
	str	r0, [sp, #4]            @ 4-byte Spill
	mov	r0, r1
	ldr	r1, [sp, #4]            @ 4-byte Reload
	ldr	r2, [sp, #16]           @ 4-byte Reload
	ldr	r3, [sp, #12]           @ 4-byte Reload
	bl	gpio_mode_set
	movs	r0, #0
	.loc	2 324 5                 @ ../User/main.c:324:5
	ldr	r1, [sp, #20]           @ 4-byte Reload
	str	r0, [sp]                @ 4-byte Spill
	mov	r0, r1
	ldr	r1, [sp]                @ 4-byte Reload
	ldr	r2, [sp, #16]           @ 4-byte Reload
	ldr	r3, [sp, #12]           @ 4-byte Reload
	bl	gpio_output_options_set
	.loc	2 327 5                 @ ../User/main.c:327:5
	ldr	r0, [sp, #20]           @ 4-byte Reload
	ldr	r1, [sp, #4]            @ 4-byte Reload
	ldr	r2, [sp, #16]           @ 4-byte Reload
	ldr	r3, [sp, #8]            @ 4-byte Reload
	bl	gpio_mode_set
	.loc	2 328 5                 @ ../User/main.c:328:5
	ldr	r0, [sp, #20]           @ 4-byte Reload
	ldr	r1, [sp]                @ 4-byte Reload
	ldr	r2, [sp, #16]           @ 4-byte Reload
	ldr	r3, [sp, #8]            @ 4-byte Reload
	bl	gpio_output_options_set
	.loc	2 329 1                 @ ../User/main.c:329:1
	add	sp, #24
	pop	{r7, pc}
.Ltmp30:
	.p2align	2
@ %bb.1:
	.loc	2 0 1 is_stmt 0         @ ../User/main.c:0:1
__arm_cp.4_0:
	.long	1297                    @ 0x511
.Lcpi_end9:
	.size	__arm_cp.4_0, .Lcpi_end9-__arm_cp.4_0
.Lfunc_end4:
	.size	com_gpio_init, .Lfunc_end4-com_gpio_init
	.cfi_endproc
	.cantunwind
	.fnend
                                        @ -- End function
	.section	.text.com_usart_init,"ax",%progbits
	.hidden	com_usart_init          @ -- Begin function com_usart_init
	.globl	com_usart_init
	.p2align	2
	.type	com_usart_init,%function
	.code	16                      @ @com_usart_init
	.thumb_func
com_usart_init:
.Lfunc_begin5:
	.loc	2 339 0 is_stmt 1       @ ../User/main.c:339:0
	.fnstart
	.cfi_startproc
@ %bb.0:
	.save	{r7, lr}
	push	{r7, lr}
	.cfi_def_cfa_offset 8
	.cfi_offset lr, -4
	.cfi_offset r7, -8
	.pad	#16
	sub	sp, #16
	.cfi_def_cfa_offset 24
	ldr	r0, __arm_cp.5_0
.Ltmp31:
	.loc	2 343 5 prologue_end    @ ../User/main.c:343:5
	bl	rcu_periph_clock_enable
	.loc	2 345 2                 @ ../User/main.c:345:2
	ldr	r0, __arm_cp.5_1
	adds	r1, r0, #5
	movs	r2, #3
	movs	r3, #1
	str	r0, [sp, #12]           @ 4-byte Spill
	mov	r0, r2
	mov	r2, r3
	bl	flash_read_multi
	ldr	r0, __arm_cp.5_2
	.loc	2 347 5                 @ ../User/main.c:347:5
	bl	usart_deinit
	.loc	2 348 21                @ ../User/main.c:348:21
	ldr	r0, [sp, #12]           @ 4-byte Reload
	ldrb	r1, [r0, #5]
	.loc	2 348 5 is_stmt 0       @ ../User/main.c:348:5
	subs	r1, r1, #1
	cmp	r1, #6
	str	r1, [sp, #8]            @ 4-byte Spill
	bhi	.LBB5_10
@ %bb.1:
	.loc	2 0 5                   @ ../User/main.c:0:5
	ldr	r0, [sp, #8]            @ 4-byte Reload
	lsls	r1, r0, #2
	adr	r2, .LJTI5_0
	adds	r1, r2, r1
	mov	pc, r1
@ %bb.2:
	.p2align	2
.LJTI5_0:
	b.w	.LBB5_3
	b.w	.LBB5_4
	b.w	.LBB5_5
	b.w	.LBB5_6
	b.w	.LBB5_7
	b.w	.LBB5_8
	b.w	.LBB5_9
.LBB5_3:
	ldr	r0, __arm_cp.5_2
	movw	r1, #2400
.Ltmp32:
	.loc	2 351 4 is_stmt 1       @ ../User/main.c:351:4
	bl	usart_baudrate_set
	.loc	2 352 4                 @ ../User/main.c:352:4
	b	.LBB5_11
.LBB5_4:
	.loc	2 0 4 is_stmt 0         @ ../User/main.c:0:4
	ldr	r0, __arm_cp.5_2
	movw	r1, #4800
	.loc	2 355 4 is_stmt 1       @ ../User/main.c:355:4
	bl	usart_baudrate_set
	.loc	2 356 4                 @ ../User/main.c:356:4
	b	.LBB5_11
.LBB5_5:
	.loc	2 0 4 is_stmt 0         @ ../User/main.c:0:4
	ldr	r0, __arm_cp.5_2
	movw	r1, #9600
	.loc	2 359 4 is_stmt 1       @ ../User/main.c:359:4
	bl	usart_baudrate_set
	.loc	2 360 4                 @ ../User/main.c:360:4
	b	.LBB5_11
.LBB5_6:
	.loc	2 0 4 is_stmt 0         @ ../User/main.c:0:4
	ldr	r0, __arm_cp.5_2
	movw	r1, #19200
	.loc	2 363 4 is_stmt 1       @ ../User/main.c:363:4
	bl	usart_baudrate_set
	.loc	2 364 4                 @ ../User/main.c:364:4
	b	.LBB5_11
.LBB5_7:
	.loc	2 0 4 is_stmt 0         @ ../User/main.c:0:4
	ldr	r0, __arm_cp.5_2
	movw	r1, #38400
	.loc	2 367 4 is_stmt 1       @ ../User/main.c:367:4
	bl	usart_baudrate_set
	.loc	2 368 4                 @ ../User/main.c:368:4
	b	.LBB5_11
.LBB5_8:
	.loc	2 0 4 is_stmt 0         @ ../User/main.c:0:4
	ldr	r0, __arm_cp.5_2
	movw	r1, #57600
	.loc	2 371 4 is_stmt 1       @ ../User/main.c:371:4
	bl	usart_baudrate_set
	.loc	2 372 4                 @ ../User/main.c:372:4
	b	.LBB5_11
.LBB5_9:
	.loc	2 0 4 is_stmt 0         @ ../User/main.c:0:4
	movs	r0, #225
	lsls	r1, r0, #9
	ldr	r0, __arm_cp.5_2
	.loc	2 375 4 is_stmt 1       @ ../User/main.c:375:4
	bl	usart_baudrate_set
	.loc	2 376 4                 @ ../User/main.c:376:4
	b	.LBB5_11
.LBB5_10:
	.loc	2 0 4 is_stmt 0         @ ../User/main.c:0:4
	ldr	r0, __arm_cp.5_2
	movw	r1, #9600
	.loc	2 378 4 is_stmt 1       @ ../User/main.c:378:4
	bl	usart_baudrate_set
	.loc	2 379 4                 @ ../User/main.c:379:4
	b	.LBB5_11
.Ltmp33:
.LBB5_11:
	.loc	2 384 2                 @ ../User/main.c:384:2
	bl	rs485_Init
	ldr	r0, __arm_cp.5_2
	movs	r1, #4
	.loc	2 386 5                 @ ../User/main.c:386:5
	str	r0, [sp, #4]            @ 4-byte Spill
	bl	usart_receive_config
	movs	r1, #8
	.loc	2 387 5                 @ ../User/main.c:387:5
	ldr	r0, [sp, #4]            @ 4-byte Reload
	bl	usart_transmit_config
	.loc	2 389 5                 @ ../User/main.c:389:5
	ldr	r0, [sp, #4]            @ 4-byte Reload
	bl	usart_enable
	.loc	2 390 1                 @ ../User/main.c:390:1
	add	sp, #16
	pop	{r7, pc}
.Ltmp34:
	.p2align	2
@ %bb.12:
	.loc	2 0 1 is_stmt 0         @ ../User/main.c:0:1
__arm_cp.5_0:
	.long	1809                    @ 0x711
.Lcpi_end10:
	.size	__arm_cp.5_0, .Lcpi_end10-__arm_cp.5_0
__arm_cp.5_1:
	.long	UserPara
.Lcpi_end11:
	.size	__arm_cp.5_1, .Lcpi_end11-__arm_cp.5_1
__arm_cp.5_2:
	.long	1073759232              @ 0x40004400
.Lcpi_end12:
	.size	__arm_cp.5_2, .Lcpi_end12-__arm_cp.5_2
.Lfunc_end5:
	.size	com_usart_init, .Lfunc_end5-com_usart_init
	.cfi_endproc
	.cantunwind
	.fnend
                                        @ -- End function
	.section	.text.TemData_Handle,"ax",%progbits
	.p2align	2               @ -- Begin function TemData_Handle
	.type	TemData_Handle,%function
	.code	16                      @ @TemData_Handle
	.thumb_func
TemData_Handle:
.Lfunc_begin6:
	.loc	2 185 0 is_stmt 1       @ ../User/main.c:185:0
	.fnstart
	.cfi_startproc
@ %bb.0:
	.save	{r7, lr}
	push	{r7, lr}
	.cfi_def_cfa_offset 8
	.cfi_offset lr, -4
	.cfi_offset r7, -8
.Ltmp35:
	.loc	2 194 12 prologue_end   @ ../User/main.c:194:12
	bl	DS18B20_Get_Temp
	.loc	2 194 10 is_stmt 0      @ ../User/main.c:194:10
	ldr	r1, __arm_cp.6_0
	str	r0, [r1]
.Ltmp36:
	.loc	2 196 5 is_stmt 1       @ ../User/main.c:196:5
	ldr	r0, __arm_cp.6_1
	ldrb	r0, [r0]
.Ltmp37:
	.loc	2 196 5 is_stmt 0       @ ../User/main.c:196:5
	cmp	r0, #2
	bgt	.LBB6_2
	b	.LBB6_1
.LBB6_1:
.Ltmp38:
	.loc	2 198 4 is_stmt 1       @ ../User/main.c:198:4
	ldr	r0, __arm_cp.6_1
	ldrb	r1, [r0]
	adds	r1, r1, #1
	strb	r1, [r0]
	.loc	2 199 14                @ ../User/main.c:199:14
	ldr	r0, __arm_cp.6_0
	ldr	r0, [r0]
	.loc	2 199 12 is_stmt 0      @ ../User/main.c:199:12
	ldr	r1, __arm_cp.6_2
	str	r0, [r1]
	.loc	2 200 2 is_stmt 1       @ ../User/main.c:200:2
	b	.LBB6_2
.Ltmp39:
.LBB6_2:
	.loc	2 202 18                @ ../User/main.c:202:18
	ldr	r0, __arm_cp.6_0
	ldr	r0, [r0]
	.loc	2 202 28 is_stmt 0      @ ../User/main.c:202:28
	ldr	r1, __arm_cp.6_2
	ldr	r1, [r1]
	.loc	2 202 26                @ ../User/main.c:202:26
	subs	r0, r0, r1
	ldr	r1, __arm_cp.6_3
	.loc	2 202 39                @ ../User/main.c:202:39
	cmp	r0, r1
	blt	.LBB6_4
	b	.LBB6_3
.LBB6_3:
	.loc	2 202 44                @ ../User/main.c:202:44
	ldr	r0, __arm_cp.6_0
	ldr	r0, [r0]
	.loc	2 202 54                @ ../User/main.c:202:54
	ldr	r1, __arm_cp.6_2
	ldr	r1, [r1]
	.loc	2 202 52                @ ../User/main.c:202:52
	subs	r0, r0, r1
	ldr	r1, __arm_cp.6_4
.Ltmp40:
	.loc	2 202 5                 @ ../User/main.c:202:5
	cmp	r0, r1
	blt	.LBB6_5
	b	.LBB6_4
.LBB6_4:
.Ltmp41:
	.loc	2 204 3 is_stmt 1       @ ../User/main.c:204:3
	bl	DS18B20_Init
	.loc	2 205 20                @ ../User/main.c:205:20
	ldr	r0, __arm_cp.6_11
	movs	r1, #0
	str	r1, [r0]
	.loc	2 206 3                 @ ../User/main.c:206:3
	bl	fwdgt_counter_reload
	.loc	2 207 9                 @ ../User/main.c:207:9
	b	.LBB6_32
.Ltmp42:
.LBB6_5:
	.loc	2 211 14                @ ../User/main.c:211:14
	ldr	r0, __arm_cp.6_0
	ldr	r0, [r0]
	.loc	2 211 12 is_stmt 0      @ ../User/main.c:211:12
	ldr	r1, __arm_cp.6_2
	str	r0, [r1]
	b	.LBB6_6
.Ltmp43:
.LBB6_6:
	.loc	2 214 8 is_stmt 1       @ ../User/main.c:214:8
	ldr	r0, __arm_cp.6_0
	ldr	r0, [r0]
	ldr	r1, __arm_cp.6_5
.Ltmp44:
	.loc	2 214 8 is_stmt 0       @ ../User/main.c:214:8
	cmp	r0, r1
	bne	.LBB6_8
	b	.LBB6_7
.LBB6_7:
.Ltmp45:
	.loc	2 216 9 is_stmt 1       @ ../User/main.c:216:9
	bl	DS18B20_Init
	.loc	2 217 20                @ ../User/main.c:217:20
	ldr	r0, __arm_cp.6_11
	movs	r1, #0
	str	r1, [r0]
	.loc	2 218 9                 @ ../User/main.c:218:9
	b	.LBB6_32
.Ltmp46:
.LBB6_8:
	.loc	2 221 9                 @ ../User/main.c:221:9
	ldr	r0, __arm_cp.6_0
	ldr	r0, [r0]
	ldr	r1, __arm_cp.6_6
	.loc	2 221 29 is_stmt 0      @ ../User/main.c:221:29
	cmp	r0, r1
	blt	.LBB6_10
	b	.LBB6_9
.LBB6_9:
	.loc	2 221 33                @ ../User/main.c:221:33
	ldr	r0, __arm_cp.6_0
	ldr	r0, [r0]
	ldr	r1, __arm_cp.6_7
.Ltmp47:
	.loc	2 221 8                 @ ../User/main.c:221:8
	cmp	r0, r1
	blt	.LBB6_11
	b	.LBB6_10
.LBB6_10:
.Ltmp48:
	.loc	2 223 9 is_stmt 1       @ ../User/main.c:223:9
	b	.LBB6_32
.Ltmp49:
.LBB6_11:
	.loc	2 227 25                @ ../User/main.c:227:25
	ldr	r0, __arm_cp.6_0
	ldr	r0, [r0]
	.loc	2 227 23 is_stmt 0      @ ../User/main.c:227:23
	ldr	r1, __arm_cp.6_8
	str	r0, [r1]
.Ltmp50:
	.loc	2 250 17 is_stmt 1      @ ../User/main.c:250:17
	ldr	r0, [r1]
	.loc	2 250 25 is_stmt 0      @ ../User/main.c:250:25
	ldrh	r1, [r1, #8]
	ldr	r2, __arm_cp.6_9
	muls	r2, r1, r2
	ldr	r1, __arm_cp.6_5
	adds	r1, r2, r1
.Ltmp51:
	.loc	2 250 8                 @ ../User/main.c:250:8
	cmp	r0, r1
	ble	.LBB6_18
	b	.LBB6_12
.LBB6_12:
.Ltmp52:
	.loc	2 252 23 is_stmt 1      @ ../User/main.c:252:23
	ldr	r0, __arm_cp.6_8
.Ltmp53:
	.loc	2 252 12 is_stmt 0      @ ../User/main.c:252:12
	ldrb	r0, [r0, #22]
	lsls	r0, r0, #31
	cmp	r0, #0
	bne	.LBB6_16
	b	.LBB6_13
.LBB6_13:
.Ltmp54:
	.loc	2 254 27 is_stmt 1      @ ../User/main.c:254:27
	ldr	r0, __arm_cp.6_10
	ldr	r1, [r0]
	adds	r2, r1, #1
	str	r2, [r0]
	.loc	2 254 42 is_stmt 0      @ ../User/main.c:254:42
	ldr	r0, __arm_cp.6_8
	ldrh	r0, [r0, #12]
	.loc	2 254 49                @ ../User/main.c:254:49
	subs	r0, r0, #1
.Ltmp55:
	.loc	2 254 16                @ ../User/main.c:254:16
	cmp	r1, r0
	blo	.LBB6_15
	b	.LBB6_14
.LBB6_14:
.Ltmp56:
	.loc	2 256 29 is_stmt 1      @ ../User/main.c:256:29
	ldr	r0, __arm_cp.6_10
	movs	r1, #0
	str	r1, [r0]
	.loc	2 257 35                @ ../User/main.c:257:35
	ldr	r0, __arm_cp.6_8
	ldr	r1, [r0, #20]
	movs	r2, #1
	lsls	r2, r2, #16
	orrs	r1, r2
	str	r1, [r0, #20]
	.loc	2 258 35                @ ../User/main.c:258:35
	ldr	r1, [r0, #20]
	ands	r1, r2
	str	r1, [r0, #20]
	.loc	2 259 13                @ ../User/main.c:259:13
	b	.LBB6_15
.Ltmp57:
.LBB6_15:
	.loc	2 260 9                 @ ../User/main.c:260:9
	b	.LBB6_17
.Ltmp58:
.LBB6_16:
	.loc	2 263 25                @ ../User/main.c:263:25
	ldr	r0, __arm_cp.6_10
	movs	r1, #0
	str	r1, [r0]
	.loc	2 264 31                @ ../User/main.c:264:31
	ldr	r0, __arm_cp.6_8
	ldr	r1, [r0, #16]
	adds	r1, r1, #1
	str	r1, [r0, #16]
	b	.LBB6_17
.Ltmp59:
.LBB6_17:
	.loc	2 266 5                 @ ../User/main.c:266:5
	b	.LBB6_32
.Ltmp60:
.LBB6_18:
	.loc	2 267 22                @ ../User/main.c:267:22
	ldr	r0, __arm_cp.6_8
	ldr	r1, [r0]
	.loc	2 267 29 is_stmt 0      @ ../User/main.c:267:29
	ldrh	r0, [r0, #10]
	ldr	r2, __arm_cp.6_9
	muls	r2, r0, r2
	ldr	r0, __arm_cp.6_5
	adds	r0, r2, r0
.Ltmp61:
	.loc	2 267 13                @ ../User/main.c:267:13
	cmp	r1, r0
	bge	.LBB6_25
	b	.LBB6_19
.LBB6_19:
.Ltmp62:
	.loc	2 269 23 is_stmt 1      @ ../User/main.c:269:23
	ldr	r0, __arm_cp.6_8
.Ltmp63:
	.loc	2 269 12 is_stmt 0      @ ../User/main.c:269:12
	ldrb	r0, [r0, #20]
	lsls	r0, r0, #31
	cmp	r0, #0
	bne	.LBB6_23
	b	.LBB6_20
.LBB6_20:
.Ltmp64:
	.loc	2 271 27 is_stmt 1      @ ../User/main.c:271:27
	ldr	r0, __arm_cp.6_10
	ldr	r1, [r0]
	adds	r2, r1, #1
	str	r2, [r0]
	.loc	2 271 42 is_stmt 0      @ ../User/main.c:271:42
	ldr	r0, __arm_cp.6_8
	ldrh	r0, [r0, #12]
	.loc	2 271 49                @ ../User/main.c:271:49
	subs	r0, r0, #1
.Ltmp65:
	.loc	2 271 16                @ ../User/main.c:271:16
	cmp	r1, r0
	blo	.LBB6_22
	b	.LBB6_21
.LBB6_21:
.Ltmp66:
	.loc	2 273 29 is_stmt 1      @ ../User/main.c:273:29
	ldr	r0, __arm_cp.6_10
	movs	r1, #0
	str	r1, [r0]
	.loc	2 274 35                @ ../User/main.c:274:35
	ldr	r0, __arm_cp.6_8
	ldr	r1, [r0, #20]
	movs	r2, #1
	orrs	r1, r2
	str	r1, [r0, #20]
	.loc	2 275 35                @ ../User/main.c:275:35
	ldr	r1, [r0, #20]
	ands	r1, r2
	str	r1, [r0, #20]
	.loc	2 276 13                @ ../User/main.c:276:13
	b	.LBB6_22
.Ltmp67:
.LBB6_22:
	.loc	2 277 9                 @ ../User/main.c:277:9
	b	.LBB6_24
.Ltmp68:
.LBB6_23:
	.loc	2 280 25                @ ../User/main.c:280:25
	ldr	r0, __arm_cp.6_10
	movs	r1, #0
	str	r1, [r0]
	.loc	2 281 31                @ ../User/main.c:281:31
	ldr	r0, __arm_cp.6_8
	ldr	r1, [r0, #16]
	adds	r1, r1, #1
	str	r1, [r0, #16]
	b	.LBB6_24
.Ltmp69:
.LBB6_24:
	.loc	2 283 5                 @ ../User/main.c:283:5
	b	.LBB6_31
.Ltmp70:
.LBB6_25:
	.loc	2 286 21                @ ../User/main.c:286:21
	ldr	r0, __arm_cp.6_8
	ldr	r0, [r0, #20]
.Ltmp71:
	.loc	2 286 12 is_stmt 0      @ ../User/main.c:286:12
	cmp	r0, #0
	beq	.LBB6_29
	b	.LBB6_26
.LBB6_26:
.Ltmp72:
	.loc	2 288 31 is_stmt 1      @ ../User/main.c:288:31
	ldr	r0, __arm_cp.6_8
	ldr	r1, [r0, #16]
	adds	r1, r1, #1
	str	r1, [r0, #16]
.Ltmp73:
	.loc	2 289 27                @ ../User/main.c:289:27
	ldr	r1, __arm_cp.6_10
	ldr	r2, [r1]
	adds	r3, r2, #1
	str	r3, [r1]
	.loc	2 289 42 is_stmt 0      @ ../User/main.c:289:42
	ldrh	r0, [r0, #12]
	.loc	2 289 49                @ ../User/main.c:289:49
	subs	r0, r0, #1
.Ltmp74:
	.loc	2 289 16                @ ../User/main.c:289:16
	cmp	r2, r0
	blo	.LBB6_28
	b	.LBB6_27
.LBB6_27:
.Ltmp75:
	.loc	2 291 29 is_stmt 1      @ ../User/main.c:291:29
	ldr	r0, __arm_cp.6_10
	movs	r1, #0
	str	r1, [r0]
	.loc	2 292 35                @ ../User/main.c:292:35
	ldr	r0, __arm_cp.6_8
	str	r1, [r0, #20]
	.loc	2 293 35                @ ../User/main.c:293:35
	str	r1, [r0, #16]
	.loc	2 294 13                @ ../User/main.c:294:13
	b	.LBB6_28
.Ltmp76:
.LBB6_28:
	.loc	2 295 9                 @ ../User/main.c:295:9
	b	.LBB6_30
.Ltmp77:
.LBB6_29:
	.loc	2 298 25                @ ../User/main.c:298:25
	ldr	r0, __arm_cp.6_10
	movs	r1, #0
	str	r1, [r0]
	.loc	2 299 31                @ ../User/main.c:299:31
	ldr	r0, __arm_cp.6_8
	str	r1, [r0, #20]
	.loc	2 300 31                @ ../User/main.c:300:31
	str	r1, [r0, #16]
	b	.LBB6_30
.Ltmp78:
.LBB6_30:
	.loc	2 0 31 is_stmt 0        @ ../User/main.c:0:31
	b	.LBB6_31
.LBB6_31:
	b	.LBB6_32
.LBB6_32:
	.loc	2 303 1 is_stmt 1       @ ../User/main.c:303:1
	pop	{r7, pc}
.Ltmp79:
	.p2align	2
@ %bb.33:
	.loc	2 0 1 is_stmt 0         @ ../User/main.c:0:1
__arm_cp.6_0:
	.long	PreTemp
.Lcpi_end13:
	.size	__arm_cp.6_0, .Lcpi_end13-__arm_cp.6_0
__arm_cp.6_1:
	.long	j
.Lcpi_end14:
	.size	__arm_cp.6_1, .Lcpi_end14-__arm_cp.6_1
__arm_cp.6_2:
	.long	red_temp
.Lcpi_end15:
	.size	__arm_cp.6_2, .Lcpi_end15-__arm_cp.6_2
__arm_cp.6_3:
	.long	4293967296              @ 0xfff0bdc0
.Lcpi_end16:
	.size	__arm_cp.6_3, .Lcpi_end16-__arm_cp.6_3
__arm_cp.6_4:
	.long	1000001                 @ 0xf4241
.Lcpi_end17:
	.size	__arm_cp.6_4, .Lcpi_end17-__arm_cp.6_4
__arm_cp.6_5:
	.long	4267657296              @ 0xfe5f4850
.Lcpi_end18:
	.size	__arm_cp.6_5, .Lcpi_end18-__arm_cp.6_5
__arm_cp.6_6:
	.long	4290967296              @ 0xffc2f700
.Lcpi_end19:
	.size	__arm_cp.6_6, .Lcpi_end19-__arm_cp.6_6
__arm_cp.6_7:
	.long	11000001                @ 0xa7d8c1
.Lcpi_end20:
	.size	__arm_cp.6_7, .Lcpi_end20-__arm_cp.6_7
__arm_cp.6_8:
	.long	UserPara
.Lcpi_end21:
	.size	__arm_cp.6_8, .Lcpi_end21-__arm_cp.6_8
__arm_cp.6_9:
	.long	10000                   @ 0x2710
.Lcpi_end22:
	.size	__arm_cp.6_9, .Lcpi_end22-__arm_cp.6_9
__arm_cp.6_10:
	.long	TemData_Handle.TemCountCnt
.Lcpi_end23:
	.size	__arm_cp.6_10, .Lcpi_end23-__arm_cp.6_10
__arm_cp.6_11:
	.long	TemData_Handle.ReadTemCnt
.Lcpi_end24:
	.size	__arm_cp.6_11, .Lcpi_end24-__arm_cp.6_11
.Lfunc_end6:
	.size	TemData_Handle, .Lfunc_end6-TemData_Handle
	.cfi_endproc
	.cantunwind
	.fnend
                                        @ -- End function
	.section	.text.fputc,"ax",%progbits
	.hidden	fputc                   @ -- Begin function fputc
	.globl	fputc
	.p2align	2
	.type	fputc,%function
	.code	16                      @ @fputc
	.thumb_func
fputc:
.Lfunc_begin7:
	.loc	2 397 0 is_stmt 1       @ ../User/main.c:397:0
	.fnstart
	.cfi_startproc
@ %bb.0:
	.save	{r7, lr}
	push	{r7, lr}
	.cfi_def_cfa_offset 8
	.cfi_offset lr, -4
	.cfi_offset r7, -8
	.pad	#8
	sub	sp, #8
	.cfi_def_cfa_offset 16
	str	r0, [sp, #4]
	str	r1, [sp]
	add	r0, sp, #4
.Ltmp80:
	.loc	2 398 43 prologue_end   @ ../User/main.c:398:43
	ldrb	r1, [r0]
	ldr	r0, __arm_cp.7_0
	.loc	2 398 5 is_stmt 0       @ ../User/main.c:398:5
	bl	usart_data_transmit
	.loc	2 399 5 is_stmt 1       @ ../User/main.c:399:5
	b	.LBB7_1
.LBB7_1:                                @ =>This Inner Loop Header: Depth=1
	.loc	2 0 5 is_stmt 0         @ ../User/main.c:0:5
	ldr	r0, __arm_cp.7_0
	ldr	r1, __arm_cp.7_1
	.loc	2 399 20                @ ../User/main.c:399:20
	bl	usart_flag_get
	.loc	2 399 5                 @ ../User/main.c:399:5
	cmp	r0, #0
	bne	.LBB7_3
	b	.LBB7_2
.LBB7_2:                                @   in Loop: Header=BB7_1 Depth=1
	b	.LBB7_1
.LBB7_3:
	.loc	2 400 12 is_stmt 1      @ ../User/main.c:400:12
	ldr	r0, [sp, #4]
	.loc	2 400 5 is_stmt 0       @ ../User/main.c:400:5
	add	sp, #8
	pop	{r7, pc}
.Ltmp81:
	.p2align	2
@ %bb.4:
	.loc	2 0 5                   @ ../User/main.c:0:5
__arm_cp.7_0:
	.long	1073759232              @ 0x40004400
.Lcpi_end25:
	.size	__arm_cp.7_0, .Lcpi_end25-__arm_cp.7_0
__arm_cp.7_1:
	.long	1799                    @ 0x707
.Lcpi_end26:
	.size	__arm_cp.7_1, .Lcpi_end26-__arm_cp.7_1
.Lfunc_end7:
	.size	fputc, .Lfunc_end7-fputc
	.cfi_endproc
	.cantunwind
	.fnend
                                        @ -- End function
	.hidden	receive                 @ @receive
	.type	receive,%object
	.section	.data.receive,"aw",%progbits
	.globl	receive
receive:
.Lreceive$local:
	.byte	1                       @ 0x1
	.size	receive, 1

	.hidden	receive1                @ @receive1
	.type	receive1,%object
	.section	.bss.receive1,"aw",%nobits
	.globl	receive1
	.p2align	2
receive1:
.Lreceive1$local:
	.long	0                       @ 0x0
	.size	receive1, 4

	.hidden	tt1                     @ @tt1
	.type	tt1,%object
	.section	.bss.tt1,"aw",%nobits
	.globl	tt1
	.p2align	1
tt1:
.Ltt1$local:
	.short	0                       @ 0x0
	.size	tt1, 2

	.hidden	time1                   @ @time1
	.type	time1,%object
	.section	.bss.time1,"aw",%nobits
	.globl	time1
	.p2align	2
time1:
.Ltime1$local:
	.long	0                       @ 0x0
	.size	time1, 4

	.hidden	StaChangeFlag           @ @StaChangeFlag
	.type	StaChangeFlag,%object
	.section	.bss.StaChangeFlag,"aw",%nobits
	.globl	StaChangeFlag
StaChangeFlag:
.LStaChangeFlag$local:
	.byte	0                       @ 0x0
	.size	StaChangeFlag, 1

	.hidden	transmitter_buffer      @ @transmitter_buffer
	.type	transmitter_buffer,%object
	.section	.data.transmitter_buffer,"aw",%progbits
	.globl	transmitter_buffer
transmitter_buffer:
.Ltransmitter_buffer$local:
	.asciz	"\n\rUSART interrupt test\n\r"
	.size	transmitter_buffer, 25

	.hidden	time_tick               @ @time_tick
	.type	time_tick,%object
	.section	.data.time_tick,"aw",%progbits
	.globl	time_tick
time_tick:
.Ltime_tick$local:
	.byte	10                      @ 0xa
	.size	time_tick, 1

	.hidden	i                       @ @i
	.type	i,%object
	.section	.bss.i,"aw",%nobits
	.globl	i
	.p2align	1
i:
.Li$local:
	.short	0                       @ 0x0
	.size	i, 2

	.type	.L__const.main.ch,%object @ @__const.main.ch
	.section	.rodata.str1.1,"aMS",%progbits,1
.L__const.main.ch:
	.asciz	"dggsgawegf\r\n"
	.size	.L__const.main.ch, 13

	.hidden	j                       @ @j
	.type	j,%object
	.section	.bss.j,"aw",%nobits
	.globl	j
j:
.Lj$local:
	.byte	0                       @ 0x0
	.size	j, 1

	.hidden	bou                     @ @bou
	.type	bou,%object
	.section	.bss.bou,"aw",%nobits
	.globl	bou
bou:
.Lbou$local:
	.byte	0                       @ 0x0
	.size	bou, 1

	.hidden	bou1                    @ @bou1
	.type	bou1,%object
	.section	.bss.bou1,"aw",%nobits
	.globl	bou1
bou1:
.Lbou1$local:
	.byte	0                       @ 0x0
	.size	bou1, 1

	.hidden	TemFilterBuf            @ @TemFilterBuf
	.type	TemFilterBuf,%object
	.section	.bss.TemFilterBuf,"aw",%nobits
	.globl	TemFilterBuf
	.p2align	2
TemFilterBuf:
.LTemFilterBuf$local:
	.zero	40
	.size	TemFilterBuf, 40

	.hidden	TemFilterBufBak         @ @TemFilterBufBak
	.type	TemFilterBufBak,%object
	.section	.bss.TemFilterBufBak,"aw",%nobits
	.globl	TemFilterBufBak
	.p2align	2
TemFilterBufBak:
.LTemFilterBufBak$local:
	.zero	40
	.size	TemFilterBufBak, 40

	.hidden	temp1                   @ @temp1
	.type	temp1,%object
	.section	.bss.temp1,"aw",%nobits
	.globl	temp1
	.p2align	1
temp1:
.Ltemp1$local:
	.short	0                       @ 0x0
	.size	temp1, 2

	.hidden	PreTemp                 @ @PreTemp
	.type	PreTemp,%object
	.section	.bss.PreTemp,"aw",%nobits
	.globl	PreTemp
	.p2align	2
PreTemp:
.LPreTemp$local:
	.long	0                       @ 0x0
	.size	PreTemp, 4

	.hidden	red_temp                @ @red_temp
	.type	red_temp,%object
	.section	.bss.red_temp,"aw",%nobits
	.globl	red_temp
	.p2align	2
red_temp:
.Lred_temp$local:
	.long	0                       @ 0x0
	.size	red_temp, 4

	.type	TemData_Handle.TemCountCnt,%object @ @TemData_Handle.TemCountCnt
	.section	.bss.TemData_Handle.TemCountCnt,"aw",%nobits
	.p2align	2
TemData_Handle.TemCountCnt:
	.long	0                       @ 0x0
	.size	TemData_Handle.TemCountCnt, 4

	.type	TemData_Handle.ReadTemCnt,%object @ @TemData_Handle.ReadTemCnt
	.section	.bss.TemData_Handle.ReadTemCnt,"aw",%nobits
	.p2align	2
TemData_Handle.ReadTemCnt:
	.long	0                       @ 0x0
	.size	TemData_Handle.ReadTemCnt, 4

	.type	TemData_Handle.FillBufStatus,%object @ @TemData_Handle.FillBufStatus
	.section	.bss.TemData_Handle.FillBufStatus,"aw",%nobits
TemData_Handle.FillBufStatus:
	.byte	0                       @ 0x0
	.size	TemData_Handle.FillBufStatus, 1

	.type	TemData_Handle.temcnt,%object @ @TemData_Handle.temcnt
	.section	.bss.TemData_Handle.temcnt,"aw",%nobits
TemData_Handle.temcnt:
	.byte	0                       @ 0x0
	.size	TemData_Handle.temcnt, 1

	.file	6 "D:\\Keil_v5\\ARM\\ARMCLANG\\Bin\\..\\include" "stdio.h"
	.section	".note.GNU-stack","",%progbits
	.eabi_attribute	30, 6	@ Tag_ABI_optimization_goals
	.ARM_attribute	16, 1	@ Tag_AV_eba