	.text
	.syntax unified
	.eabi_attribute	67, "2.09"	@ Tag_conformance
	.cpu	cortex-m23
	.eabi_attribute	6, 16	@ Tag_CPU_arch
	.eabi_attribute	7, 77	@ Tag_CPU_arch_profile
	.eabi_attribute	8, 0	@ Tag_ARM_ISA_use
	.eabi_attribute	9, 3	@ Tag_THUMB_ISA_use
	.eabi_attribute	34, 0	@ Tag_CPU_unaligned_access
	.eabi_attribute	17, 1	@ Tag_ABI_PCS_GOT_use
	.eabi_attribute	20, 2	@ Tag_ABI_FP_denormal
	.eabi_attribute	21, 0	@ Tag_ABI_FP_exceptions
	.eabi_attribute	23, 1	@ Tag_ABI_FP_number_model
	.eabi_attribute	24, 1	@ Tag_ABI_align_needed
	.eabi_attribute	25, 1	@ Tag_ABI_align_preserved
	.eabi_attribute	38, 1	@ Tag_ABI_FP_16bit_format
	.eabi_attribute	18, 2	@ Tag_ABI_PCS_wchar_t
	.eabi_attribute	26, 1	@ Tag_ABI_enum_size
	.eabi_attribute	14, 0	@ Tag_ABI_PCS_R9_use
	.file	"modbus_ascii.c"
	.file	1 "E:\\Soway\\Soway_product-soft\\105 - T119-GD\\E230 -  ds18b20-F8\\MDK-ARM" "../APP/Inc/type.h"
	.file	2 "E:\\Soway\\Soway_product-soft\\105 - T119-GD\\E230 -  ds18b20-F8\\MDK-ARM" "../APP/Src/modbus_ascii.c"
	.file	3 "D:\\Keil_v5\\ARM\\ARMCLANG\\Bin\\..\\include" "stdint.h"
	.file	4 "E:\\Soway\\Soway_product-soft\\105 - T119-GD\\E230 -  ds18b20-F8\\MDK-ARM" "../GD32E230_Firmware_Library/CMSIS/GD/GD32E230/Include\\gd32e230.h"
	.section	.text.MODBUS_ASCII_HexToAscii,"ax",%progbits
	.hidden	MODBUS_ASCII_HexToAscii @ -- Begin function MODBUS_ASCII_HexToAscii
	.globl	MODBUS_ASCII_HexToAscii
	.p2align	1
	.type	MODBUS_ASCII_HexToAscii,%function
	.code	16                      @ @MODBUS_ASCII_HexToAscii
	.thumb_func
MODBUS_ASCII_HexToAscii:
.Lfunc_begin0:
	.loc	2 42 0                  @ ../APP/Src/modbus_ascii.c:42:0
	.fnstart
	.cfi_sections .debug_frame
	.cfi_startproc
@ %bb.0:
	.pad	#12
	sub	sp, #12
	.cfi_def_cfa_offset 12
	mov	r2, r0
	add	r3, sp, #8
	strb	r0, [r3]
	str	r1, [sp, #4]
.Ltmp0:
	.loc	2 45 14 prologue_end    @ ../APP/Src/modbus_ascii.c:45:14
	ldrb	r0, [r3]
	.loc	2 45 24 is_stmt 0       @ ../APP/Src/modbus_ascii.c:45:24
	lsrs	r0, r0, #4
	mov	r1, sp
	.loc	2 45 12                 @ ../APP/Src/modbus_ascii.c:45:12
	strb	r0, [r1]
.Ltmp1:
	.loc	2 46 14 is_stmt 1       @ ../APP/Src/modbus_ascii.c:46:14
	ldrb	r0, [r1]
.Ltmp2:
	.loc	2 46 9 is_stmt 0        @ ../APP/Src/modbus_ascii.c:46:9
	cmp	r0, #9
	bgt	.LBB0_2
	b	.LBB0_1
.LBB0_1:
.Ltmp3:
	.loc	2 48 30 is_stmt 1       @ ../APP/Src/modbus_ascii.c:48:30
	ldr	r0, [sp]
	.loc	2 48 37 is_stmt 0       @ ../APP/Src/modbus_ascii.c:48:37
	adds	r0, #48
	.loc	2 48 11                 @ ../APP/Src/modbus_ascii.c:48:11
	ldr	r1, [sp, #4]
	.loc	2 48 28                 @ ../APP/Src/modbus_ascii.c:48:28
	strb	r0, [r1]
	.loc	2 49 5 is_stmt 1        @ ../APP/Src/modbus_ascii.c:49:5
	b	.LBB0_3
.Ltmp4:
.LBB0_2:
	.loc	2 52 31                 @ ../APP/Src/modbus_ascii.c:52:31
	ldr	r0, [sp]
	.loc	2 52 44 is_stmt 0       @ ../APP/Src/modbus_ascii.c:52:44
	adds	r0, #55
	.loc	2 52 11                 @ ../APP/Src/modbus_ascii.c:52:11
	ldr	r1, [sp, #4]
	.loc	2 52 28                 @ ../APP/Src/modbus_ascii.c:52:28
	strb	r0, [r1]
	b	.LBB0_3
.Ltmp5:
.LBB0_3:
	.loc	2 0 28                  @ ../APP/Src/modbus_ascii.c:0:28
	add	r0, sp, #8
	.loc	2 55 14 is_stmt 1       @ ../APP/Src/modbus_ascii.c:55:14
	ldrb	r0, [r0]
	movs	r1, #15
	.loc	2 55 24 is_stmt 0       @ ../APP/Src/modbus_ascii.c:55:24
	ands	r0, r1
	mov	r1, sp
	.loc	2 55 12                 @ ../APP/Src/modbus_ascii.c:55:12
	strb	r0, [r1]
.Ltmp6:
	.loc	2 56 14 is_stmt 1       @ ../APP/Src/modbus_ascii.c:56:14
	ldrb	r0, [r1]
.Ltmp7:
	.loc	2 56 9 is_stmt 0        @ ../APP/Src/modbus_ascii.c:56:9
	cmp	r0, #9
	bgt	.LBB0_5
	b	.LBB0_4
.LBB0_4:
.Ltmp8:
	.loc	2 58 30 is_stmt 1       @ ../APP/Src/modbus_ascii.c:58:30
	ldr	r0, [sp]
	.loc	2 58 37 is_stmt 0       @ ../APP/Src/modbus_ascii.c:58:37
	adds	r0, #48
	.loc	2 58 11                 @ ../APP/Src/modbus_ascii.c:58:11
	ldr	r1, [sp, #4]
	.loc	2 58 28                 @ ../APP/Src/modbus_ascii.c:58:28
	strb	r0, [r1, #1]
	.loc	2 59 5 is_stmt 1        @ ../APP/Src/modbus_ascii.c:59:5
	b	.LBB0_6
.Ltmp9:
.LBB0_5:
	.loc	2 62 31                 @ ../APP/Src/modbus_ascii.c:62:31
	ldr	r0, [sp]
	.loc	2 62 44 is_stmt 0       @ ../APP/Src/modbus_ascii.c:62:44
	adds	r0, #55
	.loc	2 62 11                 @ ../APP/Src/modbus_ascii.c:62:11
	ldr	r1, [sp, #4]
	.loc	2 62 28                 @ ../APP/Src/modbus_ascii.c:62:28
	strb	r0, [r1, #1]
	b	.LBB0_6
.Ltmp10:
.LBB0_6:
	.loc	2 64 1 is_stmt 1        @ ../APP/Src/modbus_ascii.c:64:1
	add	sp, #12
	bx	lr
.Ltmp11:
.Lfunc_end0:
	.size	MODBUS_ASCII_HexToAscii, .Lfunc_end0-MODBUS_ASCII_HexToAscii
	.cfi_endproc
	.cantunwind
	.fnend
                                        @ -- End function
	.section	.text.MODBUS_ASCII_AsciiToHex,"ax",%progbits
	.hidden	MODBUS_ASCII_AsciiToHex @ -- Begin function MODBUS_ASCII_AsciiToHex
	.globl	MODBUS_ASCII_AsciiToHex
	.p2align	1
	.type	MODBUS_ASCII_AsciiToHex,%function
	.code	16                      @ @MODBUS_ASCII_AsciiToHex
	.thumb_func
MODBUS_ASCII_AsciiToHex:
.Lfunc_begin1:
	.loc	2 79 0                  @ ../APP/Src/modbus_ascii.c:79:0
	.fnstart
	.cfi_startproc
@ %bb.0:
	.pad	#8
	sub	sp, #8
	.cfi_def_cfa_offset 8
	str	r0, [sp, #4]
	mov	r0, sp
	movs	r1, #0
.Ltmp12:
	.loc	2 82 15 prologue_end    @ ../APP/Src/modbus_ascii.c:82:15
	strb	r1, [r0]
.Ltmp13:
	.loc	2 83 17                 @ ../APP/Src/modbus_ascii.c:83:17
	ldr	r0, [sp, #4]
	.loc	2 83 15 is_stmt 0       @ ../APP/Src/modbus_ascii.c:83:15
	ldrb	r0, [r0]
.Ltmp14:
	.loc	2 83 9                  @ ../APP/Src/modbus_ascii.c:83:9
	cmp	r0, #64
	bgt	.LBB1_2
	b	.LBB1_1
.LBB1_1:
.Ltmp15:
	.loc	2 85 24 is_stmt 1       @ ../APP/Src/modbus_ascii.c:85:24
	ldr	r0, [sp, #4]
	.loc	2 85 22 is_stmt 0       @ ../APP/Src/modbus_ascii.c:85:22
	ldrb	r0, [r0]
	.loc	2 85 19                 @ ../APP/Src/modbus_ascii.c:85:19
	ldr	r1, [sp]
	adds	r0, r0, r1
	subs	r0, #48
	mov	r1, sp
	strb	r0, [r1]
	.loc	2 86 5 is_stmt 1        @ ../APP/Src/modbus_ascii.c:86:5
	b	.LBB1_6
.Ltmp16:
.LBB1_2:
	.loc	2 87 22                 @ ../APP/Src/modbus_ascii.c:87:22
	ldr	r0, [sp, #4]
	.loc	2 87 20 is_stmt 0       @ ../APP/Src/modbus_ascii.c:87:20
	ldrb	r0, [r0]
.Ltmp17:
	.loc	2 87 14                 @ ../APP/Src/modbus_ascii.c:87:14
	cmp	r0, #96
	bgt	.LBB1_4
	b	.LBB1_3
.LBB1_3:
.Ltmp18:
	.loc	2 89 24 is_stmt 1       @ ../APP/Src/modbus_ascii.c:89:24
	ldr	r0, [sp, #4]
	.loc	2 89 22 is_stmt 0       @ ../APP/Src/modbus_ascii.c:89:22
	ldrb	r0, [r0]
	.loc	2 89 19                 @ ../APP/Src/modbus_ascii.c:89:19
	ldr	r1, [sp]
	.loc	2 89 47                 @ ../APP/Src/modbus_ascii.c:89:47
	adds	r0, r0, r1
	.loc	2 89 19                 @ ../APP/Src/modbus_ascii.c:89:19
	subs	r0, #55
	mov	r1, sp
	strb	r0, [r1]
	.loc	2 90 5 is_stmt 1        @ ../APP/Src/modbus_ascii.c:90:5
	b	.LBB1_5
.Ltmp19:
.LBB1_4:
	.loc	2 93 24                 @ ../APP/Src/modbus_ascii.c:93:24
	ldr	r0, [sp, #4]
	.loc	2 93 22 is_stmt 0       @ ../APP/Src/modbus_ascii.c:93:22
	ldrb	r0, [r0]
	.loc	2 93 19                 @ ../APP/Src/modbus_ascii.c:93:19
	ldr	r1, [sp]
	.loc	2 93 47                 @ ../APP/Src/modbus_ascii.c:93:47
	adds	r0, r0, r1
	.loc	2 93 19                 @ ../APP/Src/modbus_ascii.c:93:19
	subs	r0, #87
	mov	r1, sp
	strb	r0, [r1]
	b	.LBB1_5
.Ltmp20:
.LBB1_5:
	.loc	2 0 19                  @ ../APP/Src/modbus_ascii.c:0:19
	b	.LBB1_6
.LBB1_6:
	.loc	2 96 15 is_stmt 1       @ ../APP/Src/modbus_ascii.c:96:15
	ldr	r0, [sp]
	lsls	r0, r0, #4
	mov	r1, sp
	strb	r0, [r1]
.Ltmp21:
	.loc	2 98 17                 @ ../APP/Src/modbus_ascii.c:98:17
	ldr	r0, [sp, #4]
	.loc	2 98 15 is_stmt 0       @ ../APP/Src/modbus_ascii.c:98:15
	ldrb	r0, [r0, #1]
.Ltmp22:
	.loc	2 98 9                  @ ../APP/Src/modbus_ascii.c:98:9
	cmp	r0, #64
	bgt	.LBB1_8
	b	.LBB1_7
.LBB1_7:
.Ltmp23:
	.loc	2 100 24 is_stmt 1      @ ../APP/Src/modbus_ascii.c:100:24
	ldr	r0, [sp, #4]
	.loc	2 100 22 is_stmt 0      @ ../APP/Src/modbus_ascii.c:100:22
	ldrb	r0, [r0, #1]
	.loc	2 100 19                @ ../APP/Src/modbus_ascii.c:100:19
	ldr	r1, [sp]
	adds	r0, r0, r1
	subs	r0, #48
	mov	r1, sp
	strb	r0, [r1]
	.loc	2 101 5 is_stmt 1       @ ../APP/Src/modbus_ascii.c:101:5
	b	.LBB1_12
.Ltmp24:
.LBB1_8:
	.loc	2 102 22                @ ../APP/Src/modbus_ascii.c:102:22
	ldr	r0, [sp, #4]
	.loc	2 102 20 is_stmt 0      @ ../APP/Src/modbus_ascii.c:102:20
	ldrb	r0, [r0, #1]
.Ltmp25:
	.loc	2 102 14                @ ../APP/Src/modbus_ascii.c:102:14
	cmp	r0, #96
	bgt	.LBB1_10
	b	.LBB1_9
.LBB1_9:
.Ltmp26:
	.loc	2 104 24 is_stmt 1      @ ../APP/Src/modbus_ascii.c:104:24
	ldr	r0, [sp, #4]
	.loc	2 104 22 is_stmt 0      @ ../APP/Src/modbus_ascii.c:104:22
	ldrb	r0, [r0, #1]
	.loc	2 104 19                @ ../APP/Src/modbus_ascii.c:104:19
	ldr	r1, [sp]
	.loc	2 104 47                @ ../APP/Src/modbus_ascii.c:104:47
	adds	r0, r0, r1
	.loc	2 104 19                @ ../APP/Src/modbus_ascii.c:104:19
	subs	r0, #55
	mov	r1, sp
	strb	r0, [r1]
	.loc	2 105 5 is_stmt 1       @ ../APP/Src/modbus_ascii.c:105:5
	b	.LBB1_11
.Ltmp27:
.LBB1_10:
	.loc	2 108 24                @ ../APP/Src/modbus_ascii.c:108:24
	ldr	r0, [sp, #4]
	.loc	2 108 22 is_stmt 0      @ ../APP/Src/modbus_ascii.c:108:22
	ldrb	r0, [r0, #1]
	.loc	2 108 19                @ ../APP/Src/modbus_ascii.c:108:19
	ldr	r1, [sp]
	.loc	2 108 47                @ ../APP/Src/modbus_ascii.c:108:47
	adds	r0, r0, r1
	.loc	2 108 19                @ ../APP/Src/modbus_ascii.c:108:19
	subs	r0, #87
	mov	r1, sp
	strb	r0, [r1]
	b	.LBB1_11
.Ltmp28:
.LBB1_11:
	.loc	2 0 19                  @ ../APP/Src/modbus_ascii.c:0:19
	b	.LBB1_12
.LBB1_12:
	mov	r0, sp
	.loc	2 111 13 is_stmt 1      @ ../APP/Src/modbus_ascii.c:111:13
	ldrb	r0, [r0]
	.loc	2 111 5 is_stmt 0       @ ../APP/Src/modbus_ascii.c:111:5
	add	sp, #8
	bx	lr
.Ltmp29:
.Lfunc_end1:
	.size	MODBUS_ASCII_AsciiToHex, .Lfunc_end1-MODBUS_ASCII_AsciiToHex
	.cfi_endproc
	.cantunwind
	.fnend
                                        @ -- End function
	.section	.text.MODBUS_ASCII_GetLrc,"ax",%progbits
	.hidden	MODBUS_ASCII_GetLrc     @ -- Begin function MODBUS_ASCII_GetLrc
	.globl	MODBUS_ASCII_GetLrc
	.p2align	1
	.type	MODBUS_ASCII_GetLrc,%function
	.code	16                      @ @MODBUS_ASCII_GetLrc
	.thumb_func
MODBUS_ASCII_GetLrc:
.Lfunc_begin2:
	.loc	2 126 0 is_stmt 1       @ ../APP/Src/modbus_ascii.c:126:0
	.fnstart
	.cfi_startproc
@ %bb.0:
	.save	{r7, lr}
	push	{r7, lr}
	.cfi_def_cfa_offset 8
	.cfi_offset lr, -4
	.cfi_offset r7, -8
	.pad	#24
	sub	sp, #24
	.cfi_def_cfa_offset 32
	mov	r2, r1
	str	r0, [sp, #16]
	add	r0, sp, #12
	strh	r1, [r0]
.Ltmp30:
	.loc	2 130 15 prologue_end   @ ../APP/Src/modbus_ascii.c:130:15
	ldrh	r0, [r0]
.Ltmp31:
	.loc	2 130 9 is_stmt 0       @ ../APP/Src/modbus_ascii.c:130:9
	lsls	r0, r0, #31
	cmp	r0, #0
	beq	.LBB2_2
	b	.LBB2_1
.LBB2_1:
	.loc	2 0 9                   @ ../APP/Src/modbus_ascii.c:0:9
	add	r0, sp, #20
	movs	r1, #0
.Ltmp32:
	.loc	2 132 9 is_stmt 1       @ ../APP/Src/modbus_ascii.c:132:9
	strb	r1, [r0]
	b	.LBB2_7
.Ltmp33:
.LBB2_2:
	.loc	2 0 9 is_stmt 0         @ ../APP/Src/modbus_ascii.c:0:9
	add	r0, sp, #12
	.loc	2 135 11 is_stmt 1      @ ../APP/Src/modbus_ascii.c:135:11
	ldrh	r1, [r0]
	lsrs	r1, r1, #1
	strh	r1, [r0]
	add	r0, sp, #8
	movs	r1, #0
	.loc	2 136 14                @ ../APP/Src/modbus_ascii.c:136:14
	strb	r1, [r0]
	add	r0, sp, #4
.Ltmp34:
	.loc	2 137 12                @ ../APP/Src/modbus_ascii.c:137:12
	strh	r1, [r0]
	.loc	2 137 10 is_stmt 0      @ ../APP/Src/modbus_ascii.c:137:10
	b	.LBB2_3
.LBB2_3:                                @ =>This Inner Loop Header: Depth=1
	.loc	2 0 10                  @ ../APP/Src/modbus_ascii.c:0:10
	add	r0, sp, #4
.Ltmp35:
	.loc	2 137 17                @ ../APP/Src/modbus_ascii.c:137:17
	ldrh	r0, [r0]
	add	r1, sp, #12
	.loc	2 137 21                @ ../APP/Src/modbus_ascii.c:137:21
	ldrh	r1, [r1]
.Ltmp36:
	.loc	2 137 5                 @ ../APP/Src/modbus_ascii.c:137:5
	cmp	r0, r1
	bge	.LBB2_6
	b	.LBB2_4
.LBB2_4:                                @   in Loop: Header=BB2_3 Depth=1
.Ltmp37:
	.loc	2 139 45 is_stmt 1      @ ../APP/Src/modbus_ascii.c:139:45
	ldr	r0, [sp, #16]
	add	r1, sp, #4
	.loc	2 139 59 is_stmt 0      @ ../APP/Src/modbus_ascii.c:139:59
	ldrh	r1, [r1]
	.loc	2 139 61                @ ../APP/Src/modbus_ascii.c:139:61
	lsls	r1, r1, #1
	.loc	2 139 57                @ ../APP/Src/modbus_ascii.c:139:57
	adds	r0, r0, r1
	.loc	2 139 21                @ ../APP/Src/modbus_ascii.c:139:21
	bl	MODBUS_ASCII_AsciiToHex
	.loc	2 139 18                @ ../APP/Src/modbus_ascii.c:139:18
	ldr	r1, [sp, #8]
	adds	r0, r1, r0
	add	r1, sp, #8
	strb	r0, [r1]
	.loc	2 140 5 is_stmt 1       @ ../APP/Src/modbus_ascii.c:140:5
	b	.LBB2_5
.Ltmp38:
.LBB2_5:                                @   in Loop: Header=BB2_3 Depth=1
	.loc	2 137 29                @ ../APP/Src/modbus_ascii.c:137:29
	ldr	r0, [sp, #4]
	adds	r0, r0, #1
	add	r1, sp, #4
	strh	r0, [r1]
	.loc	2 137 5 is_stmt 0       @ ../APP/Src/modbus_ascii.c:137:5
	b	.LBB2_3
.Ltmp39:
.LBB2_6:
	.loc	2 142 17 is_stmt 1      @ ../APP/Src/modbus_ascii.c:142:17
	ldr	r0, [sp, #8]
	.loc	2 142 16 is_stmt 0      @ ../APP/Src/modbus_ascii.c:142:16
	mvns	r0, r0
	add	r1, sp, #8
	.loc	2 142 14                @ ../APP/Src/modbus_ascii.c:142:14
	strb	r0, [r1]
	.loc	2 143 14 is_stmt 1      @ ../APP/Src/modbus_ascii.c:143:14
	ldr	r0, [sp, #8]
	adds	r0, r0, #1
	strb	r0, [r1]
	.loc	2 145 13                @ ../APP/Src/modbus_ascii.c:145:13
	ldr	r0, [sp, #8]
	add	r1, sp, #20
	.loc	2 145 5 is_stmt 0       @ ../APP/Src/modbus_ascii.c:145:5
	strb	r0, [r1]
	b	.LBB2_7
.LBB2_7:
	.loc	2 0 5                   @ ../APP/Src/modbus_ascii.c:0:5
	add	r0, sp, #20
	.loc	2 146 1 is_stmt 1       @ ../APP/Src/modbus_ascii.c:146:1
	ldrb	r0, [r0]
	add	sp, #24
	pop	{r7, pc}
.Ltmp40:
.Lfunc_end2:
	.size	MODBUS_ASCII_GetLrc, .Lfunc_end2-MODBUS_ASCII_GetLrc
	.cfi_endproc
	.cantunwind
	.fnend
                                        @ -- End function
	.section	.text.MODBUS_ASCII_AsciiPacketToRtuPacket,"ax",%progbits
	.hidden	MODBUS_ASCII_AsciiPacketToRtuPacket @ -- Begin function MODBUS_ASCII_AsciiPacketToRtuPacket
	.globl	MODBUS_ASCII_AsciiPacketToRtuPacket
	.p2align	1
	.type	MODBUS_ASCII_AsciiPacketToRtuPacket,%function
	.code	16                      @ @MODBUS_ASCII_AsciiPacketToRtuPacket
	.thumb_func
MODBUS_ASCII_AsciiPacketToRtuPacket:
.Lfunc_begin3:
	.loc	2 161 0                 @ ../APP/Src/modbus_ascii.c:161:0
	.fnstart
	.cfi_startproc
@ %bb.0:
	.save	{r7, lr}
	push	{r7, lr}
	.cfi_def_cfa_offset 8
	.cfi_offset lr, -4
	.cfi_offset r7, -8
	.pad	#32
	sub	sp, #32
	.cfi_def_cfa_offset 40
	mov	r3, r1
	str	r0, [sp, #24]
	add	r0, sp, #20
	strh	r1, [r0]
	str	r2, [sp, #16]
.Ltmp41:
	.loc	2 165 15 prologue_end   @ ../APP/Src/modbus_ascii.c:165:15
	ldrh	r0, [r0]
.Ltmp42:
	.loc	2 165 9 is_stmt 0       @ ../APP/Src/modbus_ascii.c:165:9
	lsls	r0, r0, #31
	cmp	r0, #0
	beq	.LBB3_2
	b	.LBB3_1
.LBB3_1:
	.loc	2 0 9                   @ ../APP/Src/modbus_ascii.c:0:9
	add	r0, sp, #28
	movs	r1, #0
.Ltmp43:
	.loc	2 167 9 is_stmt 1       @ ../APP/Src/modbus_ascii.c:167:9
	strh	r1, [r0]
	b	.LBB3_7
.Ltmp44:
.LBB3_2:
	.loc	2 0 9 is_stmt 0         @ ../APP/Src/modbus_ascii.c:0:9
	add	r0, sp, #20
	.loc	2 170 16 is_stmt 1      @ ../APP/Src/modbus_ascii.c:170:16
	ldrh	r0, [r0]
	.loc	2 170 27 is_stmt 0      @ ../APP/Src/modbus_ascii.c:170:27
	lsrs	r0, r0, #1
	add	r1, sp, #8
	.loc	2 170 14                @ ../APP/Src/modbus_ascii.c:170:14
	strh	r0, [r1]
	add	r0, sp, #12
	movs	r1, #0
.Ltmp45:
	.loc	2 171 12 is_stmt 1      @ ../APP/Src/modbus_ascii.c:171:12
	strh	r1, [r0]
	.loc	2 171 10 is_stmt 0      @ ../APP/Src/modbus_ascii.c:171:10
	b	.LBB3_3
.LBB3_3:                                @ =>This Inner Loop Header: Depth=1
	.loc	2 0 10                  @ ../APP/Src/modbus_ascii.c:0:10
	add	r0, sp, #12
.Ltmp46:
	.loc	2 171 17                @ ../APP/Src/modbus_ascii.c:171:17
	ldrh	r0, [r0]
	add	r1, sp, #8
	.loc	2 171 21                @ ../APP/Src/modbus_ascii.c:171:21
	ldrh	r1, [r1]
.Ltmp47:
	.loc	2 171 5                 @ ../APP/Src/modbus_ascii.c:171:5
	cmp	r0, r1
	bge	.LBB3_6
	b	.LBB3_4
.LBB3_4:                                @   in Loop: Header=BB3_3 Depth=1
.Ltmp48:
	.loc	2 173 52 is_stmt 1      @ ../APP/Src/modbus_ascii.c:173:52
	ldr	r0, [sp, #24]
	add	r1, sp, #12
	.loc	2 173 66 is_stmt 0      @ ../APP/Src/modbus_ascii.c:173:66
	ldrh	r2, [r1]
	.loc	2 173 68                @ ../APP/Src/modbus_ascii.c:173:68
	lsls	r2, r2, #1
	.loc	2 173 64                @ ../APP/Src/modbus_ascii.c:173:64
	adds	r0, r0, r2
	.loc	2 173 28                @ ../APP/Src/modbus_ascii.c:173:28
	str	r1, [sp, #4]            @ 4-byte Spill
	bl	MODBUS_ASCII_AsciiToHex
	.loc	2 173 11                @ ../APP/Src/modbus_ascii.c:173:11
	ldr	r1, [sp, #16]
	.loc	2 173 23                @ ../APP/Src/modbus_ascii.c:173:23
	ldr	r2, [sp, #4]            @ 4-byte Reload
	ldrh	r3, [r2]
	.loc	2 173 26                @ ../APP/Src/modbus_ascii.c:173:26
	strb	r0, [r1, r3]
	.loc	2 174 5 is_stmt 1       @ ../APP/Src/modbus_ascii.c:174:5
	b	.LBB3_5
.Ltmp49:
.LBB3_5:                                @   in Loop: Header=BB3_3 Depth=1
	.loc	2 171 32                @ ../APP/Src/modbus_ascii.c:171:32
	ldr	r0, [sp, #12]
	adds	r0, r0, #1
	add	r1, sp, #12
	strh	r0, [r1]
	.loc	2 171 5 is_stmt 0       @ ../APP/Src/modbus_ascii.c:171:5
	b	.LBB3_3
.Ltmp50:
.LBB3_6:
	.loc	2 176 13 is_stmt 1      @ ../APP/Src/modbus_ascii.c:176:13
	ldr	r0, [sp, #8]
	add	r1, sp, #28
	.loc	2 176 5 is_stmt 0       @ ../APP/Src/modbus_ascii.c:176:5
	strh	r0, [r1]
	b	.LBB3_7
.LBB3_7:
	.loc	2 0 5                   @ ../APP/Src/modbus_ascii.c:0:5
	add	r0, sp, #28
	.loc	2 177 1 is_stmt 1       @ ../APP/Src/modbus_ascii.c:177:1
	ldrh	r0, [r0]
	add	sp, #32
	pop	{r7, pc}
.Ltmp51:
.Lfunc_end3:
	.size	MODBUS_ASCII_AsciiPacketToRtuPacket, .Lfunc_end3-MODBUS_ASCII_AsciiPacketToRtuPacket
	.cfi_endproc
	.cantunwind
	.fnend
                                        @ -- End function
	.section	.text.MODBUS_ASCII_RtuPacketToAsciiPacket,"ax",%progbits
	.hidden	MODBUS_ASCII_RtuPacketToAsciiPacket @ -- Begin function MODBUS_ASCII_RtuPacketToAsciiPacket
	.globl	MODBUS_ASCII_RtuPacketToAsciiPacket
	.p2align	1
	.type	MODBUS_ASCII_RtuPacketToAsciiPacket,%function
	.code	16                      @ @MODBUS_ASCII_RtuPacketToAsciiPacket
	.thumb_func
MODBUS_ASCII_RtuPacketToAsciiPacket:
.Lfunc_begin4:
	.loc	2 192 0                 @ ../APP/Src/modbus_ascii.c:192:0
	.fnstart
	.cfi_startproc
@ %bb.0:
	.save	{r7, lr}
	push	{r7, lr}
	.cfi_def_cfa_offset 8
	.cfi_offset lr, -4
	.cfi_offset r7, -8
	.pad	#24
	sub	sp, #24
	.cfi_def_cfa_offset 32
	mov	r3, r1
	str	r0, [sp, #20]
	add	r0, sp, #16
	strh	r1, [r0]
	str	r2, [sp, #12]
.Ltmp52:
	.loc	2 196 18 prologue_end   @ ../APP/Src/modbus_ascii.c:196:18
	ldr	r0, [sp, #16]
	.loc	2 196 27 is_stmt 0      @ ../APP/Src/modbus_ascii.c:196:27
	lsls	r0, r0, #1
	add	r1, sp, #4
	.loc	2 196 16                @ ../APP/Src/modbus_ascii.c:196:16
	strh	r0, [r1]
	add	r0, sp, #8
	movs	r1, #0
.Ltmp53:
	.loc	2 197 12 is_stmt 1      @ ../APP/Src/modbus_ascii.c:197:12
	strh	r1, [r0]
	.loc	2 197 10 is_stmt 0      @ ../APP/Src/modbus_ascii.c:197:10
	b	.LBB4_1
.LBB4_1:                                @ =>This Inner Loop Header: Depth=1
	.loc	2 0 10                  @ ../APP/Src/modbus_ascii.c:0:10
	add	r0, sp, #8
.Ltmp54:
	.loc	2 197 17                @ ../APP/Src/modbus_ascii.c:197:17
	ldrh	r0, [r0]
	add	r1, sp, #16
	.loc	2 197 21                @ ../APP/Src/modbus_ascii.c:197:21
	ldrh	r1, [r1]
.Ltmp55:
	.loc	2 197 5                 @ ../APP/Src/modbus_ascii.c:197:5
	cmp	r0, r1
	bge	.LBB4_4
	b	.LBB4_2
.LBB4_2:                                @   in Loop: Header=BB4_1 Depth=1
.Ltmp56:
	.loc	2 199 36 is_stmt 1      @ ../APP/Src/modbus_ascii.c:199:36
	ldr	r0, [sp, #20]
	add	r1, sp, #8
	.loc	2 199 48 is_stmt 0      @ ../APP/Src/modbus_ascii.c:199:48
	ldrh	r1, [r1]
	.loc	2 199 34                @ ../APP/Src/modbus_ascii.c:199:34
	ldrb	r0, [r0, r1]
	.loc	2 199 52                @ ../APP/Src/modbus_ascii.c:199:52
	ldr	r2, [sp, #12]
	.loc	2 199 68                @ ../APP/Src/modbus_ascii.c:199:68
	lsls	r1, r1, #1
	.loc	2 199 64                @ ../APP/Src/modbus_ascii.c:199:64
	adds	r1, r2, r1
	.loc	2 199 9                 @ ../APP/Src/modbus_ascii.c:199:9
	bl	MODBUS_ASCII_HexToAscii
	.loc	2 200 5 is_stmt 1       @ ../APP/Src/modbus_ascii.c:200:5
	b	.LBB4_3
.Ltmp57:
.LBB4_3:                                @   in Loop: Header=BB4_1 Depth=1
	.loc	2 197 32                @ ../APP/Src/modbus_ascii.c:197:32
	ldr	r0, [sp, #8]
	adds	r0, r0, #1
	add	r1, sp, #8
	strh	r0, [r1]
	.loc	2 197 5 is_stmt 0       @ ../APP/Src/modbus_ascii.c:197:5
	b	.LBB4_1
.Ltmp58:
.LBB4_4:
	.loc	2 0 5                   @ ../APP/Src/modbus_ascii.c:0:5
	add	r0, sp, #4
	.loc	2 202 13 is_stmt 1      @ ../APP/Src/modbus_ascii.c:202:13
	ldrh	r0, [r0]
	.loc	2 202 5 is_stmt 0       @ ../APP/Src/modbus_ascii.c:202:5
	add	sp, #24
	pop	{r7, pc}
.Ltmp59:
.Lfunc_end4:
	.size	MODBUS_ASCII_RtuPacketToAsciiPacket, .Lfunc_end4-MODBUS_ASCII_RtuPacketToAsciiPacket
	.cfi_endproc
	.cantunwind
	.fnend
                                        @ -- End function
	.section	.text.MODBUS_ASCII_HandlRevData,"ax",%progbits
	.hidden	MODBUS_ASCII_HandlRevData @ -- Begin function MODBUS_ASCII_HandlRevData
	.globl	MODBUS_ASCII_HandlRevData
	.p2align	2
	.type	MODBUS_ASCII_HandlRevData,%function
	.code	16                      @ @MODBUS_ASCII_HandlRevData
	.thumb_func
MODBUS_ASCII_HandlRevData:
.Lfunc_begin5:
	.loc	2 218 0 is_stmt 1       @ ../APP/Src/modbus_ascii.c:218:0
	.fnstart
	.cfi_startproc
@ %bb.0:
	.pad	#8
	sub	sp, #8
	.cfi_def_cfa_offset 8
	mov	r1, r0
	add	r2, sp, #4
	strb	r0, [r2]
.Ltmp60:
	.loc	2 221 12 prologue_end   @ ../APP/Src/modbus_ascii.c:221:12
	ldr	r0, __arm_cp.5_0
	ldrb	r0, [r0]
	.loc	2 221 5 is_stmt 0       @ ../APP/Src/modbus_ascii.c:221:5
	cmp	r0, #0
	str	r0, [sp]                @ 4-byte Spill
	beq	.LBB5_3
	b	.LBB5_1
.LBB5_1:
	ldr	r0, [sp]                @ 4-byte Reload
	cmp	r0, #1
	beq	.LBB5_11
	b	.LBB5_2
.LBB5_2:
	ldr	r0, [sp]                @ 4-byte Reload
	cmp	r0, #2
	beq	.LBB5_18
	b	.LBB5_21
.LBB5_3:
	.loc	2 0 5                   @ ../APP/Src/modbus_ascii.c:0:5
	add	r0, sp, #4
.Ltmp61:
	.loc	2 224 36 is_stmt 1      @ ../APP/Src/modbus_ascii.c:224:36
	ldrb	r0, [r0]
.Ltmp62:
	.loc	2 224 17 is_stmt 0      @ ../APP/Src/modbus_ascii.c:224:17
	cmp	r0, #58
	bne	.LBB5_5
	b	.LBB5_4
.LBB5_4:
.Ltmp63:
	.loc	2 226 33 is_stmt 1      @ ../APP/Src/modbus_ascii.c:226:33
	ldr	r0, __arm_cp.5_1
	movs	r1, #0
	strh	r1, [r0]
	.loc	2 227 13                @ ../APP/Src/modbus_ascii.c:227:13
	b	.LBB5_8
.Ltmp64:
.LBB5_5:
	.loc	2 0 13 is_stmt 0        @ ../APP/Src/modbus_ascii.c:0:13
	add	r0, sp, #4
.Ltmp65:
	.loc	2 228 30 is_stmt 1      @ ../APP/Src/modbus_ascii.c:228:30
	ldrb	r0, [r0]
.Ltmp66:
	.loc	2 228 22 is_stmt 0      @ ../APP/Src/modbus_ascii.c:228:22
	cmp	r0, #13
	bne	.LBB5_7
	b	.LBB5_6
.LBB5_6:
.Ltmp67:
	.loc	2 230 30 is_stmt 1      @ ../APP/Src/modbus_ascii.c:230:30
	ldr	r0, __arm_cp.5_0
	movs	r1, #1
	strb	r1, [r0]
	.loc	2 231 13                @ ../APP/Src/modbus_ascii.c:231:13
	b	.LBB5_7
.Ltmp68:
.LBB5_7:
	.loc	2 0 13 is_stmt 0        @ ../APP/Src/modbus_ascii.c:0:13
	b	.LBB5_8
.LBB5_8:
	.loc	2 232 45 is_stmt 1      @ ../APP/Src/modbus_ascii.c:232:45
	ldr	r0, [sp, #4]
	.loc	2 232 26 is_stmt 0      @ ../APP/Src/modbus_ascii.c:232:26
	ldr	r1, __arm_cp.5_1
	ldrh	r2, [r1]
	.loc	2 232 13                @ ../APP/Src/modbus_ascii.c:232:13
	ldr	r3, __arm_cp.5_2
	.loc	2 232 43                @ ../APP/Src/modbus_ascii.c:232:43
	strb	r0, [r3, r2]
	.loc	2 233 28 is_stmt 1      @ ../APP/Src/modbus_ascii.c:233:28
	ldrh	r0, [r1]
	adds	r0, r0, #1
	strh	r0, [r1]
.Ltmp69:
	.loc	2 234 38                @ ../APP/Src/modbus_ascii.c:234:38
	ldrh	r0, [r1]
	movw	r1, #600
.Ltmp70:
	.loc	2 234 17 is_stmt 0      @ ../APP/Src/modbus_ascii.c:234:17
	cmp	r0, r1
	blt	.LBB5_10
	b	.LBB5_9
.LBB5_9:
.Ltmp71:
	.loc	2 236 30 is_stmt 1      @ ../APP/Src/modbus_ascii.c:236:30
	ldr	r0, __arm_cp.5_0
	movs	r1, #2
	strb	r1, [r0]
	.loc	2 237 13                @ ../APP/Src/modbus_ascii.c:237:13
	b	.LBB5_10
.Ltmp72:
.LBB5_10:
	.loc	2 238 13                @ ../APP/Src/modbus_ascii.c:238:13
	b	.LBB5_22
.LBB5_11:
	.loc	2 0 13 is_stmt 0        @ ../APP/Src/modbus_ascii.c:0:13
	add	r0, sp, #4
.Ltmp73:
	.loc	2 241 36 is_stmt 1      @ ../APP/Src/modbus_ascii.c:241:36
	ldrb	r0, [r0]
.Ltmp74:
	.loc	2 241 17 is_stmt 0      @ ../APP/Src/modbus_ascii.c:241:17
	cmp	r0, #58
	bne	.LBB5_13
	b	.LBB5_12
.LBB5_12:
.Ltmp75:
	.loc	2 243 35 is_stmt 1      @ ../APP/Src/modbus_ascii.c:243:35
	ldr	r0, __arm_cp.5_1
	movs	r1, #0
	strh	r1, [r0]
	.loc	2 244 32                @ ../APP/Src/modbus_ascii.c:244:32
	ldr	r2, __arm_cp.5_0
	strb	r1, [r2]
	.loc	2 245 51                @ ../APP/Src/modbus_ascii.c:245:51
	ldr	r1, [sp, #4]
	.loc	2 245 32 is_stmt 0      @ ../APP/Src/modbus_ascii.c:245:32
	ldrh	r2, [r0]
	.loc	2 245 19                @ ../APP/Src/modbus_ascii.c:245:19
	ldr	r3, __arm_cp.5_2
	.loc	2 245 49                @ ../APP/Src/modbus_ascii.c:245:49
	strb	r1, [r3, r2]
	.loc	2 246 34 is_stmt 1      @ ../APP/Src/modbus_ascii.c:246:34
	ldrh	r1, [r0]
	adds	r1, r1, #1
	strh	r1, [r0]
	.loc	2 247 13                @ ../APP/Src/modbus_ascii.c:247:13
	b	.LBB5_17
.Ltmp76:
.LBB5_13:
	.loc	2 0 13 is_stmt 0        @ ../APP/Src/modbus_ascii.c:0:13
	add	r0, sp, #4
.Ltmp77:
	.loc	2 248 29 is_stmt 1      @ ../APP/Src/modbus_ascii.c:248:29
	ldrb	r0, [r0]
.Ltmp78:
	.loc	2 248 21 is_stmt 0      @ ../APP/Src/modbus_ascii.c:248:21
	cmp	r0, #10
	bne	.LBB5_15
	b	.LBB5_14
.LBB5_14:
.Ltmp79:
	.loc	2 250 34 is_stmt 1      @ ../APP/Src/modbus_ascii.c:250:34
	ldr	r0, __arm_cp.5_0
	movs	r1, #2
	strb	r1, [r0]
	.loc	2 252 53                @ ../APP/Src/modbus_ascii.c:252:53
	ldr	r0, [sp, #4]
	.loc	2 252 34 is_stmt 0      @ ../APP/Src/modbus_ascii.c:252:34
	ldr	r1, __arm_cp.5_1
	ldrh	r2, [r1]
	.loc	2 252 21                @ ../APP/Src/modbus_ascii.c:252:21
	ldr	r3, __arm_cp.5_2
	.loc	2 252 51                @ ../APP/Src/modbus_ascii.c:252:51
	strb	r0, [r3, r2]
	.loc	2 253 36 is_stmt 1      @ ../APP/Src/modbus_ascii.c:253:36
	ldrh	r0, [r1]
	adds	r0, r0, #1
	strh	r0, [r1]
	.loc	2 256 37                @ ../APP/Src/modbus_ascii.c:256:37
	ldr	r0, __arm_cp.5_3
	movs	r1, #1
	strb	r1, [r0]
	.loc	2 257 19                @ ../APP/Src/modbus_ascii.c:257:19
	ldr	r0, __arm_cp.5_4
	movs	r1, #0
	strb	r1, [r0]
	.loc	2 259 13                @ ../APP/Src/modbus_ascii.c:259:13
	b	.LBB5_16
.Ltmp80:
.LBB5_15:
	.loc	2 262 34                @ ../APP/Src/modbus_ascii.c:262:34
	ldr	r0, __arm_cp.5_0
	movs	r1, #2
	strb	r1, [r0]
	b	.LBB5_16
.Ltmp81:
.LBB5_16:
	.loc	2 0 34 is_stmt 0        @ ../APP/Src/modbus_ascii.c:0:34
	b	.LBB5_17
.LBB5_17:
	.loc	2 264 13 is_stmt 1      @ ../APP/Src/modbus_ascii.c:264:13
	b	.LBB5_22
.LBB5_18:
	.loc	2 0 13 is_stmt 0        @ ../APP/Src/modbus_ascii.c:0:13
	add	r0, sp, #4
.Ltmp82:
	.loc	2 267 36 is_stmt 1      @ ../APP/Src/modbus_ascii.c:267:36
	ldrb	r0, [r0]
.Ltmp83:
	.loc	2 267 17 is_stmt 0      @ ../APP/Src/modbus_ascii.c:267:17
	cmp	r0, #58
	bne	.LBB5_20
	b	.LBB5_19
.LBB5_19:
.Ltmp84:
	.loc	2 269 33 is_stmt 1      @ ../APP/Src/modbus_ascii.c:269:33
	ldr	r0, __arm_cp.5_1
	movs	r1, #0
	strh	r1, [r0]
	.loc	2 270 30                @ ../APP/Src/modbus_ascii.c:270:30
	ldr	r2, __arm_cp.5_0
	strb	r1, [r2]
	.loc	2 271 49                @ ../APP/Src/modbus_ascii.c:271:49
	ldr	r1, [sp, #4]
	.loc	2 271 30 is_stmt 0      @ ../APP/Src/modbus_ascii.c:271:30
	ldrh	r2, [r0]
	.loc	2 271 17                @ ../APP/Src/modbus_ascii.c:271:17
	ldr	r3, __arm_cp.5_2
	.loc	2 271 47                @ ../APP/Src/modbus_ascii.c:271:47
	strb	r1, [r3, r2]
	.loc	2 272 32 is_stmt 1      @ ../APP/Src/modbus_ascii.c:272:32
	ldrh	r1, [r0]
	adds	r1, r1, #1
	strh	r1, [r0]
	.loc	2 274 13                @ ../APP/Src/modbus_ascii.c:274:13
	b	.LBB5_20
.Ltmp85:
.LBB5_20:
	.loc	2 275 13                @ ../APP/Src/modbus_ascii.c:275:13
	b	.LBB5_22
.LBB5_21:
	.loc	2 278 25                @ ../APP/Src/modbus_ascii.c:278:25
	ldr	r0, __arm_cp.5_0
	movs	r1, #2
	strb	r1, [r0]
	.loc	2 279 12                @ ../APP/Src/modbus_ascii.c:279:12
	b	.LBB5_22
.Ltmp86:
.LBB5_22:
	.loc	2 281 1                 @ ../APP/Src/modbus_ascii.c:281:1
	add	sp, #8
	bx	lr
.Ltmp87:
	.p2align	2
@ %bb.23:
	.loc	2 0 1 is_stmt 0         @ ../APP/Src/modbus_ascii.c:0:1
__arm_cp.5_0:
	.long	g_cyRevState
.Lcpi_end0:
	.size	__arm_cp.5_0, .Lcpi_end0-__arm_cp.5_0
__arm_cp.5_1:
	.long	g_cyRevBufffLen
.Lcpi_end1:
	.size	__arm_cp.5_1, .Lcpi_end1-__arm_cp.5_1
__arm_cp.5_2:
	.long	UARTx_RXBuff
.Lcpi_end2:
	.size	__arm_cp.5_2, .Lcpi_end2-__arm_cp.5_2
__arm_cp.5_3:
	.long	UartRecvFrameOK
.Lcpi_end3:
	.size	__arm_cp.5_3, .Lcpi_end3-__arm_cp.5_3
__arm_cp.5_4:
	.long	UartRecvFlag
.Lcpi_end4:
	.size	__arm_cp.5_4, .Lcpi_end4-__arm_cp.5_4
.Lfunc_end5:
	.size	MODBUS_ASCII_HandlRevData, .Lfunc_end5-MODBUS_ASCII_HandlRevData
	.cfi_endproc
	.cantunwind
	.fnend
                                        @ -- End function
	.section	.text.MODBUS_ASCII_CheckAscii,"ax",%progbits
	.hidden	MODBUS_ASCII_CheckAscii @ -- Begin function MODBUS_ASCII_CheckAscii
	.globl	MODBUS_ASCII_CheckAscii
	.p2align	1
	.type	MODBUS_ASCII_CheckAscii,%function
	.code	16                      @ @MODBUS_ASCII_CheckAscii
	.thumb_func
MODBUS_ASCII_CheckAscii:
.Lfunc_begin6:
	.loc	2 295 0 is_stmt 1       @ ../APP/Src/modbus_ascii.c:295:0
	.fnstart
	.cfi_startproc
@ %bb.0:
	.pad	#16
	sub	sp, #16
	.cfi_def_cfa_offset 16
	mov	r2, r1
	str	r0, [sp, #8]
	add	r0, sp, #4
	strh	r1, [r0]
	mov	r0, sp
	movs	r1, #0
.Ltmp88:
	.loc	2 298 12 prologue_end   @ ../APP/Src/modbus_ascii.c:298:12
	strh	r1, [r0]
	.loc	2 298 10 is_stmt 0      @ ../APP/Src/modbus_ascii.c:298:10
	b	.LBB6_1
.LBB6_1:                                @ =>This Inner Loop Header: Depth=1
	.loc	2 0 10                  @ ../APP/Src/modbus_ascii.c:0:10
	mov	r0, sp
.Ltmp89:
	.loc	2 298 17                @ ../APP/Src/modbus_ascii.c:298:17
	ldrh	r0, [r0]
	add	r1, sp, #4
	.loc	2 298 21                @ ../APP/Src/modbus_ascii.c:298:21
	ldrh	r1, [r1]
.Ltmp90:
	.loc	2 298 5                 @ ../APP/Src/modbus_ascii.c:298:5
	cmp	r0, r1
	bge	.LBB6_14
	b	.LBB6_2
.LBB6_2:                                @   in Loop: Header=BB6_1 Depth=1
.Ltmp91:
	.loc	2 300 21 is_stmt 1      @ ../APP/Src/modbus_ascii.c:300:21
	ldr	r0, [sp, #8]
	mov	r1, sp
	.loc	2 300 35 is_stmt 0      @ ../APP/Src/modbus_ascii.c:300:35
	ldrh	r1, [r1]
	.loc	2 300 19                @ ../APP/Src/modbus_ascii.c:300:19
	ldrb	r0, [r0, r1]
.Ltmp92:
	.loc	2 300 13                @ ../APP/Src/modbus_ascii.c:300:13
	cmp	r0, #47
	bgt	.LBB6_4
	b	.LBB6_3
.LBB6_3:
.Ltmp93:
	.loc	2 302 13 is_stmt 1      @ ../APP/Src/modbus_ascii.c:302:13
	b	.LBB6_14
.Ltmp94:
.LBB6_4:                                @   in Loop: Header=BB6_1 Depth=1
	.loc	2 305 23                @ ../APP/Src/modbus_ascii.c:305:23
	ldr	r0, [sp, #8]
	mov	r1, sp
	.loc	2 305 37 is_stmt 0      @ ../APP/Src/modbus_ascii.c:305:37
	ldrh	r1, [r1]
	.loc	2 305 21                @ ../APP/Src/modbus_ascii.c:305:21
	ldrb	r0, [r0, r1]
	.loc	2 305 42                @ ../APP/Src/modbus_ascii.c:305:42
	cmp	r0, #58
	blt	.LBB6_7
	b	.LBB6_5
.LBB6_5:                                @   in Loop: Header=BB6_1 Depth=1
	.loc	2 305 49                @ ../APP/Src/modbus_ascii.c:305:49
	ldr	r0, [sp, #8]
	mov	r1, sp
	.loc	2 305 63                @ ../APP/Src/modbus_ascii.c:305:63
	ldrh	r1, [r1]
	.loc	2 305 47                @ ../APP/Src/modbus_ascii.c:305:47
	ldrb	r0, [r0, r1]
.Ltmp95:
	.loc	2 305 14                @ ../APP/Src/modbus_ascii.c:305:14
	cmp	r0, #64
	bgt	.LBB6_7
	b	.LBB6_6
.LBB6_6:
.Ltmp96:
	.loc	2 307 13 is_stmt 1      @ ../APP/Src/modbus_ascii.c:307:13
	b	.LBB6_14
.Ltmp97:
.LBB6_7:                                @   in Loop: Header=BB6_1 Depth=1
	.loc	2 310 23                @ ../APP/Src/modbus_ascii.c:310:23
	ldr	r0, [sp, #8]
	mov	r1, sp
	.loc	2 310 37 is_stmt 0      @ ../APP/Src/modbus_ascii.c:310:37
	ldrh	r1, [r1]
	.loc	2 310 21                @ ../APP/Src/modbus_ascii.c:310:21
	ldrb	r0, [r0, r1]
	.loc	2 310 42                @ ../APP/Src/modbus_ascii.c:310:42
	cmp	r0, #71
	blt	.LBB6_10
	b	.LBB6_8
.LBB6_8:                                @   in Loop: Header=BB6_1 Depth=1
	.loc	2 310 49                @ ../APP/Src/modbus_ascii.c:310:49
	ldr	r0, [sp, #8]
	mov	r1, sp
	.loc	2 310 63                @ ../APP/Src/modbus_ascii.c:310:63
	ldrh	r1, [r1]
	.loc	2 310 47                @ ../APP/Src/modbus_ascii.c:310:47
	ldrb	r0, [r0, r1]
.Ltmp98:
	.loc	2 310 14                @ ../APP/Src/modbus_ascii.c:310:14
	cmp	r0, #96
	bgt	.LBB6_10
	b	.LBB6_9
.LBB6_9:
.Ltmp99:
	.loc	2 312 13 is_stmt 1      @ ../APP/Src/modbus_ascii.c:312:13
	b	.LBB6_14
.Ltmp100:
.LBB6_10:                               @   in Loop: Header=BB6_1 Depth=1
	.loc	2 315 21                @ ../APP/Src/modbus_ascii.c:315:21
	ldr	r0, [sp, #8]
	mov	r1, sp
	.loc	2 315 35 is_stmt 0      @ ../APP/Src/modbus_ascii.c:315:35
	ldrh	r1, [r1]
	.loc	2 315 19                @ ../APP/Src/modbus_ascii.c:315:19
	ldrb	r0, [r0, r1]
.Ltmp101:
	.loc	2 315 13                @ ../APP/Src/modbus_ascii.c:315:13
	cmp	r0, #103
	blt	.LBB6_12
	b	.LBB6_11
.LBB6_11:
.Ltmp102:
	.loc	2 317 13 is_stmt 1      @ ../APP/Src/modbus_ascii.c:317:13
	b	.LBB6_14
.Ltmp103:
.LBB6_12:                               @   in Loop: Header=BB6_1 Depth=1
	.loc	2 319 5                 @ ../APP/Src/modbus_ascii.c:319:5
	b	.LBB6_13
.Ltmp104:
.LBB6_13:                               @   in Loop: Header=BB6_1 Depth=1
	.loc	2 298 29                @ ../APP/Src/modbus_ascii.c:298:29
	ldr	r0, [sp]
	adds	r0, r0, #1
	mov	r1, sp
	strh	r0, [r1]
	.loc	2 298 5 is_stmt 0       @ ../APP/Src/modbus_ascii.c:298:5
	b	.LBB6_1
.Ltmp105:
.LBB6_14:
	.loc	2 0 5                   @ ../APP/Src/modbus_ascii.c:0:5
	mov	r0, sp
.Ltmp106:
	.loc	2 321 9 is_stmt 1       @ ../APP/Src/modbus_ascii.c:321:9
	ldrh	r0, [r0]
	add	r1, sp, #4
	.loc	2 321 14 is_stmt 0      @ ../APP/Src/modbus_ascii.c:321:14
	ldrh	r1, [r1]
.Ltmp107:
	.loc	2 321 9                 @ ../APP/Src/modbus_ascii.c:321:9
	cmp	r0, r1
	bne	.LBB6_16
	b	.LBB6_15
.LBB6_15:
	.loc	2 0 9                   @ ../APP/Src/modbus_ascii.c:0:9
	add	r0, sp, #12
	movs	r1, #1
.Ltmp108:
	.loc	2 323 9 is_stmt 1       @ ../APP/Src/modbus_ascii.c:323:9
	strb	r1, [r0]
	b	.LBB6_17
.Ltmp109:
.LBB6_16:
	.loc	2 0 9 is_stmt 0         @ ../APP/Src/modbus_ascii.c:0:9
	add	r0, sp, #12
	movs	r1, #0
	.loc	2 326 5 is_stmt 1       @ ../APP/Src/modbus_ascii.c:326:5
	strb	r1, [r0]
	b	.LBB6_17
.LBB6_17:
	.loc	2 0 5 is_stmt 0         @ ../APP/Src/modbus_ascii.c:0:5
	add	r0, sp, #12
	.loc	2 327 1 is_stmt 1       @ ../APP/Src/modbus_ascii.c:327:1
	ldrb	r0, [r0]
	add	sp, #16
	bx	lr
.Ltmp110:
.Lfunc_end6:
	.size	MODBUS_ASCII_CheckAscii, .Lfunc_end6-MODBUS_ASCII_CheckAscii
	.cfi_endproc
	.cantunwind
	.fnend
                                        @ -- End function
	.section	.text.MODBUS_ASCII_RecvData,"ax",%progbits
	.hidden	MODBUS_ASCII_RecvData   @ -- Begin function MODBUS_ASCII_RecvData
	.globl	MODBUS_ASCII_RecvData
	.p2align	2
	.type	MODBUS_ASCII_RecvData,%function
	.code	16                      @ @MODBUS_ASCII_RecvData
	.thumb_func
MODBUS_ASCII_RecvData:
.Lfunc_begin7:
	.loc	2 342 0                 @ ../APP/Src/modbus_ascii.c:342:0
	.fnstart
	.cfi_startproc
@ %bb.0:
	.save	{r7, lr}
	push	{r7, lr}
	.cfi_def_cfa_offset 8
	.cfi_offset lr, -4
	.cfi_offset r7, -8
	.pad	#40
	sub	sp, #40
	.cfi_def_cfa_offset 48
	str	r0, [sp, #32]
	str	r1, [sp, #28]
.Ltmp111:
	.loc	2 346 26 prologue_end   @ ../APP/Src/modbus_ascii.c:346:26
	ldr	r0, [sp, #32]
.Ltmp112:
	.loc	2 346 9 is_stmt 0       @ ../APP/Src/modbus_ascii.c:346:9
	cmp	r0, #0
	bne	.LBB7_2
	b	.LBB7_1
.LBB7_1:
	.loc	2 0 9                   @ ../APP/Src/modbus_ascii.c:0:9
	add	r0, sp, #36
	movs	r1, #0
.Ltmp113:
	.loc	2 348 9 is_stmt 1       @ ../APP/Src/modbus_ascii.c:348:9
	strb	r1, [r0]
	b	.LBB7_11
.Ltmp114:
.LBB7_2:
	.loc	2 351 23                @ ../APP/Src/modbus_ascii.c:351:23
	ldr	r0, __arm_cp.7_0
	ldrb	r0, [r0]
	.loc	2 351 40 is_stmt 0      @ ../APP/Src/modbus_ascii.c:351:40
	cmp	r0, #0
	beq	.LBB7_4
	b	.LBB7_3
.LBB7_3:
	.loc	2 351 49                @ ../APP/Src/modbus_ascii.c:351:49
	ldr	r0, __arm_cp.7_1
	ldrh	r0, [r0]
.Ltmp115:
	.loc	2 351 9                 @ ../APP/Src/modbus_ascii.c:351:9
	cmp	r0, #0
	bne	.LBB7_5
	b	.LBB7_4
.LBB7_4:
	.loc	2 0 9                   @ ../APP/Src/modbus_ascii.c:0:9
	add	r0, sp, #36
	movs	r1, #0
.Ltmp116:
	.loc	2 353 9 is_stmt 1       @ ../APP/Src/modbus_ascii.c:353:9
	strb	r1, [r0]
	b	.LBB7_11
.Ltmp117:
.LBB7_5:
	.loc	2 356 21                @ ../APP/Src/modbus_ascii.c:356:21
	ldr	r0, __arm_cp.7_0
	movs	r1, #0
	strb	r1, [r0]
.Ltmp118:
	.loc	2 358 56                @ ../APP/Src/modbus_ascii.c:358:56
	ldr	r0, __arm_cp.7_1
	ldrh	r0, [r0]
	.loc	2 358 72 is_stmt 0      @ ../APP/Src/modbus_ascii.c:358:72
	subs	r0, r0, #3
	.loc	2 358 14                @ ../APP/Src/modbus_ascii.c:358:14
	ldr	r1, __arm_cp.7_2
	adds	r1, r1, #1
	uxth	r0, r0
	str	r0, [sp, #16]           @ 4-byte Spill
	mov	r0, r1
	ldr	r1, [sp, #16]           @ 4-byte Reload
	bl	MODBUS_ASCII_CheckAscii
.Ltmp119:
	.loc	2 358 9                 @ ../APP/Src/modbus_ascii.c:358:9
	cmp	r0, #0
	bne	.LBB7_7
	b	.LBB7_6
.LBB7_6:
	.loc	2 0 9                   @ ../APP/Src/modbus_ascii.c:0:9
	add	r0, sp, #36
	movs	r1, #1
.Ltmp120:
	.loc	2 361 6 is_stmt 1       @ ../APP/Src/modbus_ascii.c:361:6
	strb	r1, [r0]
	b	.LBB7_11
.Ltmp121:
.LBB7_7:
	.loc	2 364 51                @ ../APP/Src/modbus_ascii.c:364:51
	ldr	r0, __arm_cp.7_1
	ldrh	r1, [r0]
	.loc	2 364 67 is_stmt 0      @ ../APP/Src/modbus_ascii.c:364:67
	subs	r1, r1, #5
	.loc	2 364 13                @ ../APP/Src/modbus_ascii.c:364:13
	ldr	r2, __arm_cp.7_2
	adds	r3, r2, #1
	uxth	r1, r1
	str	r0, [sp, #12]           @ 4-byte Spill
	mov	r0, r3
	str	r2, [sp, #8]            @ 4-byte Spill
	bl	MODBUS_ASCII_GetLrc
	add	r1, sp, #24
	.loc	2 364 11                @ ../APP/Src/modbus_ascii.c:364:11
	strb	r0, [r1]
.Ltmp122:
	.loc	2 365 9 is_stmt 1       @ ../APP/Src/modbus_ascii.c:365:9
	ldrb	r0, [r1]
	.loc	2 365 56 is_stmt 0      @ ../APP/Src/modbus_ascii.c:365:56
	ldr	r1, [sp, #12]           @ 4-byte Reload
	ldrh	r2, [r1]
	.loc	2 365 43                @ ../APP/Src/modbus_ascii.c:365:43
	ldr	r3, [sp, #8]            @ 4-byte Reload
	adds	r2, r2, r3
	subs	r2, r2, #4
	.loc	2 365 18                @ ../APP/Src/modbus_ascii.c:365:18
	str	r0, [sp, #4]            @ 4-byte Spill
	mov	r0, r2
	bl	MODBUS_ASCII_AsciiToHex
.Ltmp123:
	.loc	2 365 9                 @ ../APP/Src/modbus_ascii.c:365:9
	ldr	r1, [sp, #4]            @ 4-byte Reload
	cmp	r1, r0
	beq	.LBB7_9
	b	.LBB7_8
.LBB7_8:
	.loc	2 0 9                   @ ../APP/Src/modbus_ascii.c:0:9
	add	r0, sp, #20
	movs	r1, #2
.Ltmp124:
	.loc	2 368 11 is_stmt 1      @ ../APP/Src/modbus_ascii.c:368:11
	strb	r1, [r0]
	.loc	2 369 5                 @ ../APP/Src/modbus_ascii.c:369:5
	b	.LBB7_10
.Ltmp125:
.LBB7_9:
	.loc	2 0 5 is_stmt 0         @ ../APP/Src/modbus_ascii.c:0:5
	add	r0, sp, #20
	movs	r1, #3
.Ltmp126:
	.loc	2 372 12 is_stmt 1      @ ../APP/Src/modbus_ascii.c:372:12
	strb	r1, [r0]
	b	.LBB7_10
.Ltmp127:
.LBB7_10:
	.loc	2 374 69                @ ../APP/Src/modbus_ascii.c:374:69
	ldr	r0, __arm_cp.7_1
	ldrh	r0, [r0]
	.loc	2 374 85 is_stmt 0      @ ../APP/Src/modbus_ascii.c:374:85
	subs	r0, r0, #5
	.loc	2 374 90                @ ../APP/Src/modbus_ascii.c:374:90
	ldr	r2, [sp, #32]
	.loc	2 374 15                @ ../APP/Src/modbus_ascii.c:374:15
	ldr	r1, __arm_cp.7_2
	adds	r1, r1, #1
	uxth	r0, r0
	str	r0, [sp]                @ 4-byte Spill
	mov	r0, r1
	ldr	r1, [sp]                @ 4-byte Reload
	bl	MODBUS_ASCII_AsciiPacketToRtuPacket
	.loc	2 374 6                 @ ../APP/Src/modbus_ascii.c:374:6
	ldr	r1, [sp, #28]
	.loc	2 374 13                @ ../APP/Src/modbus_ascii.c:374:13
	strh	r0, [r1]
	.loc	2 376 12 is_stmt 1      @ ../APP/Src/modbus_ascii.c:376:12
	ldr	r0, [sp, #20]
	add	r1, sp, #36
	.loc	2 376 5 is_stmt 0       @ ../APP/Src/modbus_ascii.c:376:5
	strb	r0, [r1]
	b	.LBB7_11
.LBB7_11:
	.loc	2 0 5                   @ ../APP/Src/modbus_ascii.c:0:5
	add	r0, sp, #36
	.loc	2 377 1 is_stmt 1       @ ../APP/Src/modbus_ascii.c:377:1
	ldrb	r0, [r0]
	add	sp, #40
	pop	{r7, pc}
.Ltmp128:
	.p2align	2
@ %bb.12:
	.loc	2 0 1 is_stmt 0         @ ../APP/Src/modbus_ascii.c:0:1
__arm_cp.7_0:
	.long	UartRecvFrameOK
.Lcpi_end5:
	.size	__arm_cp.7_0, .Lcpi_end5-__arm_cp.7_0
__arm_cp.7_1:
	.long	g_cyRevBufffLen
.Lcpi_end6:
	.size	__arm_cp.7_1, .Lcpi_end6-__arm_cp.7_1
__arm_cp.7_2:
	.long	UARTx_RXBuff
.Lcpi_end7:
	.size	__arm_cp.7_2, .Lcpi_end7-__arm_cp.7_2
.Lfunc_end7:
	.size	MODBUS_ASCII_RecvData, .Lfunc_end7-MODBUS_ASCII_RecvData
	.cfi_endproc
	.cantunwind
	.fnend
                                        @ -- End function
	.section	.text.MODBUS_ASCII_SendData,"ax",%progbits
	.hidden	MODBUS_ASCII_SendData   @ -- Begin function MODBUS_ASCII_SendData
	.globl	MODBUS_ASCII_SendData
	.p2align	2
	.type	MODBUS_ASCII_SendData,%function
	.code	16                      @ @MODBUS_ASCII_SendData
	.thumb_func
MODBUS_ASCII_SendData:
.Lfunc_begin8:
	.loc	2 392 0 is_stmt 1       @ ../APP/Src/modbus_ascii.c:392:0
	.fnstart
	.cfi_startproc
@ %bb.0:
	.save	{r4, lr}
	push	{r4, lr}
	.cfi_def_cfa_offset 8
	.cfi_offset lr, -4
	.cfi_offset r4, -8
	.pad	#32
	sub	sp, #32
	.cfi_def_cfa_offset 40
	mov	r2, r1
	str	r0, [sp, #24]
	add	r0, sp, #20
	strh	r1, [r0]
.Ltmp129:
	.loc	2 396 16 prologue_end   @ ../APP/Src/modbus_ascii.c:396:16
	ldrh	r0, [r0]
	.loc	2 396 23 is_stmt 0      @ ../APP/Src/modbus_ascii.c:396:23
	cmp	r0, #0
	beq	.LBB8_2
	b	.LBB8_1
.LBB8_1:
	.loc	2 396 45                @ ../APP/Src/modbus_ascii.c:396:45
	ldr	r0, [sp, #24]
.Ltmp130:
	.loc	2 396 10                @ ../APP/Src/modbus_ascii.c:396:10
	cmp	r0, #0
	bne	.LBB8_3
	b	.LBB8_2
.LBB8_2:
	.loc	2 0 10                  @ ../APP/Src/modbus_ascii.c:0:10
	add	r0, sp, #28
	movs	r1, #0
.Ltmp131:
	.loc	2 398 9 is_stmt 1       @ ../APP/Src/modbus_ascii.c:398:9
	strh	r1, [r0]
	b	.LBB8_6
.Ltmp132:
.LBB8_3:
	.loc	2 0 9 is_stmt 0         @ ../APP/Src/modbus_ascii.c:0:9
	add	r0, sp, #20
.Ltmp133:
	.loc	2 401 11 is_stmt 1      @ ../APP/Src/modbus_ascii.c:401:11
	ldrh	r0, [r0]
	.loc	2 401 17 is_stmt 0      @ ../APP/Src/modbus_ascii.c:401:17
	lsls	r0, r0, #1
	.loc	2 401 21                @ ../APP/Src/modbus_ascii.c:401:21
	adds	r0, r0, #5
	ldr	r1, __arm_cp.8_0
.Ltmp134:
	.loc	2 401 10                @ ../APP/Src/modbus_ascii.c:401:10
	cmp	r0, r1
	blt	.LBB8_5
	b	.LBB8_4
.LBB8_4:
	.loc	2 0 10                  @ ../APP/Src/modbus_ascii.c:0:10
	add	r0, sp, #28
	movs	r1, #0
.Ltmp135:
	.loc	2 403 6 is_stmt 1       @ ../APP/Src/modbus_ascii.c:403:6
	strh	r1, [r0]
	b	.LBB8_6
.Ltmp136:
.LBB8_5:
	.loc	2 406 20                @ ../APP/Src/modbus_ascii.c:406:20
	ldr	r0, __arm_cp.8_1
	movs	r1, #58
	strb	r1, [r0]
	add	r1, sp, #12
	movs	r2, #1
	.loc	2 407 16                @ ../APP/Src/modbus_ascii.c:407:16
	strh	r2, [r1]
	.loc	2 409 55                @ ../APP/Src/modbus_ascii.c:409:55
	ldr	r2, [sp, #24]
	add	r3, sp, #20
	.loc	2 409 67 is_stmt 0      @ ../APP/Src/modbus_ascii.c:409:67
	ldrh	r3, [r3]
	.loc	2 409 19                @ ../APP/Src/modbus_ascii.c:409:19
	adds	r4, r0, #1
	str	r0, [sp, #8]            @ 4-byte Spill
	mov	r0, r2
	str	r1, [sp, #4]            @ 4-byte Spill
	mov	r1, r3
	mov	r2, r4
	str	r4, [sp]                @ 4-byte Spill
	bl	MODBUS_ASCII_RtuPacketToAsciiPacket
	.loc	2 409 16                @ ../APP/Src/modbus_ascii.c:409:16
	ldr	r1, [sp, #12]
	adds	r0, r1, r0
	ldr	r1, [sp, #4]            @ 4-byte Reload
	strh	r0, [r1]
	.loc	2 410 50 is_stmt 1      @ ../APP/Src/modbus_ascii.c:410:50
	ldr	r0, [sp, #12]
	.loc	2 410 61 is_stmt 0      @ ../APP/Src/modbus_ascii.c:410:61
	subs	r0, r0, #1
	.loc	2 410 13                @ ../APP/Src/modbus_ascii.c:410:13
	uxth	r1, r0
	ldr	r0, [sp]                @ 4-byte Reload
	bl	MODBUS_ASCII_GetLrc
	add	r1, sp, #16
	.loc	2 410 11                @ ../APP/Src/modbus_ascii.c:410:11
	strb	r0, [r1]
	.loc	2 411 29 is_stmt 1      @ ../APP/Src/modbus_ascii.c:411:29
	ldrb	r0, [r1]
	.loc	2 411 49 is_stmt 0      @ ../APP/Src/modbus_ascii.c:411:49
	ldr	r1, [sp, #4]            @ 4-byte Reload
	ldrh	r2, [r1]
	.loc	2 411 37                @ ../APP/Src/modbus_ascii.c:411:37
	ldr	r3, [sp, #8]            @ 4-byte Reload
	adds	r1, r3, r2
	.loc	2 411 5                 @ ../APP/Src/modbus_ascii.c:411:5
	bl	MODBUS_ASCII_HexToAscii
	.loc	2 412 16 is_stmt 1      @ ../APP/Src/modbus_ascii.c:412:16
	ldr	r0, [sp, #12]
	adds	r0, r0, #2
	ldr	r1, [sp, #4]            @ 4-byte Reload
	strh	r0, [r1]
	.loc	2 413 17                @ ../APP/Src/modbus_ascii.c:413:17
	ldrh	r0, [r1]
	movs	r2, #13
	.loc	2 413 29 is_stmt 0      @ ../APP/Src/modbus_ascii.c:413:29
	ldr	r3, [sp, #8]            @ 4-byte Reload
	strb	r2, [r3, r0]
	.loc	2 414 15 is_stmt 1      @ ../APP/Src/modbus_ascii.c:414:15
	ldr	r0, [sp, #12]
	adds	r0, r0, #1
	strh	r0, [r1]
	.loc	2 415 17                @ ../APP/Src/modbus_ascii.c:415:17
	ldrh	r0, [r1]
	movs	r2, #10
	.loc	2 415 29 is_stmt 0      @ ../APP/Src/modbus_ascii.c:415:29
	strb	r2, [r3, r0]
	.loc	2 419 12 is_stmt 1      @ ../APP/Src/modbus_ascii.c:419:12
	ldr	r0, [sp, #12]
	adds	r0, r0, #1
	strh	r0, [r1]
	.loc	2 420 41                @ ../APP/Src/modbus_ascii.c:420:41
	ldrh	r1, [r1]
	.loc	2 420 13 is_stmt 0      @ ../APP/Src/modbus_ascii.c:420:13
	mov	r0, r3
	bl	UARTx_SendData
	add	r1, sp, #28
	.loc	2 420 5                 @ ../APP/Src/modbus_ascii.c:420:5
	strh	r0, [r1]
	b	.LBB8_6
.LBB8_6:
	.loc	2 0 5                   @ ../APP/Src/modbus_ascii.c:0:5
	add	r0, sp, #28
	.loc	2 442 1 is_stmt 1       @ ../APP/Src/modbus_ascii.c:442:1
	ldrh	r0, [r0]
	add	sp, #32
	pop	{r4, pc}
.Ltmp137:
	.p2align	2
@ %bb.7:
	.loc	2 0 1 is_stmt 0         @ ../APP/Src/modbus_ascii.c:0:1
__arm_cp.8_0:
	.long	601                     @ 0x259
.Lcpi_end8:
	.size	__arm_cp.8_0, .Lcpi_end8-__arm_cp.8_0
__arm_cp.8_1:
	.long	cyAsciiBuff
.Lcpi_end9:
	.size	__arm_cp.8_1, .Lcpi_end9-__arm_cp.8_1
.Lfunc_end8:
	.size	MODBUS_ASCII_SendData, .Lfunc_end8-MODBUS_ASCII_SendData
	.cfi_endproc
	.cantunwind
	.fnend
                                        @ -- End function
	.section	.text.MODBUS_ASCII_SendData1,"ax",%progbits
	.hidden	MODBUS_ASCII_SendData1  @ -- Begin function MODBUS_ASCII_SendData1
	.globl	MODBUS_ASCII_SendData1
	.p2align	2
	.type	MODBUS_ASCII_SendData1,%function
	.code	16                      @ @MODBUS_ASCII_SendData1
	.thumb_func
MODBUS_ASCII_SendData1:
.Lfunc_begin9:
	.loc	2 445 0 is_stmt 1       @ ../APP/Src/modbus_ascii.c:445:0
	.fnstart
	.cfi_startproc
@ %bb.0:
	.save	{r4, lr}
	push	{r4, lr}
	.cfi_def_cfa_offset 8
	.cfi_offset lr, -4
	.cfi_offset r4, -8
	.pad	#32
	sub	sp, #32
	.cfi_def_cfa_offset 40
	mov	r2, r1
	str	r0, [sp, #24]
	add	r0, sp, #20
	strh	r1, [r0]
.Ltmp138:
	.loc	2 449 16 prologue_end   @ ../APP/Src/modbus_ascii.c:449:16
	ldrh	r0, [r0]
	.loc	2 449 23 is_stmt 0      @ ../APP/Src/modbus_ascii.c:449:23
	cmp	r0, #0
	beq	.LBB9_2
	b	.LBB9_1
.LBB9_1:
	.loc	2 449 45                @ ../APP/Src/modbus_ascii.c:449:45
	ldr	r0, [sp, #24]
.Ltmp139:
	.loc	2 449 10                @ ../APP/Src/modbus_ascii.c:449:10
	cmp	r0, #0
	bne	.LBB9_3
	b	.LBB9_2
.LBB9_2:
	.loc	2 0 10                  @ ../APP/Src/modbus_ascii.c:0:10
	add	r0, sp, #28
	movs	r1, #0
.Ltmp140:
	.loc	2 451 9 is_stmt 1       @ ../APP/Src/modbus_ascii.c:451:9
	strh	r1, [r0]
	b	.LBB9_6
.Ltmp141:
.LBB9_3:
	.loc	2 0 9 is_stmt 0         @ ../APP/Src/modbus_ascii.c:0:9
	add	r0, sp, #20
.Ltmp142:
	.loc	2 454 11 is_stmt 1      @ ../APP/Src/modbus_ascii.c:454:11
	ldrh	r0, [r0]
	.loc	2 454 17 is_stmt 0      @ ../APP/Src/modbus_ascii.c:454:17
	lsls	r0, r0, #1
	.loc	2 454 21                @ ../APP/Src/modbus_ascii.c:454:21
	adds	r0, r0, #5
	ldr	r1, __arm_cp.9_0
.Ltmp143:
	.loc	2 454 10                @ ../APP/Src/modbus_ascii.c:454:10
	cmp	r0, r1
	blt	.LBB9_5
	b	.LBB9_4
.LBB9_4:
	.loc	2 0 10                  @ ../APP/Src/modbus_ascii.c:0:10
	add	r0, sp, #28
	movs	r1, #0
.Ltmp144:
	.loc	2 456 6 is_stmt 1       @ ../APP/Src/modbus_ascii.c:456:6
	strh	r1, [r0]
	b	.LBB9_6
.Ltmp145:
.LBB9_5:
	.loc	2 459 20                @ ../APP/Src/modbus_ascii.c:459:20
	ldr	r0, __arm_cp.9_1
	movs	r1, #58
	strb	r1, [r0]
	add	r1, sp, #12
	movs	r2, #1
	.loc	2 460 16                @ ../APP/Src/modbus_ascii.c:460:16
	strh	r2, [r1]
	.loc	2 462 55                @ ../APP/Src/modbus_ascii.c:462:55
	ldr	r2, [sp, #24]
	add	r3, sp, #20
	.loc	2 462 67 is_stmt 0      @ ../APP/Src/modbus_ascii.c:462:67
	ldrh	r3, [r3]
	.loc	2 462 19                @ ../APP/Src/modbus_ascii.c:462:19
	adds	r4, r0, #1
	str	r0, [sp, #8]            @ 4-byte Spill
	mov	r0, r2
	str	r1, [sp, #4]            @ 4-byte Spill
	mov	r1, r3
	mov	r2, r4
	str	r4, [sp]                @ 4-byte Spill
	bl	MODBUS_ASCII_RtuPacketToAsciiPacket
	.loc	2 462 16                @ ../APP/Src/modbus_ascii.c:462:16
	ldr	r1, [sp, #12]
	adds	r0, r1, r0
	ldr	r1, [sp, #4]            @ 4-byte Reload
	strh	r0, [r1]
	.loc	2 463 50 is_stmt 1      @ ../APP/Src/modbus_ascii.c:463:50
	ldr	r0, [sp, #12]
	.loc	2 463 61 is_stmt 0      @ ../APP/Src/modbus_ascii.c:463:61
	subs	r0, r0, #1
	.loc	2 463 13                @ ../APP/Src/modbus_ascii.c:463:13
	uxth	r1, r0
	ldr	r0, [sp]                @ 4-byte Reload
	bl	MODBUS_ASCII_GetLrc
	add	r1, sp, #16
	.loc	2 463 11                @ ../APP/Src/modbus_ascii.c:463:11
	strb	r0, [r1]
	.loc	2 464 29 is_stmt 1      @ ../APP/Src/modbus_ascii.c:464:29
	ldrb	r0, [r1]
	.loc	2 464 49 is_stmt 0      @ ../APP/Src/modbus_ascii.c:464:49
	ldr	r1, [sp, #4]            @ 4-byte Reload
	ldrh	r2, [r1]
	.loc	2 464 37                @ ../APP/Src/modbus_ascii.c:464:37
	ldr	r3, [sp, #8]            @ 4-byte Reload
	adds	r1, r3, r2
	.loc	2 464 5                 @ ../APP/Src/modbus_ascii.c:464:5
	bl	MODBUS_ASCII_HexToAscii
	.loc	2 465 16 is_stmt 1      @ ../APP/Src/modbus_ascii.c:465:16
	ldr	r0, [sp, #12]
	adds	r0, r0, #2
	ldr	r1, [sp, #4]            @ 4-byte Reload
	strh	r0, [r1]
	.loc	2 466 17                @ ../APP/Src/modbus_ascii.c:466:17
	ldrh	r0, [r1]
	movs	r2, #13
	.loc	2 466 29 is_stmt 0      @ ../APP/Src/modbus_ascii.c:466:29
	ldr	r3, [sp, #8]            @ 4-byte Reload
	strb	r2, [r3, r0]
	.loc	2 467 15 is_stmt 1      @ ../APP/Src/modbus_ascii.c:467:15
	ldr	r0, [sp, #12]
	adds	r0, r0, #1
	strh	r0, [r1]
	.loc	2 468 17                @ ../APP/Src/modbus_ascii.c:468:17
	ldrh	r0, [r1]
	movs	r2, #10
	.loc	2 468 29 is_stmt 0      @ ../APP/Src/modbus_ascii.c:468:29
	strb	r2, [r3, r0]
	.loc	2 469 12 is_stmt 1      @ ../APP/Src/modbus_ascii.c:469:12
	ldr	r0, [sp, #12]
	adds	r0, r0, #1
	strh	r0, [r1]
	.loc	2 470 41                @ ../APP/Src/modbus_ascii.c:470:41
	ldrh	r1, [r1]
	.loc	2 470 13 is_stmt 0      @ ../APP/Src/modbus_ascii.c:470:13
	mov	r0, r3
	bl	UARTx_SendData
	add	r1, sp, #28
	.loc	2 470 5                 @ ../APP/Src/modbus_ascii.c:470:5
	strh	r0, [r1]
	b	.LBB9_6
.LBB9_6:
	.loc	2 0 5                   @ ../APP/Src/modbus_ascii.c:0:5
	add	r0, sp, #28
	.loc	2 486 1 is_stmt 1       @ ../APP/Src/modbus_ascii.c:486:1
	ldrh	r0, [r0]
	add	sp, #32
	pop	{r4, pc}
.Ltmp146:
	.p2align	2
@ %bb.7:
	.loc	2 0 1 is_stmt 0         @ ../APP/Src/modbus_ascii.c:0:1
__arm_cp.9_0:
	.long	601                     @ 0x259
.Lcpi_end10:
	.size	__arm_cp.9_0, .Lcpi_end10-__arm_cp.9_0
__arm_cp.9_1:
	.long	cyAsciiBuff
.Lcpi_end11:
	.size	__arm_cp.9_1, .Lcpi_end11-__arm_cp.9_1
.Lfunc_end9:
	.size	MODBUS_ASCII_SendData1, .Lfunc_end9-MODBUS_ASCII_SendData1
	.cfi_endproc
	.cantunwind
	.fnend
                                        @ -- End function
	.type	g_cyRevState,%object    @ @g_cyRevState
	.section	.data.g_cyRevState,"aw",%progbits
g_cyRevState:
	.byte	2                       @ 0x2
	.size	g_cyRevState, 1

	.type	g_cyRevBufffLen,%object @ @g_cyRevBufffLen
	.section	.bss.g_cyRevBufffLen,"aw",%nobits
	.p2align	1
g_cyRevBufffLen:
	.short	0                       @ 0x0
	.size	g_cyRevBufffLen, 2

	.hidden	UartRecvFrameOK         @ @UartRecvFrameOK
	.type	UartRecvFrameOK,%object
	.section	.bss.UartRecvFrameOK,"aw",%nobits
	.globl	UartRecvFrameOK
UartRecvFrameOK:
.LUartRecvFrameOK$local:
	.byte	0                       @ 0x0
	.size	UartRecvFrameOK, 1

	.hidden	cyAsciiBuff             @ @cyAsciiBuff
	.type	cyAsciiBuff,%object
	.section	.bss.cyAsciiBuff,"aw",%nobits
	.globl	cyAsciiBuff
cyAsciiBuff:
.LcyAsciiBuff$local:
	.zero	600
	.size	cyAsciiBuff, 600

	.section	".note.GNU-stack","",%progbits
	.eabi_attribute	30, 6	@ Tag_ABI_optimization_goals
	.ARM_attribute	16, 1	@ Tag_AV_eba