	.text
	.syntax unified
	.eabi_attribute	67, "2.09"	@ Tag_conformance
	.cpu	cortex-m23
	.eabi_attribute	6, 16	@ Tag_CPU_arch
	.eabi_attribute	7, 77	@ Tag_CPU_arch_profile
	.eabi_attribute	8, 0	@ Tag_ARM_ISA_use
	.eabi_attribute	9, 3	@ Tag_THUMB_ISA_use
	.eabi_attribute	34, 0	@ Tag_CPU_unaligned_access
	.eabi_attribute	17, 1	@ Tag_ABI_PCS_GOT_use
	.eabi_attribute	20, 2	@ Tag_ABI_FP_denormal
	.eabi_attribute	21, 0	@ Tag_ABI_FP_exceptions
	.eabi_attribute	23, 1	@ Tag_ABI_FP_number_model
	.eabi_attribute	24, 1	@ Tag_ABI_align_needed
	.eabi_attribute	25, 1	@ Tag_ABI_align_preserved
	.eabi_attribute	38, 1	@ Tag_ABI_FP_16bit_format
	.eabi_attribute	18, 2	@ Tag_ABI_PCS_wchar_t
	.eabi_attribute	26, 1	@ Tag_ABI_enum_size
	.eabi_attribute	14, 0	@ Tag_ABI_PCS_R9_use
	.file	"para.c"
	.file	1 "E:\\Soway\\Soway_product-soft\\105 - T119-GD\\E230 -  ds18b20-F8\\MDK-ARM" "../APP/Inc\\type.h"
	.file	2 "D:\\Keil_v5\\ARM\\ARMCLANG\\Bin\\..\\include" "stdint.h"
	.file	3 "E:\\Soway\\Soway_product-soft\\105 - T119-GD\\E230 -  ds18b20-F8\\MDK-ARM" "../APP/Src/para.c"
	.section	.text.ReadPara,"ax",%progbits
	.hidden	ReadPara                @ -- Begin function ReadPara
	.globl	ReadPara
	.p2align	2
	.type	ReadPara,%function
	.code	16                      @ @ReadPara
	.thumb_func
ReadPara:
.Lfunc_begin0:
	.loc	3 23 0                  @ ../APP/Src/para.c:23:0
	.fnstart
	.cfi_sections .debug_frame
	.cfi_startproc
@ %bb.0:
	.save	{r7, lr}
	push	{r7, lr}
	.cfi_def_cfa_offset 8
	.cfi_offset lr, -4
	.cfi_offset r7, -8
	.pad	#16
	sub	sp, #16
	.cfi_def_cfa_offset 24
	add	r0, sp, #12
	movs	r1, #1
.Ltmp0:
	.loc	3 25 5 prologue_end     @ ../APP/Src/para.c:25:5
	str	r0, [sp, #8]            @ 4-byte Spill
	mov	r0, r1
	ldr	r2, [sp, #8]            @ 4-byte Reload
	str	r1, [sp, #4]            @ 4-byte Spill
	mov	r1, r2
	ldr	r2, [sp, #4]            @ 4-byte Reload
	bl	flash_read_multi
.Ltmp1:
	.loc	3 26 7                  @ ../APP/Src/para.c:26:7
	ldr	r0, [sp, #8]            @ 4-byte Reload
	ldrb	r1, [r0]
	.loc	3 26 23 is_stmt 0       @ ../APP/Src/para.c:26:23
	ldr	r2, __arm_cp.0_0
	ldrb	r2, [r2, #1]
.Ltmp2:
	.loc	3 26 7                  @ ../APP/Src/para.c:26:7
	cmp	r1, r2
	beq	.LBB0_2
	b	.LBB0_1
.LBB0_1:
.Ltmp3:
	.loc	3 28 9 is_stmt 1        @ ../APP/Src/para.c:28:9
	ldr	r1, __arm_cp.0_0
	movs	r0, #0
	movs	r2, #12
	bl	Flash_Write_MultiBytes
	.loc	3 29 5                  @ ../APP/Src/para.c:29:5
	b	.LBB0_2
.Ltmp4:
.LBB0_2:
	.loc	3 30 5                  @ ../APP/Src/para.c:30:5
	ldr	r0, __arm_cp.0_1
	movs	r1, #0
	movs	r2, #12
	str	r0, [sp]                @ 4-byte Spill
	mov	r0, r1
	ldr	r1, [sp]                @ 4-byte Reload
	bl	flash_read_multi
	.loc	3 31 26                 @ ../APP/Src/para.c:31:26
	ldr	r0, [sp]                @ 4-byte Reload
	ldrb	r1, [r0, #2]
	.loc	3 31 24 is_stmt 0       @ ../APP/Src/para.c:31:24
	ldr	r2, __arm_cp.0_2
	strb	r1, [r2, #4]
	.loc	3 32 23 is_stmt 1       @ ../APP/Src/para.c:32:23
	ldrb	r1, [r0, #3]
	.loc	3 32 21 is_stmt 0       @ ../APP/Src/para.c:32:21
	strb	r1, [r2, #5]
	.loc	3 34 24 is_stmt 1       @ ../APP/Src/para.c:34:24
	ldrb	r1, [r0, #5]
	.loc	3 34 47 is_stmt 0       @ ../APP/Src/para.c:34:47
	lsls	r1, r1, #8
	.loc	3 34 54                 @ ../APP/Src/para.c:34:54
	ldrb	r3, [r0, #4]
	.loc	3 34 53                 @ ../APP/Src/para.c:34:53
	adds	r1, r1, r3
	.loc	3 34 21                 @ ../APP/Src/para.c:34:21
	strh	r1, [r2, #8]
	.loc	3 35 24 is_stmt 1       @ ../APP/Src/para.c:35:24
	ldrb	r1, [r0, #7]
	.loc	3 35 47 is_stmt 0       @ ../APP/Src/para.c:35:47
	lsls	r1, r1, #8
	.loc	3 35 54                 @ ../APP/Src/para.c:35:54
	ldrb	r3, [r0, #6]
	.loc	3 35 53                 @ ../APP/Src/para.c:35:53
	adds	r1, r1, r3
	.loc	3 35 21                 @ ../APP/Src/para.c:35:21
	strh	r1, [r2, #10]
	.loc	3 36 24 is_stmt 1       @ ../APP/Src/para.c:36:24
	ldrb	r1, [r0, #9]
	.loc	3 36 47 is_stmt 0       @ ../APP/Src/para.c:36:47
	lsls	r1, r1, #8
	.loc	3 36 54                 @ ../APP/Src/para.c:36:54
	ldrb	r3, [r0, #8]
	.loc	3 36 53                 @ ../APP/Src/para.c:36:53
	adds	r1, r1, r3
	.loc	3 36 21                 @ ../APP/Src/para.c:36:21
	strh	r1, [r2, #12]
	.loc	3 38 31 is_stmt 1       @ ../APP/Src/para.c:38:31
	ldrb	r1, [r0, #10]
	.loc	3 38 29 is_stmt 0       @ ../APP/Src/para.c:38:29
	strb	r1, [r2, #24]
	.loc	3 41 1 is_stmt 1        @ ../APP/Src/para.c:41:1
	add	sp, #16
	pop	{r7, pc}
.Ltmp5:
	.p2align	2
@ %bb.3:
	.loc	3 0 1 is_stmt 0         @ ../APP/Src/para.c:0:1
__arm_cp.0_0:
	.long	User_Default_Param
.Lcpi_end0:
	.size	__arm_cp.0_0, .Lcpi_end0-__arm_cp.0_0
__arm_cp.0_1:
	.long	Cur_Param
.Lcpi_end1:
	.size	__arm_cp.0_1, .Lcpi_end1-__arm_cp.0_1
__arm_cp.0_2:
	.long	UserPara
.Lcpi_end2:
	.size	__arm_cp.0_2, .Lcpi_end2-__arm_cp.0_2
.Lfunc_end0:
	.size	ReadPara, .Lfunc_end0-ReadPara
	.cfi_endproc
	.cantunwind
	.fnend
                                        @ -- End function
	.type	User_Default_Param,%object @ @User_Default_Param
	.section	.data.User_Default_Param,"aw",%progbits
User_Default_Param:
	.asciz	"\000\003\"\003\367\016\177\t\267\b\000"
	.size	User_Default_Param, 12

	.hidden	Cur_Param               @ @Cur_Param
	.type	Cur_Param,%object
	.section	.bss.Cur_Param,"aw",%nobits
	.globl	Cur_Param
Cur_Param:
.LCur_Param$local:
	.zero	12
	.size	Cur_Param, 12

	.hidden	UserPara                @ @UserPara
	.type	UserPara,%object
	.section	.bss.UserPara,"aw",%nobits
	.globl	UserPara
	.p2align	2
UserPara:
.LUserPara$local:
	.zero	28
	.size	UserPara, 28

	.section	".note.GNU-stack","",%progbits
	.eabi_attribute	30, 6	@ Tag_ABI_optimization_goals
	.ARM_attribute	16, 1	@ Tag_AV_eba