	.text
	.syntax unified
	.eabi_attribute	67, "2.09"	@ Tag_conformance
	.cpu	cortex-m23
	.eabi_attribute	6, 16	@ Tag_CPU_arch
	.eabi_attribute	7, 77	@ Tag_CPU_arch_profile
	.eabi_attribute	8, 0	@ Tag_ARM_ISA_use
	.eabi_attribute	9, 3	@ Tag_THUMB_ISA_use
	.eabi_attribute	34, 0	@ Tag_CPU_unaligned_access
	.eabi_attribute	17, 1	@ Tag_ABI_PCS_GOT_use
	.eabi_attribute	20, 2	@ Tag_ABI_FP_denormal
	.eabi_attribute	21, 0	@ Tag_ABI_FP_exceptions
	.eabi_attribute	23, 1	@ Tag_ABI_FP_number_model
	.eabi_attribute	24, 1	@ Tag_ABI_align_needed
	.eabi_attribute	25, 1	@ Tag_ABI_align_preserved
	.eabi_attribute	38, 1	@ Tag_ABI_FP_16bit_format
	.eabi_attribute	18, 2	@ Tag_ABI_PCS_wchar_t
	.eabi_attribute	26, 1	@ Tag_ABI_enum_size
	.eabi_attribute	14, 0	@ Tag_ABI_PCS_R9_use
	.file	"systick.c"
	.file	1 "D:\\Keil_v5\\ARM\\ARMCLANG\\Bin\\..\\include" "stdint.h"
	.file	2 "E:\\Soway\\Soway_product-soft\\105 - T119-GD\\E230 -  ds18b20-F8\\MDK-ARM" "../User/systick.c"
	.file	3 "E:\\Soway\\Soway_product-soft\\105 - T119-GD\\E230 -  ds18b20-F8\\MDK-ARM" "../GD32E230_Firmware_Library/CMSIS/GD/GD32E230/Include\\gd32e230.h"
	.file	4 "D:/Program Files\\Packs\\ARM\\CMSIS\\5.7.0\\CMSIS\\Core\\Include" "core_cm23.h"
	.section	.text.systick_config,"ax",%progbits
	.hidden	systick_config          @ -- Begin function systick_config
	.globl	systick_config
	.p2align	2
	.type	systick_config,%function
	.code	16                      @ @systick_config
	.thumb_func
systick_config:
.Lfunc_begin0:
	.loc	2 49 0                  @ ../User/systick.c:49:0
	.fnstart
	.cfi_sections .debug_frame
	.cfi_startproc
@ %bb.0:
	.save	{r7, lr}
	push	{r7, lr}
	.cfi_def_cfa_offset 8
	.cfi_offset lr, -4
	.cfi_offset r7, -8
	.pad	#8
	sub	sp, #8
	.cfi_def_cfa_offset 16
.Ltmp0:
	.loc	2 51 24 prologue_end    @ ../User/systick.c:51:24
	ldr	r0, __arm_cp.0_0
	ldr	r0, [r0]
	movw	r1, #1000
	.loc	2 51 40 is_stmt 0       @ ../User/systick.c:51:40
	udiv	r0, r0, r1
	.loc	2 51 9                  @ ../User/systick.c:51:9
	bl	SysTick_Config
.Ltmp1:
	.loc	2 51 9                  @ ../User/systick.c:51:9
	cmp	r0, #0
	beq	.LBB0_3
	b	.LBB0_1
.LBB0_1:
.Ltmp2:
	.loc	2 53 9 is_stmt 1        @ ../User/systick.c:53:9
	b	.LBB0_2
.LBB0_2:                                @ =>This Inner Loop Header: Depth=1
	b	.LBB0_2
.Ltmp3:
.LBB0_3:
	.loc	2 0 9 is_stmt 0         @ ../User/systick.c:0:9
	movs	r0, #0
	mvns	r1, r0
	.loc	2 57 5 is_stmt 1        @ ../User/systick.c:57:5
	str	r0, [sp, #4]            @ 4-byte Spill
	mov	r0, r1
	ldr	r1, [sp, #4]            @ 4-byte Reload
	bl	__NVIC_SetPriority
	.loc	2 58 1                  @ ../User/systick.c:58:1
	add	sp, #8
	pop	{r7, pc}
.Ltmp4:
	.p2align	2
@ %bb.4:
	.loc	2 0 1 is_stmt 0         @ ../User/systick.c:0:1
__arm_cp.0_0:
	.long	SystemCoreClock
.Lcpi_end0:
	.size	__arm_cp.0_0, .Lcpi_end0-__arm_cp.0_0
.Lfunc_end0:
	.size	systick_config, .Lfunc_end0-systick_config
	.cfi_endproc
	.cantunwind
	.fnend
                                        @ -- End function
	.section	.text.SysTick_Config,"ax",%progbits
	.p2align	2               @ -- Begin function SysTick_Config
	.type	SysTick_Config,%function
	.code	16                      @ @SysTick_Config
	.thumb_func
SysTick_Config:
.Lfunc_begin1:
	.loc	4 2239 0 is_stmt 1      @ D:/Program Files\Packs\ARM\CMSIS\5.7.0\CMSIS\Core\Include\core_cm23.h:2239:0
	.fnstart
	.cfi_startproc
@ %bb.0:
	.save	{r7, lr}
	push	{r7, lr}
	.cfi_def_cfa_offset 8
	.cfi_offset lr, -4
	.cfi_offset r7, -8
	.pad	#16
	sub	sp, #16
	.cfi_def_cfa_offset 24
	str	r0, [sp, #8]
.Ltmp5:
	.loc	4 2240 8 prologue_end   @ D:/Program Files\Packs\ARM\CMSIS\5.7.0\CMSIS\Core\Include\core_cm23.h:2240:8
	ldr	r0, [sp, #8]
	.loc	4 2240 14 is_stmt 0     @ D:/Program Files\Packs\ARM\CMSIS\5.7.0\CMSIS\Core\Include\core_cm23.h:2240:14
	subs	r0, r0, #1
.Ltmp6:
	.loc	4 2240 7                @ D:/Program Files\Packs\ARM\CMSIS\5.7.0\CMSIS\Core\Include\core_cm23.h:2240:7
	lsrs	r0, r0, #24
	cmp	r0, #0
	beq	.LBB1_2
	b	.LBB1_1
.LBB1_1:
	.loc	4 0 7                   @ D:/Program Files\Packs\ARM\CMSIS\5.7.0\CMSIS\Core\Include\core_cm23.h:0:7
	movs	r0, #1
.Ltmp7:
	.loc	4 2242 5 is_stmt 1      @ D:/Program Files\Packs\ARM\CMSIS\5.7.0\CMSIS\Core\Include\core_cm23.h:2242:5
	str	r0, [sp, #12]
	b	.LBB1_3
.Ltmp8:
.LBB1_2:
	.loc	4 2245 31               @ D:/Program Files\Packs\ARM\CMSIS\5.7.0\CMSIS\Core\Include\core_cm23.h:2245:31
	ldr	r0, [sp, #8]
	.loc	4 2245 37 is_stmt 0     @ D:/Program Files\Packs\ARM\CMSIS\5.7.0\CMSIS\Core\Include\core_cm23.h:2245:37
	subs	r0, r0, #1
	ldr	r1, __arm_cp.1_0
	.loc	4 2245 18               @ D:/Program Files\Packs\ARM\CMSIS\5.7.0\CMSIS\Core\Include\core_cm23.h:2245:18
	str	r0, [r1]
	movs	r0, #0
	mvns	r1, r0
	movs	r2, #3
	.loc	4 2246 3 is_stmt 1      @ D:/Program Files\Packs\ARM\CMSIS\5.7.0\CMSIS\Core\Include\core_cm23.h:2246:3
	str	r0, [sp, #4]            @ 4-byte Spill
	mov	r0, r1
	mov	r1, r2
	bl	__NVIC_SetPriority
	ldr	r0, __arm_cp.1_1
	.loc	4 2247 18               @ D:/Program Files\Packs\ARM\CMSIS\5.7.0\CMSIS\Core\Include\core_cm23.h:2247:18
	ldr	r1, [sp, #4]            @ 4-byte Reload
	str	r1, [r0]
	ldr	r0, __arm_cp.1_2
	movs	r2, #7
	.loc	4 2248 18               @ D:/Program Files\Packs\ARM\CMSIS\5.7.0\CMSIS\Core\Include\core_cm23.h:2248:18
	str	r2, [r0]
	.loc	4 2251 3                @ D:/Program Files\Packs\ARM\CMSIS\5.7.0\CMSIS\Core\Include\core_cm23.h:2251:3
	str	r1, [sp, #12]
	b	.LBB1_3
.LBB1_3:
	.loc	4 2252 1                @ D:/Program Files\Packs\ARM\CMSIS\5.7.0\CMSIS\Core\Include\core_cm23.h:2252:1
	ldr	r0, [sp, #12]
	add	sp, #16
	pop	{r7, pc}
.Ltmp9:
	.p2align	2
@ %bb.4:
	.loc	4 0 1 is_stmt 0         @ D:/Program Files\Packs\ARM\CMSIS\5.7.0\CMSIS\Core\Include\core_cm23.h:0:1
__arm_cp.1_0:
	.long	3758153748              @ 0xe000e014
.Lcpi_end1:
	.size	__arm_cp.1_0, .Lcpi_end1-__arm_cp.1_0
__arm_cp.1_1:
	.long	3758153752              @ 0xe000e018
.Lcpi_end2:
	.size	__arm_cp.1_1, .Lcpi_end2-__arm_cp.1_1
__arm_cp.1_2:
	.long	3758153744              @ 0xe000e010
.Lcpi_end3:
	.size	__arm_cp.1_2, .Lcpi_end3-__arm_cp.1_2
.Lfunc_end1:
	.size	SysTick_Config, .Lfunc_end1-SysTick_Config
	.cfi_endproc
	.cantunwind
	.fnend
                                        @ -- End function
	.section	.text.__NVIC_SetPriority,"ax",%progbits
	.p2align	2               @ -- Begin function __NVIC_SetPriority
	.type	__NVIC_SetPriority,%function
	.code	16                      @ @__NVIC_SetPriority
	.thumb_func
__NVIC_SetPriority:
.Lfunc_begin2:
	.loc	4 1722 0 is_stmt 1      @ D:/Program Files\Packs\ARM\CMSIS\5.7.0\CMSIS\Core\Include\core_cm23.h:1722:0
	.fnstart
	.cfi_startproc
@ %bb.0:
	.save	{r4, r5, r6, lr}
	push	{r4, r5, r6, lr}
	.cfi_def_cfa_offset 16
	.cfi_offset lr, -4
	.cfi_offset r6, -8
	.cfi_offset r5, -12
	.cfi_offset r4, -16
	.pad	#8
	sub	sp, #8
	.cfi_def_cfa_offset 24
	mov	r2, r0
	add	r3, sp, #4
	strb	r0, [r3]
	str	r1, [sp]
.Ltmp10:
	.loc	4 1723 17 prologue_end  @ D:/Program Files\Packs\ARM\CMSIS\5.7.0\CMSIS\Core\Include\core_cm23.h:1723:17
	ldrb	r0, [r3]
	sxtb	r0, r0
.Ltmp11:
	.loc	4 1723 7 is_stmt 0      @ D:/Program Files\Packs\ARM\CMSIS\5.7.0\CMSIS\Core\Include\core_cm23.h:1723:7
	cmp	r0, #0
	bmi	.LBB2_2
	b	.LBB2_1
.LBB2_1:
	.loc	4 0 7                   @ D:/Program Files\Packs\ARM\CMSIS\5.7.0\CMSIS\Core\Include\core_cm23.h:0:7
	add	r0, sp, #4
.Ltmp12:
	.loc	4 1725 55 is_stmt 1     @ D:/Program Files\Packs\ARM\CMSIS\5.7.0\CMSIS\Core\Include\core_cm23.h:1725:55
	ldrb	r1, [r0]
	sxtb	r1, r1
	movs	r2, #3
	mvns	r2, r2
	ands	r1, r2
	ldr	r3, __arm_cp.2_1
	.loc	4 1725 45 is_stmt 0     @ D:/Program Files\Packs\ARM\CMSIS\5.7.0\CMSIS\Core\Include\core_cm23.h:1725:45
	ldr	r1, [r1, r3]
	.loc	4 1725 85               @ D:/Program Files\Packs\ARM\CMSIS\5.7.0\CMSIS\Core\Include\core_cm23.h:1725:85
	ldrb	r0, [r0]
	sxtb	r0, r0
	lsls	r4, r0, #30
	lsrs	r4, r4, #27
	movs	r5, #255
	.loc	4 1725 82               @ D:/Program Files\Packs\ARM\CMSIS\5.7.0\CMSIS\Core\Include\core_cm23.h:1725:82
	lsls	r5, r4
	.loc	4 1725 71               @ D:/Program Files\Packs\ARM\CMSIS\5.7.0\CMSIS\Core\Include\core_cm23.h:1725:71
	bics	r1, r5
	.loc	4 1726 11 is_stmt 1     @ D:/Program Files\Packs\ARM\CMSIS\5.7.0\CMSIS\Core\Include\core_cm23.h:1726:11
	ldr	r5, [sp]
	.loc	4 1726 20 is_stmt 0     @ D:/Program Files\Packs\ARM\CMSIS\5.7.0\CMSIS\Core\Include\core_cm23.h:1726:20
	lsls	r5, r5, #6
	.loc	4 1726 48               @ D:/Program Files\Packs\ARM\CMSIS\5.7.0\CMSIS\Core\Include\core_cm23.h:1726:48
	uxtb	r5, r5
	.loc	4 1726 68               @ D:/Program Files\Packs\ARM\CMSIS\5.7.0\CMSIS\Core\Include\core_cm23.h:1726:68
	lsls	r5, r4
	.loc	4 1725 104 is_stmt 1    @ D:/Program Files\Packs\ARM\CMSIS\5.7.0\CMSIS\Core\Include\core_cm23.h:1725:104
	orrs	r1, r5
	.loc	4 1725 15 is_stmt 0     @ D:/Program Files\Packs\ARM\CMSIS\5.7.0\CMSIS\Core\Include\core_cm23.h:1725:15
	ands	r0, r2
	.loc	4 1725 31               @ D:/Program Files\Packs\ARM\CMSIS\5.7.0\CMSIS\Core\Include\core_cm23.h:1725:31
	str	r1, [r0, r3]
	.loc	4 1727 3 is_stmt 1      @ D:/Program Files\Packs\ARM\CMSIS\5.7.0\CMSIS\Core\Include\core_cm23.h:1727:3
	b	.LBB2_3
.Ltmp13:
.LBB2_2:
	.loc	4 0 3 is_stmt 0         @ D:/Program Files\Packs\ARM\CMSIS\5.7.0\CMSIS\Core\Include\core_cm23.h:0:3
	add	r0, sp, #4
.Ltmp14:
	.loc	4 1730 55 is_stmt 1     @ D:/Program Files\Packs\ARM\CMSIS\5.7.0\CMSIS\Core\Include\core_cm23.h:1730:55
	ldrb	r1, [r0]
	movs	r2, #15
	ands	r1, r2
	subs	r1, #8
	movs	r3, #3
	mvns	r3, r3
	ands	r1, r3
	ldr	r4, __arm_cp.2_0
	.loc	4 1730 45 is_stmt 0     @ D:/Program Files\Packs\ARM\CMSIS\5.7.0\CMSIS\Core\Include\core_cm23.h:1730:45
	ldr	r1, [r1, r4]
	.loc	4 1730 85               @ D:/Program Files\Packs\ARM\CMSIS\5.7.0\CMSIS\Core\Include\core_cm23.h:1730:85
	ldrb	r0, [r0]
	sxtb	r0, r0
	lsls	r5, r0, #30
	lsrs	r5, r5, #27
	movs	r6, #255
	.loc	4 1730 82               @ D:/Program Files\Packs\ARM\CMSIS\5.7.0\CMSIS\Core\Include\core_cm23.h:1730:82
	lsls	r6, r5
	.loc	4 1730 71               @ D:/Program Files\Packs\ARM\CMSIS\5.7.0\CMSIS\Core\Include\core_cm23.h:1730:71
	bics	r1, r6
	.loc	4 1731 11 is_stmt 1     @ D:/Program Files\Packs\ARM\CMSIS\5.7.0\CMSIS\Core\Include\core_cm23.h:1731:11
	ldr	r6, [sp]
	.loc	4 1731 20 is_stmt 0     @ D:/Program Files\Packs\ARM\CMSIS\5.7.0\CMSIS\Core\Include\core_cm23.h:1731:20
	lsls	r6, r6, #6
	.loc	4 1731 48               @ D:/Program Files\Packs\ARM\CMSIS\5.7.0\CMSIS\Core\Include\core_cm23.h:1731:48
	uxtb	r6, r6
	.loc	4 1731 68               @ D:/Program Files\Packs\ARM\CMSIS\5.7.0\CMSIS\Core\Include\core_cm23.h:1731:68
	lsls	r6, r5
	.loc	4 1730 104 is_stmt 1    @ D:/Program Files\Packs\ARM\CMSIS\5.7.0\CMSIS\Core\Include\core_cm23.h:1730:104
	orrs	r1, r6
	.loc	4 1730 15 is_stmt 0     @ D:/Program Files\Packs\ARM\CMSIS\5.7.0\CMSIS\Core\Include\core_cm23.h:1730:15
	ands	r0, r2
	subs	r0, #8
	ands	r0, r3
	.loc	4 1730 31               @ D:/Program Files\Packs\ARM\CMSIS\5.7.0\CMSIS\Core\Include\core_cm23.h:1730:31
	str	r1, [r0, r4]
	b	.LBB2_3
.Ltmp15:
.LBB2_3:
	.loc	4 1733 1 is_stmt 1      @ D:/Program Files\Packs\ARM\CMSIS\5.7.0\CMSIS\Core\Include\core_cm23.h:1733:1
	add	sp, #8
	pop	{r4, r5, r6, pc}
.Ltmp16:
	.p2align	2
@ %bb.4:
	.loc	4 0 1 is_stmt 0         @ D:/Program Files\Packs\ARM\CMSIS\5.7.0\CMSIS\Core\Include\core_cm23.h:0:1
__arm_cp.2_0:
	.long	3758157084              @ 0xe000ed1c
.Lcpi_end4:
	.size	__arm_cp.2_0, .Lcpi_end4-__arm_cp.2_0
__arm_cp.2_1:
	.long	3758154752              @ 0xe000e400
.Lcpi_end5:
	.size	__arm_cp.2_1, .Lcpi_end5-__arm_cp.2_1
.Lfunc_end2:
	.size	__NVIC_SetPriority, .Lfunc_end2-__NVIC_SetPriority
	.cfi_endproc
	.cantunwind
	.fnend
                                        @ -- End function
	.section	.text.delay_1ms,"ax",%progbits
	.hidden	delay_1ms               @ -- Begin function delay_1ms
	.globl	delay_1ms
	.p2align	2
	.type	delay_1ms,%function
	.code	16                      @ @delay_1ms
	.thumb_func
delay_1ms:
.Lfunc_begin3:
	.loc	2 67 0 is_stmt 1        @ ../User/systick.c:67:0
	.fnstart
	.cfi_startproc
@ %bb.0:
	.pad	#4
	sub	sp, #4
	.cfi_def_cfa_offset 4
	str	r0, [sp]
.Ltmp17:
	.loc	2 68 13 prologue_end    @ ../User/systick.c:68:13
	ldr	r0, [sp]
	.loc	2 68 11 is_stmt 0       @ ../User/systick.c:68:11
	ldr	r1, __arm_cp.3_0
	str	r0, [r1]
	.loc	2 70 5 is_stmt 1        @ ../User/systick.c:70:5
	b	.LBB3_1
.LBB3_1:                                @ =>This Inner Loop Header: Depth=1
	.loc	2 70 17 is_stmt 0       @ ../User/systick.c:70:17
	ldr	r0, __arm_cp.3_0
	ldr	r0, [r0]
	.loc	2 70 5                  @ ../User/systick.c:70:5
	cmp	r0, #0
	beq	.LBB3_3
	b	.LBB3_2
.LBB3_2:                                @   in Loop: Header=BB3_1 Depth=1
	b	.LBB3_1
.LBB3_3:
	.loc	2 72 1 is_stmt 1        @ ../User/systick.c:72:1
	add	sp, #4
	bx	lr
.Ltmp18:
	.p2align	2
@ %bb.4:
	.loc	2 0 1 is_stmt 0         @ ../User/systick.c:0:1
__arm_cp.3_0:
	.long	delay
.Lcpi_end6:
	.size	__arm_cp.3_0, .Lcpi_end6-__arm_cp.3_0
.Lfunc_end3:
	.size	delay_1ms, .Lfunc_end3-delay_1ms
	.cfi_endproc
	.cantunwind
	.fnend
                                        @ -- End function
	.section	.text.delay_decrement,"ax",%progbits
	.hidden	delay_decrement         @ -- Begin function delay_decrement
	.globl	delay_decrement
	.p2align	2
	.type	delay_decrement,%function
	.code	16                      @ @delay_decrement
	.thumb_func
delay_decrement:
.Lfunc_begin4:
	.loc	2 81 0 is_stmt 1        @ ../User/systick.c:81:0
	.fnstart
	.cfi_startproc
@ %bb.0:
	.loc	2 82 15 prologue_end    @ ../User/systick.c:82:15
	ldr	r0, __arm_cp.4_0
	ldr	r0, [r0]
.Ltmp19:
	.loc	2 82 9 is_stmt 0        @ ../User/systick.c:82:9
	cmp	r0, #0
	beq	.LBB4_2
	b	.LBB4_1
.LBB4_1:
.Ltmp20:
	.loc	2 83 14 is_stmt 1       @ ../User/systick.c:83:14
	ldr	r0, __arm_cp.4_0
	ldr	r1, [r0]
	subs	r1, r1, #1
	str	r1, [r0]
	.loc	2 84 5                  @ ../User/systick.c:84:5
	b	.LBB4_2
.Ltmp21:
.LBB4_2:
	.loc	2 85 1                  @ ../User/systick.c:85:1
	bx	lr
.Ltmp22:
	.p2align	2
@ %bb.3:
	.loc	2 0 1 is_stmt 0         @ ../User/systick.c:0:1
__arm_cp.4_0:
	.long	delay
.Lcpi_end7:
	.size	__arm_cp.4_0, .Lcpi_end7-__arm_cp.4_0
.Lfunc_end4:
	.size	delay_decrement, .Lfunc_end4-delay_decrement
	.cfi_endproc
	.cantunwind
	.fnend
                                        @ -- End function
	.type	delay,%object           @ @delay
	.section	.bss.delay,"aw",%nobits
	.p2align	2
delay:
	.long	0                       @ 0x0
	.size	delay, 4

	.section	".note.GNU-stack","",%progbits
	.eabi_attribute	30, 6	@ Tag_ABI_optimization_goals
	.ARM_attribute	16, 1	@ Tag_AV_eba